---
triple:          'arm64-apple-darwin'
binary-path:     'build/dmengine'
relocations:
  - { offset: 0x46, size: 0x8, addend: 0x0, symName: __Z13rmtp_Graphicsv, symObjAddr: 0x0, symBinAddr: 0x100001B00, symSize: 0x30 }
  - { offset: 0x65, size: 0x8, addend: 0x0, symName: __MergedGlobals, symObjAddr: 0x434F0, symBinAddr: 0x100527CC0, symSize: 0x0 }
  - { offset: 0x9E, size: 0x8, addend: 0x0, symName: __Z14rmtp_DrawCallsv, symObjAddr: 0x30, symBinAddr: 0x100001B30, symSize: 0x30 }
  - { offset: 0xBD, size: 0x8, addend: 0x0, symName: __MergedGlobals, symObjAddr: 0x434F0, symBinAddr: 0x100527CC0, symSize: 0x0 }
  - { offset: 0xD6, size: 0x8, addend: 0x0, symName: __Z18rmtp_DispatchCallsv, symObjAddr: 0x60, symBinAddr: 0x100001B60, symSize: 0x30 }
  - { offset: 0xF5, size: 0x8, addend: 0x0, symName: __MergedGlobals, symObjAddr: 0x434F0, symBinAddr: 0x100527CC0, symSize: 0x0 }
  - { offset: 0x192, size: 0x8, addend: 0x0, symName: __ZN10dmGraphicsL14g_adapter_listE, symObjAddr: 0x431D8, symBinAddr: 0x1005279A8, symSize: 0x0 }
  - { offset: 0x2120, size: 0x8, addend: 0x0, symName: __ZN10dmGraphicsL11g_functionsE, symObjAddr: 0x431E0, symBinAddr: 0x1005279B0, symSize: 0x0 }
  - { offset: 0x2139, size: 0x8, addend: 0x0, symName: __ZN10dmGraphicsL9g_adapterE, symObjAddr: 0x434E8, symBinAddr: 0x100527CB8, symSize: 0x0 }
  - { offset: 0x28CC, size: 0x8, addend: 0x0, symName: __ZN10dmGraphics23RegisterGraphicsAdapterEPNS_15GraphicsAdapterEPFbvEPFNS_28GraphicsAdapterFunctionTableEvEPFPNS_15GraphicsContextEvEa, symObjAddr: 0x90, symBinAddr: 0x100001B90, symSize: 0x1C }
  - { offset: 0x2927, size: 0x8, addend: 0x0, symName: __ZN10dmGraphics16GetAdapterFamilyEPKc, symObjAddr: 0xC8, symBinAddr: 0x100001BAC, symSize: 0xEC }
  - { offset: 0x29ED, size: 0x8, addend: 0x0, symName: __ZN10dmGraphics21GetTextureTypeLiteralENS_11TextureTypeE, symObjAddr: 0x1DC, symBinAddr: 0x100001C98, symSize: 0x24 }
  - { offset: 0x2A1A, size: 0x8, addend: 0x0, symName: __ZN10dmGraphics20GetBufferTypeLiteralENS_10BufferTypeE, symObjAddr: 0x200, symBinAddr: 0x100001CBC, symSize: 0x8C }
  - { offset: 0x2A47, size: 0x8, addend: 0x0, symName: __ZN10dmGraphics19GetAssetTypeLiteralENS_9AssetTypeE, symObjAddr: 0x2B0, symBinAddr: 0x100001D48, symSize: 0x24 }
  - { offset: 0x2A74, size: 0x8, addend: 0x0, symName: __ZN10dmGraphics23GetTextureFormatLiteralENS_13TextureFormatE, symObjAddr: 0x2D4, symBinAddr: 0x100001D6C, symSize: 0x24 }
  - { offset: 0x2AA1, size: 0x8, addend: 0x0, symName: __ZN10dmGraphics10NewContextERKNS_13ContextParamsE, symObjAddr: 0x3B8, symBinAddr: 0x100001DC4, symSize: 0xC }
  - { offset: 0x2BF3, size: 0x8, addend: 0x0, symName: __ZN10dmGraphics16GetShaderProgramEPNS_15GraphicsContextEPNS_10ShaderDescEPPNS2_6ShaderES6_S6_, symObjAddr: 0x3E4, symBinAddr: 0x100001DD0, symSize: 0x2A8 }
  - { offset: 0x2FBE, size: 0x8, addend: 0x0, symName: __ZN10dmGraphics25IsContextFeatureSupportedEPNS_15GraphicsContextENS_14ContextFeatureE, symObjAddr: 0x68C, symBinAddr: 0x100002078, symSize: 0x3C }
  - { offset: 0x3002, size: 0x8, addend: 0x0, symName: __ZN10dmGraphics25IsContextFeatureSupportedEPNS_15GraphicsContextENS_14ContextFeatureE, symObjAddr: 0x68C, symBinAddr: 0x100002078, symSize: 0x3C }
  - { offset: 0x3075, size: 0x8, addend: 0x0, symName: __ZN10dmGraphics18GetBufferTypeIndexENS_10BufferTypeE, symObjAddr: 0x6C8, symBinAddr: 0x1000020B4, symSize: 0x70 }
  - { offset: 0x3092, size: 0x8, addend: 0x0, symName: __ZN10dmGraphics22GetBufferTypeFromIndexEj, symObjAddr: 0x738, symBinAddr: 0x100002124, symSize: 0x20 }
  - { offset: 0x30C1, size: 0x8, addend: 0x0, symName: __ZN10dmGraphics11GetTypeSizeENS_4TypeE, symObjAddr: 0x758, symBinAddr: 0x100002144, symSize: 0x48 }
  - { offset: 0x30F0, size: 0x8, addend: 0x0, symName: __ZN10dmGraphics15GetGraphicsTypeENS_15VertexAttribute8DataTypeE, symObjAddr: 0x7C4, symBinAddr: 0x10000218C, symSize: 0x1C }
  - { offset: 0x312C, size: 0x8, addend: 0x0, symName: __ZN10dmGraphics26NewVertexStreamDeclarationEPNS_15GraphicsContextE, symObjAddr: 0x828, symBinAddr: 0x1000021A8, symSize: 0x50 }
  - { offset: 0x322F, size: 0x8, addend: 0x0, symName: __ZN10dmGraphics26NewVertexStreamDeclarationEPNS_15GraphicsContextENS_18VertexStepFunctionE, symObjAddr: 0x878, symBinAddr: 0x1000021F8, symSize: 0x58 }
  - { offset: 0x3359, size: 0x8, addend: 0x0, symName: __ZN10dmGraphics15AddVertexStreamEPNS_23VertexStreamDeclarationEPKcjNS_4TypeEb, symObjAddr: 0x8D0, symBinAddr: 0x100002250, symSize: 0x4C }
  - { offset: 0x33E6, size: 0x8, addend: 0x0, symName: __ZN10dmGraphics15AddVertexStreamEPNS_23VertexStreamDeclarationEyjNS_4TypeEb, symObjAddr: 0x91C, symBinAddr: 0x10000229C, symSize: 0xF4 }
  - { offset: 0x354C, size: 0x8, addend: 0x0, symName: __ZN10dmGraphics29DeleteVertexStreamDeclarationEPNS_23VertexStreamDeclarationE, symObjAddr: 0xA10, symBinAddr: 0x100002390, symSize: 0x40 }
  - { offset: 0x3556, size: 0x8, addend: 0x0, symName: __ZN10dmGraphics29DeleteVertexStreamDeclarationEPNS_23VertexStreamDeclarationE, symObjAddr: 0xA10, symBinAddr: 0x100002390, symSize: 0x40 }
  - { offset: 0x35FB, size: 0x8, addend: 0x0, symName: __ZN10dmGraphics23DeleteVertexDeclarationEPNS_17VertexDeclarationE, symObjAddr: 0xA50, symBinAddr: 0x1000023D0, symSize: 0x38 }
  - { offset: 0x3626, size: 0x8, addend: 0x0, symName: __ZN10dmGraphics21HashVertexDeclarationEP11HashState32PNS_17VertexDeclarationE, symObjAddr: 0xA88, symBinAddr: 0x100002408, symSize: 0x18 }
  - { offset: 0x3674, size: 0x8, addend: 0x0, symName: __ZN10dmGraphics15SetStreamOffsetEPNS_17VertexDeclarationEjt, symObjAddr: 0xAA0, symBinAddr: 0x100002420, symSize: 0x28 }
  - { offset: 0x36BF, size: 0x8, addend: 0x0, symName: __ZN10dmGraphics26GetVertexDeclarationStrideEPNS_17VertexDeclarationE, symObjAddr: 0xAFC, symBinAddr: 0x100002448, symSize: 0xC }
  - { offset: 0x36EE, size: 0x8, addend: 0x0, symName: __ZN10dmGraphics31GetVertexDeclarationStreamCountEPNS_17VertexDeclarationE, symObjAddr: 0xB08, symBinAddr: 0x100002454, symSize: 0xC }
  - { offset: 0x371D, size: 0x8, addend: 0x0, symName: __ZN10dmGraphics19IsTextureFormatASTCENS_13TextureFormatE, symObjAddr: 0xB38, symBinAddr: 0x100002460, symSize: 0x14 }
  - { offset: 0x3764, size: 0x8, addend: 0x0, symName: __ZN10dmGraphics31IsTextureFormatSupportedForTypeEPNS_15GraphicsContextENS_11TextureTypeENS_13TextureFormatE, symObjAddr: 0xB4C, symBinAddr: 0x100002474, symSize: 0x74 }
  - { offset: 0x37F8, size: 0x8, addend: 0x0, symName: __ZN10dmGraphics24IsTextureFormatSupportedEPNS_15GraphicsContextENS_13TextureFormatE, symObjAddr: 0xBC0, symBinAddr: 0x1000024E8, symSize: 0xC }
  - { offset: 0x3834, size: 0x8, addend: 0x0, symName: __ZN10dmGraphics28GetTextureFormatBitsPerPixelENS_13TextureFormatE, symObjAddr: 0xBCC, symBinAddr: 0x1000024F4, symSize: 0x54 }
  - { offset: 0x388E, size: 0x8, addend: 0x0, symName: __ZN10dmGraphics25IsTextureFormatCompressedENS_13TextureFormatE, symObjAddr: 0xD88, symBinAddr: 0x100002548, symSize: 0x34 }
  - { offset: 0x38DA, size: 0x8, addend: 0x0, symName: __ZN10dmGraphics13GetMipmapSizeEth, symObjAddr: 0xDBC, symBinAddr: 0x10000257C, symSize: 0x14 }
  - { offset: 0x3918, size: 0x8, addend: 0x0, symName: __ZN10dmGraphics13GetMipmapSizeEth, symObjAddr: 0xDBC, symBinAddr: 0x10000257C, symSize: 0x14 }
  - { offset: 0x3937, size: 0x8, addend: 0x0, symName: __ZN10dmGraphics14GetMipmapCountEt, symObjAddr: 0xDD0, symBinAddr: 0x100002590, symSize: 0x24 }
  - { offset: 0x3966, size: 0x8, addend: 0x0, symName: __ZN10dmGraphics23GetDefaultPipelineStateEv, symObjAddr: 0xDF4, symBinAddr: 0x1000025B4, symSize: 0x14 }
  - { offset: 0x3A07, size: 0x8, addend: 0x0, symName: __ZN10dmGraphics36GetSupportedCompressionFormatForTypeEPNS_15GraphicsContextENS_13TextureFormatEjjNS_11TextureTypeE, symObjAddr: 0xE08, symBinAddr: 0x1000025C8, symSize: 0x240 }
  - { offset: 0x3DBD, size: 0x8, addend: 0x0, symName: __ZN10dmGraphics20GetAstcTextureFormatEPKvjPNS_13TextureFormatE, symObjAddr: 0x1050, symBinAddr: 0x100002808, symSize: 0x1B0 }
  - { offset: 0x3E7D, size: 0x8, addend: 0x0, symName: __ZN10dmGraphics21SetPipelineStateValueERNS_13PipelineStateENS_5StateEh, symObjAddr: 0x1200, symBinAddr: 0x1000029B8, symSize: 0xA4 }
  - { offset: 0x3ED5, size: 0x8, addend: 0x0, symName: __ZN10dmGraphics16CreateShaderMetaEPNS_10ShaderDesc16ShaderReflectionEPNS_10ShaderMetaE, symObjAddr: 0x1434, symBinAddr: 0x100002A5C, symSize: 0x23C }
  - { offset: 0x41EB, size: 0x8, addend: 0x0, symName: __ZN10dmGraphicsL25PutShaderResourceBindingsEPKNS_10ShaderDesc15ResourceBindingEjR7dmArrayINS_21ShaderResourceBindingEENS_27ShaderResourceBindingFamilyE, symObjAddr: 0x1670, symBinAddr: 0x100002C98, symSize: 0x16C }
  - { offset: 0x41F5, size: 0x8, addend: 0x0, symName: __ZN10dmGraphicsL25PutShaderResourceBindingsEPKNS_10ShaderDesc15ResourceBindingEjR7dmArrayINS_21ShaderResourceBindingEENS_27ShaderResourceBindingFamilyE, symObjAddr: 0x1670, symBinAddr: 0x100002C98, symSize: 0x16C }
  - { offset: 0x4384, size: 0x8, addend: 0x0, symName: __ZN10dmGraphics17DestroyShaderMetaERNS_10ShaderMetaE, symObjAddr: 0x17DC, symBinAddr: 0x100002E04, symSize: 0x13C }
  - { offset: 0x438E, size: 0x8, addend: 0x0, symName: __ZN10dmGraphics17DestroyShaderMetaERNS_10ShaderMetaE, symObjAddr: 0x17DC, symBinAddr: 0x100002E04, symSize: 0x13C }
  - { offset: 0x4545, size: 0x8, addend: 0x0, symName: __ZN10dmGraphicsL26FreeShaderResourceBindingsER7dmArrayINS_21ShaderResourceBindingEE, symObjAddr: 0x1918, symBinAddr: 0x100002F40, symSize: 0xD8 }
  - { offset: 0x454F, size: 0x8, addend: 0x0, symName: __ZN10dmGraphicsL26FreeShaderResourceBindingsER7dmArrayINS_21ShaderResourceBindingEE, symObjAddr: 0x1918, symBinAddr: 0x100002F40, symSize: 0xD8 }
  - { offset: 0x46F1, size: 0x8, addend: 0x0, symName: __ZN10dmGraphics15IterateUniformsEPNS_7ProgramEbPFvRKNS_38CreateUniformLeafMembersCallbackParamsEPvES5_, symObjAddr: 0x1A8C, symBinAddr: 0x100003018, symSize: 0x244 }
  - { offset: 0x4A71, size: 0x8, addend: 0x0, symName: __ZN10dmGraphicsL21VisitUniformLeafNodesEPFvRKNS_38CreateUniformLeafMembersCallbackParamsEPvES3_PKNS_22ProgramResourceBindingERK7dmArrayINS_22ShaderResourceTypeInfoEENS_18ShaderResourceTypeEPcSF_PS9_IcEjj, symObjAddr: 0x1CD0, symBinAddr: 0x10000325C, symSize: 0x1C8 }
  - { offset: 0x4A7B, size: 0x8, addend: 0x0, symName: __ZN10dmGraphicsL21VisitUniformLeafNodesEPFvRKNS_38CreateUniformLeafMembersCallbackParamsEPvES3_PKNS_22ProgramResourceBindingERK7dmArrayINS_22ShaderResourceTypeInfoEENS_18ShaderResourceTypeEPcSF_PS9_IcEjj, symObjAddr: 0x1CD0, symBinAddr: 0x10000325C, symSize: 0x1C8 }
  - { offset: 0x4D42, size: 0x8, addend: 0x0, symName: __ZN10dmGraphics30IterateProgramResourceBindingsEmNS_27ShaderResourceBindingFamilyEPFvttPKNS_22ShaderResourceTypeInfoEPvES4_, symObjAddr: 0x1E98, symBinAddr: 0x100003424, symSize: 0x104 }
  - { offset: 0x4D4C, size: 0x8, addend: 0x0, symName: __ZN10dmGraphics30IterateProgramResourceBindingsEmNS_27ShaderResourceBindingFamilyEPFvttPKNS_22ShaderResourceTypeInfoEPvES4_, symObjAddr: 0x1E98, symBinAddr: 0x100003424, symSize: 0x104 }
  - { offset: 0x4E70, size: 0x8, addend: 0x0, symName: __ZN10dmGraphics14DestroyProgramEPNS_7ProgramE, symObjAddr: 0x21D8, symBinAddr: 0x100003528, symSize: 0x104 }
  - { offset: 0x4FC4, size: 0x8, addend: 0x0, symName: __ZN10dmGraphics22GetUniformBufferLayoutEjPKNS_22ShaderResourceTypeInfoEjPNS_19UniformBufferLayoutE, symObjAddr: 0x235C, symBinAddr: 0x10000362C, symSize: 0xF4 }
  - { offset: 0x5136, size: 0x8, addend: 0x0, symName: __ZN10dmGraphicsL17HashTypeRecursiveEjPKNS_22ShaderResourceTypeInfoEjP11HashState32Pb, symObjAddr: 0x3054, symBinAddr: 0x100004304, symSize: 0x134 }
  - { offset: 0x530B, size: 0x8, addend: 0x0, symName: __ZN10dmGraphics24GetGraphicsContextLimitsEPNS_15GraphicsContextERNS_21GraphicsContextLimitsE, symObjAddr: 0x3188, symBinAddr: 0x100004438, symSize: 0x1C }
  - { offset: 0x5315, size: 0x8, addend: 0x0, symName: __ZN10dmGraphicsL25CalculateStd140StructSizeEPKNS_22ShaderResourceTypeInfoEjb, symObjAddr: 0x2770, symBinAddr: 0x100003A40, symSize: 0x1B8 }
  - { offset: 0x54E1, size: 0x8, addend: 0x0, symName: __ZN10dmGraphics27FillProgramResourceBindingsEPNS_7ProgramER7dmArrayINS_21ShaderResourceBindingEERS2_INS_22ShaderResourceTypeInfoEEPA32_NS_19ResourceBindingDescEjjRNS_27ProgramResourceBindingsInfoE, symObjAddr: 0x2450, symBinAddr: 0x100003720, symSize: 0x218 }
  - { offset: 0x5701, size: 0x8, addend: 0x0, symName: __ZN10dmGraphics27FillProgramResourceBindingsEPNS_7ProgramEPA32_NS_19ResourceBindingDescEjjRNS_27ProgramResourceBindingsInfoE, symObjAddr: 0x2668, symBinAddr: 0x100003938, symSize: 0xFC }
  - { offset: 0x570B, size: 0x8, addend: 0x0, symName: __ZN10dmGraphics27FillProgramResourceBindingsEPNS_7ProgramEPA32_NS_19ResourceBindingDescEjjRNS_27ProgramResourceBindingsInfoE, symObjAddr: 0x2668, symBinAddr: 0x100003938, symSize: 0xFC }
  - { offset: 0x582B, size: 0x8, addend: 0x0, symName: __ZN10dmGraphics24UpdateShaderTypesOffsetsEPNS_22ShaderResourceTypeInfoEj, symObjAddr: 0x2764, symBinAddr: 0x100003A34, symSize: 0xC }
  - { offset: 0x5835, size: 0x8, addend: 0x0, symName: __ZN10dmGraphics24UpdateShaderTypesOffsetsEPNS_22ShaderResourceTypeInfoEj, symObjAddr: 0x2764, symBinAddr: 0x100003A34, symSize: 0xC }
  - { offset: 0x5927, size: 0x8, addend: 0x0, symName: __ZN10dmGraphics30InitializeSetTextureAsyncStateERNS_20SetTextureAsyncStateE, symObjAddr: 0x2928, symBinAddr: 0x100003BF8, symSize: 0x24 }
  - { offset: 0x595F, size: 0x8, addend: 0x0, symName: __ZN10dmGraphics25ResetSetTextureAsyncStateERNS_20SetTextureAsyncStateE, symObjAddr: 0x294C, symBinAddr: 0x100003C1C, symSize: 0x10 }
  - { offset: 0x59D1, size: 0x8, addend: 0x0, symName: __ZN10dmGraphics24PushSetTextureAsyncStateERNS_20SetTextureAsyncStateEyNS_13TextureParamsEPFvyPvES3_, symObjAddr: 0x295C, symBinAddr: 0x100003C2C, symSize: 0x22C }
  - { offset: 0x5C86, size: 0x8, addend: 0x0, symName: __ZN10dmGraphics32PushSetTextureAsyncDeleteTextureERNS_20SetTextureAsyncStateEy, symObjAddr: 0x2B88, symBinAddr: 0x100003E58, symSize: 0xBC }
  - { offset: 0x5C90, size: 0x8, addend: 0x0, symName: __ZN10dmGraphics32PushSetTextureAsyncDeleteTextureERNS_20SetTextureAsyncStateEy, symObjAddr: 0x2B88, symBinAddr: 0x100003E58, symSize: 0xBC }
  - { offset: 0x5E3A, size: 0x8, addend: 0x0, symName: __ZN10dmGraphics24GetSetTextureAsyncParamsERNS_20SetTextureAsyncStateEt, symObjAddr: 0x2C44, symBinAddr: 0x100003F14, symSize: 0x80 }
  - { offset: 0x5E44, size: 0x8, addend: 0x0, symName: __ZN10dmGraphics24GetSetTextureAsyncParamsERNS_20SetTextureAsyncStateEt, symObjAddr: 0x2C44, symBinAddr: 0x100003F14, symSize: 0x80 }
  - { offset: 0x5F59, size: 0x8, addend: 0x0, symName: __ZN10dmGraphics26ReturnSetTextureAsyncIndexERNS_20SetTextureAsyncStateEt, symObjAddr: 0x2CC4, symBinAddr: 0x100003F94, symSize: 0x6C }
  - { offset: 0x5F63, size: 0x8, addend: 0x0, symName: __ZN10dmGraphics26ReturnSetTextureAsyncIndexERNS_20SetTextureAsyncStateEt, symObjAddr: 0x2CC4, symBinAddr: 0x100003F94, symSize: 0x6C }
  - { offset: 0x6059, size: 0x8, addend: 0x0, symName: __ZN10dmGraphics13DeleteContextEPNS_15GraphicsContextE, symObjAddr: 0x2D30, symBinAddr: 0x100004000, symSize: 0xC }
  - { offset: 0x6063, size: 0x8, addend: 0x0, symName: __ZN10dmGraphics13DeleteContextEPNS_15GraphicsContextE, symObjAddr: 0x2D30, symBinAddr: 0x100004000, symSize: 0xC }
  - { offset: 0x6118, size: 0x8, addend: 0x0, symName: __ZN10dmGraphics14InstallAdapterENS_13AdapterFamilyE, symObjAddr: 0x2D3C, symBinAddr: 0x10000400C, symSize: 0x154 }
  - { offset: 0x6222, size: 0x8, addend: 0x0, symName: __ZN10dmGraphics16GetAdapterFamilyEPNS_15GraphicsAdapterE, symObjAddr: 0x2E90, symBinAddr: 0x100004160, symSize: 0x14 }
  - { offset: 0x623F, size: 0x8, addend: 0x0, symName: __ZN10dmGraphics25GetInstalledAdapterFamilyEv, symObjAddr: 0x2EA4, symBinAddr: 0x100004174, symSize: 0x1C }
  - { offset: 0x6270, size: 0x8, addend: 0x0, symName: __ZN10dmGraphics26GetRegisteredAdaptersCountEv, symObjAddr: 0x2EC0, symBinAddr: 0x100004190, symSize: 0x1C }
  - { offset: 0x62AB, size: 0x8, addend: 0x0, symName: __ZN10dmGraphics20GetRegisteredAdapterEj, symObjAddr: 0x2EDC, symBinAddr: 0x1000041AC, symSize: 0x24 }
  - { offset: 0x62F2, size: 0x8, addend: 0x0, symName: __ZN10dmGraphics8FinalizeEv, symObjAddr: 0x2F00, symBinAddr: 0x1000041D0, symSize: 0x14 }
  - { offset: 0x6318, size: 0x8, addend: 0x0, symName: __ZN10dmGraphics9GetWindowEPNS_15GraphicsContextE, symObjAddr: 0x2F14, symBinAddr: 0x1000041E4, symSize: 0xC }
  - { offset: 0x6358, size: 0x8, addend: 0x0, symName: __ZN10dmGraphics19GetWindowStateParamEPNS_15GraphicsContextE11WindowState, symObjAddr: 0x2F40, symBinAddr: 0x1000041F0, symSize: 0x2C }
  - { offset: 0x63B7, size: 0x8, addend: 0x0, symName: __ZN10dmGraphics14GetWindowWidthEPNS_15GraphicsContextE, symObjAddr: 0x2F6C, symBinAddr: 0x10000421C, symSize: 0x1C }
  - { offset: 0x6406, size: 0x8, addend: 0x0, symName: __ZN10dmGraphics15GetWindowHeightEPNS_15GraphicsContextE, symObjAddr: 0x2F88, symBinAddr: 0x100004238, symSize: 0x1C }
  - { offset: 0x6455, size: 0x8, addend: 0x0, symName: __ZN10dmGraphics21GetDisplayScaleFactorEPNS_15GraphicsContextE, symObjAddr: 0x2FA4, symBinAddr: 0x100004254, symSize: 0x1C }
  - { offset: 0x64A4, size: 0x8, addend: 0x0, symName: __ZN10dmGraphics13IconifyWindowEPNS_15GraphicsContextE, symObjAddr: 0x2FC0, symBinAddr: 0x100004270, symSize: 0x1C }
  - { offset: 0x64EF, size: 0x8, addend: 0x0, symName: __ZN10dmGraphics15SetSwapIntervalEPNS_15GraphicsContextEj, symObjAddr: 0x2FDC, symBinAddr: 0x10000428C, symSize: 0x2C }
  - { offset: 0x654A, size: 0x8, addend: 0x0, symName: __ZN10dmGraphics15GetUniformCountEm, symObjAddr: 0x3008, symBinAddr: 0x1000042B8, symSize: 0x14 }
  - { offset: 0x6573, size: 0x8, addend: 0x0, symName: __ZN10dmGraphics15GetUniformCountEm, symObjAddr: 0x3008, symBinAddr: 0x1000042B8, symSize: 0x14 }
  - { offset: 0x6590, size: 0x8, addend: 0x0, symName: __ZN10dmGraphics10GetUniformEmjPNS_7UniformE, symObjAddr: 0x301C, symBinAddr: 0x1000042CC, symSize: 0x38 }
  - { offset: 0x65E7, size: 0x8, addend: 0x0, symName: __ZN10dmGraphics10GetUniformEmjPNS_7UniformE, symObjAddr: 0x301C, symBinAddr: 0x1000042CC, symSize: 0x38 }
  - { offset: 0x6608, size: 0x8, addend: 0x0, symName: __ZN10dmGraphicsL17HashTypeRecursiveEjPKNS_22ShaderResourceTypeInfoEjP11HashState32Pb, symObjAddr: 0x3054, symBinAddr: 0x100004304, symSize: 0x134 }
  - { offset: 0x6612, size: 0x8, addend: 0x0, symName: __ZN10dmGraphics24GetGraphicsContextLimitsEPNS_15GraphicsContextERNS_21GraphicsContextLimitsE, symObjAddr: 0x3188, symBinAddr: 0x100004438, symSize: 0x1C }
  - { offset: 0x6657, size: 0x8, addend: 0x0, symName: __ZN10dmGraphics17GetAdapterVersionEPNS_15GraphicsContextERtS2_, symObjAddr: 0x31A4, symBinAddr: 0x100004454, symSize: 0x14 }
  - { offset: 0x66AA, size: 0x8, addend: 0x0, symName: __ZN10dmGraphics22GetRenderTargetTextureEPNS_15GraphicsContextEyNS_10BufferTypeE, symObjAddr: 0x3220, symBinAddr: 0x100004468, symSize: 0x11C }
  - { offset: 0x686F, size: 0x8, addend: 0x0, symName: __ZN10dmGraphics19GetRenderTargetSizeEPNS_15GraphicsContextEyNS_10BufferTypeERjS3_, symObjAddr: 0x333C, symBinAddr: 0x100004584, symSize: 0x160 }
  - { offset: 0x691E, size: 0x8, addend: 0x0, symName: __ZN10dmGraphics19GetRenderTargetSizeEPNS_15GraphicsContextEyNS_10BufferTypeERjS3_, symObjAddr: 0x333C, symBinAddr: 0x100004584, symSize: 0x160 }
  - { offset: 0x6AFE, size: 0x8, addend: 0x0, symName: __ZN10dmGraphics15GetTextureWidthEPNS_15GraphicsContextEy, symObjAddr: 0x349C, symBinAddr: 0x1000046E4, symSize: 0xA0 }
  - { offset: 0x6B47, size: 0x8, addend: 0x0, symName: __ZN10dmGraphics15GetTextureWidthEPNS_15GraphicsContextEy, symObjAddr: 0x349C, symBinAddr: 0x1000046E4, symSize: 0xA0 }
  - { offset: 0x6CC2, size: 0x8, addend: 0x0, symName: __ZN10dmGraphics16GetTextureHeightEPNS_15GraphicsContextEy, symObjAddr: 0x353C, symBinAddr: 0x100004784, symSize: 0xA0 }
  - { offset: 0x6CCC, size: 0x8, addend: 0x0, symName: __ZN10dmGraphics16GetTextureHeightEPNS_15GraphicsContextEy, symObjAddr: 0x353C, symBinAddr: 0x100004784, symSize: 0xA0 }
  - { offset: 0x6E47, size: 0x8, addend: 0x0, symName: __ZN10dmGraphics15GetTextureDepthEPNS_15GraphicsContextEy, symObjAddr: 0x35DC, symBinAddr: 0x100004824, symSize: 0xA0 }
  - { offset: 0x6E51, size: 0x8, addend: 0x0, symName: __ZN10dmGraphics15GetTextureDepthEPNS_15GraphicsContextEy, symObjAddr: 0x35DC, symBinAddr: 0x100004824, symSize: 0xA0 }
  - { offset: 0x6FCC, size: 0x8, addend: 0x0, symName: __ZN10dmGraphics23GetOriginalTextureWidthEPNS_15GraphicsContextEy, symObjAddr: 0x367C, symBinAddr: 0x1000048C4, symSize: 0xA0 }
  - { offset: 0x6FD6, size: 0x8, addend: 0x0, symName: __ZN10dmGraphics23GetOriginalTextureWidthEPNS_15GraphicsContextEy, symObjAddr: 0x367C, symBinAddr: 0x1000048C4, symSize: 0xA0 }
  - { offset: 0x7151, size: 0x8, addend: 0x0, symName: __ZN10dmGraphics24GetOriginalTextureHeightEPNS_15GraphicsContextEy, symObjAddr: 0x371C, symBinAddr: 0x100004964, symSize: 0xA0 }
  - { offset: 0x715B, size: 0x8, addend: 0x0, symName: __ZN10dmGraphics24GetOriginalTextureHeightEPNS_15GraphicsContextEy, symObjAddr: 0x371C, symBinAddr: 0x100004964, symSize: 0xA0 }
  - { offset: 0x72D6, size: 0x8, addend: 0x0, symName: __ZN10dmGraphics21GetTextureMipmapCountEPNS_15GraphicsContextEy, symObjAddr: 0x37BC, symBinAddr: 0x100004A04, symSize: 0xA0 }
  - { offset: 0x72E0, size: 0x8, addend: 0x0, symName: __ZN10dmGraphics21GetTextureMipmapCountEPNS_15GraphicsContextEy, symObjAddr: 0x37BC, symBinAddr: 0x100004A04, symSize: 0xA0 }
  - { offset: 0x745B, size: 0x8, addend: 0x0, symName: __ZN10dmGraphics14GetTextureTypeEPNS_15GraphicsContextEy, symObjAddr: 0x385C, symBinAddr: 0x100004AA4, symSize: 0xA0 }
  - { offset: 0x7465, size: 0x8, addend: 0x0, symName: __ZN10dmGraphics14GetTextureTypeEPNS_15GraphicsContextEy, symObjAddr: 0x385C, symBinAddr: 0x100004AA4, symSize: 0xA0 }
  - { offset: 0x75E0, size: 0x8, addend: 0x0, symName: __ZN10dmGraphics21GetTextureStatusFlagsEPNS_15GraphicsContextEy, symObjAddr: 0x38FC, symBinAddr: 0x100004B44, symSize: 0xAC }
  - { offset: 0x75EA, size: 0x8, addend: 0x0, symName: __ZN10dmGraphics21GetTextureStatusFlagsEPNS_15GraphicsContextEy, symObjAddr: 0x38FC, symBinAddr: 0x100004B44, symSize: 0xAC }
  - { offset: 0x77B4, size: 0x8, addend: 0x0, symName: __ZN10dmGraphics20GetNumTextureHandlesEPNS_15GraphicsContextEy, symObjAddr: 0x39A8, symBinAddr: 0x100004BF0, symSize: 0xAC }
  - { offset: 0x77BE, size: 0x8, addend: 0x0, symName: __ZN10dmGraphics20GetNumTextureHandlesEPNS_15GraphicsContextEy, symObjAddr: 0x39A8, symBinAddr: 0x100004BF0, symSize: 0xAC }
  - { offset: 0x7964, size: 0x8, addend: 0x0, symName: __ZN10dmGraphics24GetTextureUsageHintFlagsEPNS_15GraphicsContextEy, symObjAddr: 0x3A54, symBinAddr: 0x100004C9C, symSize: 0xA0 }
  - { offset: 0x796E, size: 0x8, addend: 0x0, symName: __ZN10dmGraphics24GetTextureUsageHintFlagsEPNS_15GraphicsContextEy, symObjAddr: 0x3A54, symBinAddr: 0x100004C9C, symSize: 0xA0 }
  - { offset: 0x7AE9, size: 0x8, addend: 0x0, symName: __ZN10dmGraphics11CloseWindowEPNS_15GraphicsContextE, symObjAddr: 0x3AF4, symBinAddr: 0x100004D3C, symSize: 0xC }
  - { offset: 0x7AF3, size: 0x8, addend: 0x0, symName: __ZN10dmGraphics11CloseWindowEPNS_15GraphicsContextE, symObjAddr: 0x3AF4, symBinAddr: 0x100004D3C, symSize: 0xC }
  - { offset: 0x7B2F, size: 0x8, addend: 0x0, symName: __ZN10dmGraphics13GetDisplayDpiEPNS_15GraphicsContextE, symObjAddr: 0x3B00, symBinAddr: 0x100004D48, symSize: 0xC }
  - { offset: 0x7B6F, size: 0x8, addend: 0x0, symName: __ZN10dmGraphics8GetWidthEPNS_15GraphicsContextE, symObjAddr: 0x3B0C, symBinAddr: 0x100004D54, symSize: 0xC }
  - { offset: 0x7BAF, size: 0x8, addend: 0x0, symName: __ZN10dmGraphics9GetHeightEPNS_15GraphicsContextE, symObjAddr: 0x3B18, symBinAddr: 0x100004D60, symSize: 0xC }
  - { offset: 0x7BEF, size: 0x8, addend: 0x0, symName: __ZN10dmGraphics12ResizeWindowEPNS_15GraphicsContextEjj, symObjAddr: 0x3B30, symBinAddr: 0x100004D6C, symSize: 0xC }
  - { offset: 0x7C55, size: 0x8, addend: 0x0, symName: __ZN10dmGraphics24GetDefaultTextureFiltersEPNS_15GraphicsContextERNS_13TextureFilterES3_, symObjAddr: 0x3B3C, symBinAddr: 0x100004D78, symSize: 0xC }
  - { offset: 0x7CBB, size: 0x8, addend: 0x0, symName: __ZN10dmGraphics10BeginFrameEPNS_15GraphicsContextE, symObjAddr: 0x3B48, symBinAddr: 0x100004D84, symSize: 0xC }
  - { offset: 0x7CF7, size: 0x8, addend: 0x0, symName: __ZN10dmGraphics4FlipEPNS_15GraphicsContextE, symObjAddr: 0x3B54, symBinAddr: 0x100004D90, symSize: 0xC }
  - { offset: 0x7D33, size: 0x8, addend: 0x0, symName: __ZN10dmGraphics5ClearEPNS_15GraphicsContextEjhhhhfj, symObjAddr: 0x3B60, symBinAddr: 0x100004D9C, symSize: 0xC }
  - { offset: 0x7E05, size: 0x8, addend: 0x0, symName: __ZN10dmGraphics15NewVertexBufferEPNS_15GraphicsContextEjPKvNS_11BufferUsageE, symObjAddr: 0x3B6C, symBinAddr: 0x100004DA8, symSize: 0xC }
  - { offset: 0x7E84, size: 0x8, addend: 0x0, symName: __ZN10dmGraphics18DeleteVertexBufferEm, symObjAddr: 0x3B78, symBinAddr: 0x100004DB4, symSize: 0xC }
  - { offset: 0x7EC0, size: 0x8, addend: 0x0, symName: __ZN10dmGraphics19SetVertexBufferDataEmjPKvNS_11BufferUsageE, symObjAddr: 0x3B84, symBinAddr: 0x100004DC0, symSize: 0xC }
  - { offset: 0x7F3B, size: 0x8, addend: 0x0, symName: __ZN10dmGraphics22SetVertexBufferSubDataEmjjPKv, symObjAddr: 0x3B90, symBinAddr: 0x100004DCC, symSize: 0xC }
  - { offset: 0x7FB6, size: 0x8, addend: 0x0, symName: __ZN10dmGraphics19GetVertexBufferSizeEm, symObjAddr: 0x3B9C, symBinAddr: 0x100004DD8, symSize: 0xC }
  - { offset: 0x7FF6, size: 0x8, addend: 0x0, symName: __ZN10dmGraphics22GetMaxElementsVerticesEPNS_15GraphicsContextE, symObjAddr: 0x3BA8, symBinAddr: 0x100004DE4, symSize: 0xC }
  - { offset: 0x8036, size: 0x8, addend: 0x0, symName: __ZN10dmGraphics14NewIndexBufferEPNS_15GraphicsContextEjPKvNS_11BufferUsageE, symObjAddr: 0x3BB4, symBinAddr: 0x100004DF0, symSize: 0xC }
  - { offset: 0x80B5, size: 0x8, addend: 0x0, symName: __ZN10dmGraphics17DeleteIndexBufferEm, symObjAddr: 0x3BC0, symBinAddr: 0x100004DFC, symSize: 0xC }
  - { offset: 0x80F1, size: 0x8, addend: 0x0, symName: __ZN10dmGraphics18SetIndexBufferDataEmjPKvNS_11BufferUsageE, symObjAddr: 0x3BCC, symBinAddr: 0x100004E08, symSize: 0xC }
  - { offset: 0x816C, size: 0x8, addend: 0x0, symName: __ZN10dmGraphics21SetIndexBufferSubDataEmjjPKv, symObjAddr: 0x3BD8, symBinAddr: 0x100004E14, symSize: 0xC }
  - { offset: 0x81E7, size: 0x8, addend: 0x0, symName: __ZN10dmGraphics18GetIndexBufferSizeEm, symObjAddr: 0x3BE4, symBinAddr: 0x100004E20, symSize: 0xC }
  - { offset: 0x8227, size: 0x8, addend: 0x0, symName: __ZN10dmGraphics28IsIndexBufferFormatSupportedEPNS_15GraphicsContextENS_17IndexBufferFormatE, symObjAddr: 0x3BF0, symBinAddr: 0x100004E2C, symSize: 0xC }
  - { offset: 0x827C, size: 0x8, addend: 0x0, symName: __ZN10dmGraphics20NewVertexDeclarationEPNS_15GraphicsContextEPNS_23VertexStreamDeclarationE, symObjAddr: 0x3C08, symBinAddr: 0x100004E38, symSize: 0xC }
  - { offset: 0x82D1, size: 0x8, addend: 0x0, symName: __ZN10dmGraphics20NewVertexDeclarationEPNS_15GraphicsContextEPNS_23VertexStreamDeclarationEj, symObjAddr: 0x3C14, symBinAddr: 0x100004E44, symSize: 0xC }
  - { offset: 0x833B, size: 0x8, addend: 0x0, symName: __ZN10dmGraphics23EnableVertexDeclarationEPNS_15GraphicsContextEPNS_17VertexDeclarationEjjm, symObjAddr: 0x3C20, symBinAddr: 0x100004E50, symSize: 0xC }
  - { offset: 0x83CB, size: 0x8, addend: 0x0, symName: __ZN10dmGraphics24DisableVertexDeclarationEPNS_15GraphicsContextEPNS_17VertexDeclarationE, symObjAddr: 0x3C2C, symBinAddr: 0x100004E5C, symSize: 0xC }
  - { offset: 0x841C, size: 0x8, addend: 0x0, symName: __ZN10dmGraphics18EnableVertexBufferEPNS_15GraphicsContextEmj, symObjAddr: 0x3C38, symBinAddr: 0x100004E68, symSize: 0xC }
  - { offset: 0x8482, size: 0x8, addend: 0x0, symName: __ZN10dmGraphics19DisableVertexBufferEPNS_15GraphicsContextEm, symObjAddr: 0x3C44, symBinAddr: 0x100004E74, symSize: 0xC }
  - { offset: 0x84D3, size: 0x8, addend: 0x0, symName: __ZN10dmGraphics12DrawElementsEPNS_15GraphicsContextENS_13PrimitiveTypeEjjNS_4TypeEmj, symObjAddr: 0x3C50, symBinAddr: 0x100004E80, symSize: 0xC }
  - { offset: 0x858D, size: 0x8, addend: 0x0, symName: __ZN10dmGraphics4DrawEPNS_15GraphicsContextENS_13PrimitiveTypeEjjj, symObjAddr: 0x3C5C, symBinAddr: 0x100004E8C, symSize: 0xC }
  - { offset: 0x861D, size: 0x8, addend: 0x0, symName: __ZN10dmGraphics15DispatchComputeEPNS_15GraphicsContextEjjj, symObjAddr: 0x3C68, symBinAddr: 0x100004E98, symSize: 0xC }
  - { offset: 0x8698, size: 0x8, addend: 0x0, symName: __ZN10dmGraphics10NewProgramEPNS_15GraphicsContextEPNS_10ShaderDescEPcj, symObjAddr: 0x3C74, symBinAddr: 0x100004EA4, symSize: 0xC }
  - { offset: 0x8717, size: 0x8, addend: 0x0, symName: __ZN10dmGraphics13DeleteProgramEPNS_15GraphicsContextEm, symObjAddr: 0x3C80, symBinAddr: 0x100004EB0, symSize: 0x38 }
  - { offset: 0x8772, size: 0x8, addend: 0x0, symName: __ZN10dmGraphics13EnableProgramEPNS_15GraphicsContextEm, symObjAddr: 0x3CD0, symBinAddr: 0x100004EE8, symSize: 0xC }
  - { offset: 0x87C3, size: 0x8, addend: 0x0, symName: __ZN10dmGraphics14DisableProgramEPNS_15GraphicsContextE, symObjAddr: 0x3CDC, symBinAddr: 0x100004EF4, symSize: 0xC }
  - { offset: 0x87FF, size: 0x8, addend: 0x0, symName: __ZN10dmGraphics13ReloadProgramEPNS_15GraphicsContextEmPNS_10ShaderDescE, symObjAddr: 0x3CE8, symBinAddr: 0x100004F00, symSize: 0x48 }
  - { offset: 0x886E, size: 0x8, addend: 0x0, symName: __ZN10dmGraphics17GetAttributeCountEm, symObjAddr: 0x3D30, symBinAddr: 0x100004F48, symSize: 0xC }
  - { offset: 0x88AE, size: 0x8, addend: 0x0, symName: __ZN10dmGraphics12GetAttributeEmjPyPNS_4TypeEPjS3_Pi, symObjAddr: 0x3D3C, symBinAddr: 0x100004F54, symSize: 0xC }
  - { offset: 0x8968, size: 0x8, addend: 0x0, symName: __ZN10dmGraphics13SetConstantV4EPNS_15GraphicsContextEPKN10Vectormath3Aos7Vector4Eix, symObjAddr: 0x3D48, symBinAddr: 0x100004F60, symSize: 0xC }
  - { offset: 0x89E3, size: 0x8, addend: 0x0, symName: __ZN10dmGraphics13SetConstantM4EPNS_15GraphicsContextEPKN10Vectormath3Aos7Vector4Eix, symObjAddr: 0x3D54, symBinAddr: 0x100004F6C, symSize: 0xC }
  - { offset: 0x8A5E, size: 0x8, addend: 0x0, symName: __ZN10dmGraphics10SetSamplerEPNS_15GraphicsContextExi, symObjAddr: 0x3D60, symBinAddr: 0x100004F78, symSize: 0xC }
  - { offset: 0x8B2C, size: 0x8, addend: 0x0, symName: __ZN10dmGraphics11SetViewportEPNS_15GraphicsContextEiiii, symObjAddr: 0x3E14, symBinAddr: 0x100004F84, symSize: 0xC }
  - { offset: 0x8BBC, size: 0x8, addend: 0x0, symName: __ZN10dmGraphics11EnableStateEPNS_15GraphicsContextENS_5StateE, symObjAddr: 0x3E20, symBinAddr: 0x100004F90, symSize: 0xC }
  - { offset: 0x8C0D, size: 0x8, addend: 0x0, symName: __ZN10dmGraphics12DisableStateEPNS_15GraphicsContextENS_5StateE, symObjAddr: 0x3E2C, symBinAddr: 0x100004F9C, symSize: 0xC }
  - { offset: 0x8C5E, size: 0x8, addend: 0x0, symName: __ZN10dmGraphics12SetBlendFuncEPNS_15GraphicsContextENS_11BlendFactorES2_, symObjAddr: 0x3E38, symBinAddr: 0x100004FA8, symSize: 0xC }
  - { offset: 0x8CC4, size: 0x8, addend: 0x0, symName: __ZN10dmGraphics20SetBlendFuncSeparateEPNS_15GraphicsContextENS_11BlendFactorES2_S2_S2_, symObjAddr: 0x3E44, symBinAddr: 0x100004FB4, symSize: 0xC }
  - { offset: 0x8D54, size: 0x8, addend: 0x0, symName: __ZN10dmGraphics24SetBlendEquationSeparateEPNS_15GraphicsContextENS_13BlendEquationES2_, symObjAddr: 0x3E50, symBinAddr: 0x100004FC0, symSize: 0xC }
  - { offset: 0x8DBA, size: 0x8, addend: 0x0, symName: __ZN10dmGraphics12SetColorMaskEPNS_15GraphicsContextEbbbb, symObjAddr: 0x3E5C, symBinAddr: 0x100004FCC, symSize: 0xC }
  - { offset: 0x8E5E, size: 0x8, addend: 0x0, symName: __ZN10dmGraphics12SetDepthMaskEPNS_15GraphicsContextEb, symObjAddr: 0x3E68, symBinAddr: 0x100004FD8, symSize: 0xC }
  - { offset: 0x8EB4, size: 0x8, addend: 0x0, symName: __ZN10dmGraphics12SetDepthFuncEPNS_15GraphicsContextENS_11CompareFuncE, symObjAddr: 0x3E74, symBinAddr: 0x100004FE4, symSize: 0xC }
  - { offset: 0x8F05, size: 0x8, addend: 0x0, symName: __ZN10dmGraphics14SetStencilMaskEPNS_15GraphicsContextEj, symObjAddr: 0x3E8C, symBinAddr: 0x100004FF0, symSize: 0xC }
  - { offset: 0x8F56, size: 0x8, addend: 0x0, symName: __ZN10dmGraphics14SetStencilFuncEPNS_15GraphicsContextENS_11CompareFuncEjj, symObjAddr: 0x3E98, symBinAddr: 0x100004FFC, symSize: 0xC }
  - { offset: 0x8FD1, size: 0x8, addend: 0x0, symName: __ZN10dmGraphics22SetStencilFuncSeparateEPNS_15GraphicsContextENS_8FaceTypeENS_11CompareFuncEjj, symObjAddr: 0x3EA4, symBinAddr: 0x100005008, symSize: 0xC }
  - { offset: 0x9061, size: 0x8, addend: 0x0, symName: __ZN10dmGraphics12SetStencilOpEPNS_15GraphicsContextENS_9StencilOpES2_S2_, symObjAddr: 0x3EB0, symBinAddr: 0x100005014, symSize: 0xC }
  - { offset: 0x90DC, size: 0x8, addend: 0x0, symName: __ZN10dmGraphics20SetStencilOpSeparateEPNS_15GraphicsContextENS_8FaceTypeENS_9StencilOpES3_S3_, symObjAddr: 0x3EBC, symBinAddr: 0x100005020, symSize: 0xC }
  - { offset: 0x916C, size: 0x8, addend: 0x0, symName: __ZN10dmGraphics11SetCullFaceEPNS_15GraphicsContextENS_8FaceTypeE, symObjAddr: 0x3EC8, symBinAddr: 0x10000502C, symSize: 0xC }
  - { offset: 0x91BD, size: 0x8, addend: 0x0, symName: __ZN10dmGraphics14SetFaceWindingEPNS_15GraphicsContextENS_11FaceWindingE, symObjAddr: 0x3ED4, symBinAddr: 0x100005038, symSize: 0xC }
  - { offset: 0x920E, size: 0x8, addend: 0x0, symName: __ZN10dmGraphics16SetPolygonOffsetEPNS_15GraphicsContextEff, symObjAddr: 0x3EE0, symBinAddr: 0x100005044, symSize: 0xC }
  - { offset: 0x927A, size: 0x8, addend: 0x0, symName: __ZN10dmGraphics15NewRenderTargetEPNS_15GraphicsContextEjNS_26RenderTargetCreationParamsE, symObjAddr: 0x3EEC, symBinAddr: 0x100005050, symSize: 0x58 }
  - { offset: 0x92E7, size: 0x8, addend: 0x0, symName: __ZN10dmGraphics18DeleteRenderTargetEPNS_15GraphicsContextEy, symObjAddr: 0x3F44, symBinAddr: 0x1000050A8, symSize: 0xC }
  - { offset: 0x9338, size: 0x8, addend: 0x0, symName: __ZN10dmGraphics15SetRenderTargetEPNS_15GraphicsContextEyj, symObjAddr: 0x3F50, symBinAddr: 0x1000050B4, symSize: 0xC }
  - { offset: 0x939E, size: 0x8, addend: 0x0, symName: __ZN10dmGraphics19SetRenderTargetSizeEPNS_15GraphicsContextEyjj, symObjAddr: 0x3F5C, symBinAddr: 0x1000050C0, symSize: 0xC }
  - { offset: 0x9419, size: 0x8, addend: 0x0, symName: __ZN10dmGraphics10NewTextureEPNS_15GraphicsContextERKNS_21TextureCreationParamsE, symObjAddr: 0x3F68, symBinAddr: 0x1000050CC, symSize: 0xC }
  - { offset: 0x946E, size: 0x8, addend: 0x0, symName: __ZN10dmGraphics13DeleteTextureEPNS_15GraphicsContextEy, symObjAddr: 0x3F74, symBinAddr: 0x1000050D8, symSize: 0xC }
  - { offset: 0x94BF, size: 0x8, addend: 0x0, symName: __ZN10dmGraphics10SetTextureEPNS_15GraphicsContextEyRKNS_13TextureParamsE, symObjAddr: 0x3F80, symBinAddr: 0x1000050E4, symSize: 0xC }
  - { offset: 0x9525, size: 0x8, addend: 0x0, symName: __ZN10dmGraphics15SetTextureAsyncEPNS_15GraphicsContextEyRKNS_13TextureParamsEPFvyPvES5_, symObjAddr: 0x3F8C, symBinAddr: 0x1000050F0, symSize: 0xC }
  - { offset: 0x95B5, size: 0x8, addend: 0x0, symName: __ZN10dmGraphics16SetTextureParamsEPNS_15GraphicsContextEyNS_13TextureFilterES2_NS_11TextureWrapES3_f, symObjAddr: 0x3F98, symBinAddr: 0x1000050FC, symSize: 0xC }
  - { offset: 0x9672, size: 0x8, addend: 0x0, symName: __ZN10dmGraphics22GetTextureResourceSizeEPNS_15GraphicsContextEy, symObjAddr: 0x3FA4, symBinAddr: 0x100005108, symSize: 0xC }
  - { offset: 0x96C7, size: 0x8, addend: 0x0, symName: __ZN10dmGraphics13EnableTextureEPNS_15GraphicsContextEjhy, symObjAddr: 0x3FB0, symBinAddr: 0x100005114, symSize: 0xC }
  - { offset: 0x9742, size: 0x8, addend: 0x0, symName: __ZN10dmGraphics14DisableTextureEPNS_15GraphicsContextEjy, symObjAddr: 0x3FBC, symBinAddr: 0x100005120, symSize: 0xC }
  - { offset: 0x97A8, size: 0x8, addend: 0x0, symName: __ZN10dmGraphics17GetMaxTextureSizeEPNS_15GraphicsContextE, symObjAddr: 0x3FC8, symBinAddr: 0x10000512C, symSize: 0xC }
  - { offset: 0x97E8, size: 0x8, addend: 0x0, symName: __ZN10dmGraphics10ReadPixelsEPNS_15GraphicsContextEiijjPvj, symObjAddr: 0x3FD4, symBinAddr: 0x100005138, symSize: 0xC }
  - { offset: 0x98A2, size: 0x8, addend: 0x0, symName: __ZN10dmGraphics25GetNumSupportedExtensionsEPNS_15GraphicsContextE, symObjAddr: 0x4004, symBinAddr: 0x100005144, symSize: 0xC }
  - { offset: 0x98E2, size: 0x8, addend: 0x0, symName: __ZN10dmGraphics21GetSupportedExtensionEPNS_15GraphicsContextEj, symObjAddr: 0x4010, symBinAddr: 0x100005150, symSize: 0xC }
  - { offset: 0x9937, size: 0x8, addend: 0x0, symName: __ZN10dmGraphics16GetPipelineStateEPNS_15GraphicsContextE, symObjAddr: 0x401C, symBinAddr: 0x10000515C, symSize: 0xC }
  - { offset: 0x9977, size: 0x8, addend: 0x0, symName: __ZN10dmGraphics19GetTexturePageCountEy, symObjAddr: 0x4028, symBinAddr: 0x100005168, symSize: 0xC }
  - { offset: 0x99B7, size: 0x8, addend: 0x0, symName: __ZN10dmGraphics18IsAssetHandleValidEPNS_15GraphicsContextEy, symObjAddr: 0x4034, symBinAddr: 0x100005174, symSize: 0x20 }
  - { offset: 0x9A04, size: 0x8, addend: 0x0, symName: __ZN10dmGraphics25InvalidateGraphicsHandlesEPNS_15GraphicsContextE, symObjAddr: 0x4054, symBinAddr: 0x100005194, symSize: 0xC }
  - { offset: 0x9A0E, size: 0x8, addend: 0x0, symName: __ZN10dmGraphics25InvalidateGraphicsHandlesEPNS_15GraphicsContextE, symObjAddr: 0x4054, symBinAddr: 0x100005194, symSize: 0xC }
  - { offset: 0x9A4A, size: 0x8, addend: 0x0, symName: __ZN10dmGraphics11GetViewportEPNS_15GraphicsContextEPiS2_PjS3_, symObjAddr: 0x4060, symBinAddr: 0x1000051A0, symSize: 0xC }
  - { offset: 0x9ADA, size: 0x8, addend: 0x0, symName: __ZN10dmGraphics16NewUniformBufferEPNS_15GraphicsContextERKNS_19UniformBufferLayoutE, symObjAddr: 0x406C, symBinAddr: 0x1000051AC, symSize: 0xC }
  - { offset: 0x9B2F, size: 0x8, addend: 0x0, symName: __ZN10dmGraphics19DeleteUniformBufferEPNS_15GraphicsContextEPNS_13UniformBufferE, symObjAddr: 0x4078, symBinAddr: 0x1000051B8, symSize: 0xC }
  - { offset: 0x9B80, size: 0x8, addend: 0x0, symName: __ZN10dmGraphics16SetUniformBufferEPNS_15GraphicsContextEPNS_13UniformBufferEjjPKv, symObjAddr: 0x4084, symBinAddr: 0x1000051C4, symSize: 0xC }
  - { offset: 0x9C10, size: 0x8, addend: 0x0, symName: __ZN10dmGraphics19EnableUniformBufferEPNS_15GraphicsContextEPNS_13UniformBufferEjj, symObjAddr: 0x4090, symBinAddr: 0x1000051D0, symSize: 0x18 }
  - { offset: 0xD0BD, size: 0x8, addend: 0x0, symName: __Z13rmtp_Graphicsv.cold.1, symObjAddr: 0x40BC, symBinAddr: 0x100348C20, symSize: 0x50 }
  - { offset: 0xD0D5, size: 0x8, addend: 0x0, symName: __Z14rmtp_DrawCallsv.cold.1, symObjAddr: 0x410C, symBinAddr: 0x100348C70, symSize: 0x54 }
  - { offset: 0xD0ED, size: 0x8, addend: 0x0, symName: __Z18rmtp_DispatchCallsv.cold.1, symObjAddr: 0x4160, symBinAddr: 0x100348CC4, symSize: 0x54 }
  - { offset: 0xD11F, size: 0x8, addend: 0x0, symName: __ZN10dmGraphics16GetAdapterFamilyEPKc.cold.1, symObjAddr: 0x41B4, symBinAddr: 0x100348D18, symSize: 0x28 }
  - { offset: 0xD159, size: 0x8, addend: 0x0, symName: __ZN10dmGraphics13ContextParamsC1Ev, symObjAddr: 0x384, symBinAddr: 0x100001D90, symSize: 0x34 }
  - { offset: 0xD1C6, size: 0x8, addend: 0x0, symName: __ZN10dmGraphics16GetShaderProgramEPNS_15GraphicsContextEPNS_10ShaderDescEPPNS2_6ShaderES6_S6_.cold.1, symObjAddr: 0x4204, symBinAddr: 0x100348D40, symSize: 0x28 }
  - { offset: 0xD1DE, size: 0x8, addend: 0x0, symName: __ZN10dmGraphics15GetGraphicsTypeENS_15VertexAttribute8DataTypeE.cold.1, symObjAddr: 0x422C, symBinAddr: 0x100348D68, symSize: 0x28 }
  - { offset: 0xD366, size: 0x8, addend: 0x0, symName: __ZN10dmGraphics15AddVertexStreamEPNS_23VertexStreamDeclarationEyjNS_4TypeEb.cold.2, symObjAddr: 0x4278, symBinAddr: 0x100348DB4, symSize: 0x24 }
  - { offset: 0xD394, size: 0x8, addend: 0x0, symName: __ZN10dmGraphics15AddVertexStreamEPNS_23VertexStreamDeclarationEyjNS_4TypeEb.cold.1, symObjAddr: 0x4254, symBinAddr: 0x100348D90, symSize: 0x24 }
  - { offset: 0xD512, size: 0x8, addend: 0x0, symName: __ZN10dmGraphics28GetTextureFormatBitsPerPixelENS_13TextureFormatE.cold.1, symObjAddr: 0x429C, symBinAddr: 0x100348DD8, symSize: 0x28 }
  - { offset: 0xD559, size: 0x8, addend: 0x0, symName: __ZN10dmGraphics21SetPipelineStateValueERNS_13PipelineStateENS_5StateEh.cold.1, symObjAddr: 0x433C, symBinAddr: 0x100348E00, symSize: 0x28 }
  - { offset: 0xD6B0, size: 0x8, addend: 0x0, symName: __ZN10dmGraphics16CreateShaderMetaEPNS_10ShaderDesc16ShaderReflectionEPNS_10ShaderMetaE.cold.5, symObjAddr: 0x43F4, symBinAddr: 0x100348E70, symSize: 0x28 }
  - { offset: 0xD6F3, size: 0x8, addend: 0x0, symName: __ZN10dmGraphics16CreateShaderMetaEPNS_10ShaderDesc16ShaderReflectionEPNS_10ShaderMetaE.cold.2, symObjAddr: 0x4388, symBinAddr: 0x100348E28, symSize: 0x24 }
  - { offset: 0xD721, size: 0x8, addend: 0x0, symName: __ZN10dmGraphics16CreateShaderMetaEPNS_10ShaderDesc16ShaderReflectionEPNS_10ShaderMetaE.cold.3, symObjAddr: 0x43AC, symBinAddr: 0x100348E4C, symSize: 0x24 }
  - { offset: 0xD764, size: 0x8, addend: 0x0, symName: __ZN10dmGraphics16CreateShaderMetaEPNS_10ShaderDesc16ShaderReflectionEPNS_10ShaderMetaE.cold.9, symObjAddr: 0x448C, symBinAddr: 0x100348E98, symSize: 0x28 }
  - { offset: 0xDECB, size: 0x8, addend: 0x0, symName: __ZN10dmGraphicsL21VisitUniformLeafNodesEPFvRKNS_38CreateUniformLeafMembersCallbackParamsEPvES3_PKNS_22ProgramResourceBindingERK7dmArrayINS_22ShaderResourceTypeInfoEENS_18ShaderResourceTypeEPcSF_PS9_IcEjj.cold.1, symObjAddr: 0x4624, symBinAddr: 0x100348EC0, symSize: 0x28 }
  - { offset: 0xE082, size: 0x8, addend: 0x0, symName: __ZN10dmGraphics22GetUniformBufferLayoutEjPKNS_22ShaderResourceTypeInfoEjPNS_19UniformBufferLayoutE.cold.1, symObjAddr: 0x4724, symBinAddr: 0x100348EE8, symSize: 0x28 }
  - { offset: 0xE0B2, size: 0x8, addend: 0x0, symName: __ZN10dmGraphics27FillProgramResourceBindingsEPNS_7ProgramER7dmArrayINS_21ShaderResourceBindingEERS2_INS_22ShaderResourceTypeInfoEEPA32_NS_19ResourceBindingDescEjjRNS_27ProgramResourceBindingsInfoE.cold.2, symObjAddr: 0x4770, symBinAddr: 0x100348F10, symSize: 0x28 }
  - { offset: 0xE774, size: 0x8, addend: 0x0, symName: __ZN10dmGraphics24PushSetTextureAsyncStateERNS_20SetTextureAsyncStateEyNS_13TextureParamsEPFvyPvES3_.cold.4, symObjAddr: 0x482C, symBinAddr: 0x100348F60, symSize: 0x28 }
  - { offset: 0xE7A2, size: 0x8, addend: 0x0, symName: __ZN10dmGraphics24PushSetTextureAsyncStateERNS_20SetTextureAsyncStateEyNS_13TextureParamsEPFvyPvES3_.cold.2, symObjAddr: 0x47E0, symBinAddr: 0x100348F38, symSize: 0x28 }
  - { offset: 0xE7E5, size: 0x8, addend: 0x0, symName: __ZN10dmGraphics24PushSetTextureAsyncStateERNS_20SetTextureAsyncStateEyNS_13TextureParamsEPFvyPvES3_.cold.5, symObjAddr: 0x4854, symBinAddr: 0x100348F88, symSize: 0x28 }
  - { offset: 0xECCE, size: 0x8, addend: 0x0, symName: __ZN10dmGraphics26ReturnSetTextureAsyncIndexERNS_20SetTextureAsyncStateEt.cold.1, symObjAddr: 0x48E8, symBinAddr: 0x100348FB0, symSize: 0x28 }
  - { offset: 0xECFC, size: 0x8, addend: 0x0, symName: __ZN10dmGraphics26ReturnSetTextureAsyncIndexERNS_20SetTextureAsyncStateEt.cold.2, symObjAddr: 0x4910, symBinAddr: 0x100348FD8, symSize: 0x28 }
  - { offset: 0xEDF3, size: 0x8, addend: 0x0, symName: __ZN10dmGraphicsL17HashTypeRecursiveEjPKNS_22ShaderResourceTypeInfoEjP11HashState32Pb.cold.1, symObjAddr: 0x495C, symBinAddr: 0x100349000, symSize: 0x28 }
  - { offset: 0xEF03, size: 0x8, addend: 0x0, symName: __ZN10dmGraphics22GetRenderTargetTextureEPNS_15GraphicsContextEyNS_10BufferTypeE.cold.2, symObjAddr: 0x4A20, symBinAddr: 0x10034904C, symSize: 0x24 }
  - { offset: 0xEF31, size: 0x8, addend: 0x0, symName: __ZN10dmGraphics22GetRenderTargetTextureEPNS_15GraphicsContextEyNS_10BufferTypeE.cold.1, symObjAddr: 0x49FC, symBinAddr: 0x100349028, symSize: 0x24 }
  - { offset: 0xF291, size: 0x8, addend: 0x0, symName: __ZN10dmGraphics18IsAssetHandleValidEPNS_15GraphicsContextEy.cold.1, symObjAddr: 0x4D5C, symBinAddr: 0x100349070, symSize: 0x28 }
  - { offset: 0xF2F1, size: 0x8, addend: 0x0, symName: __GLOBAL__sub_I_graphics.cpp, symObjAddr: 0x51E8, symBinAddr: 0x100005224, symSize: 0x5C }
  - { offset: 0xF378, size: 0x8, addend: 0x0, symName: __GLOBAL__sub_I_graphics.cpp.cold.1, symObjAddr: 0x5244, symBinAddr: 0x100349098, symSize: 0x50 }
  - { offset: 0xF3BA, size: 0x8, addend: 0x0, symName: __GLOBAL__sub_I_graphics.cpp.cold.2, symObjAddr: 0x5294, symBinAddr: 0x1003490E8, symSize: 0x5C }
  - { offset: 0xF3FC, size: 0x8, addend: 0x0, symName: __GLOBAL__sub_I_graphics.cpp.cold.3, symObjAddr: 0x52F0, symBinAddr: 0x100349144, symSize: 0x5C }
  - { offset: 0xF43E, size: 0x8, addend: 0x0, symName: _OUTLINED_FUNCTION_0, symObjAddr: 0x4D84, symBinAddr: 0x1000051E8, symSize: 0x8 }
  - { offset: 0xF456, size: 0x8, addend: 0x0, symName: _OUTLINED_FUNCTION_1, symObjAddr: 0x4D8C, symBinAddr: 0x1000051F0, symSize: 0x8 }
  - { offset: 0xF46E, size: 0x8, addend: 0x0, symName: _OUTLINED_FUNCTION_2, symObjAddr: 0x4D94, symBinAddr: 0x1000051F8, symSize: 0x8 }
  - { offset: 0xF486, size: 0x8, addend: 0x0, symName: _OUTLINED_FUNCTION_3, symObjAddr: 0x4D9C, symBinAddr: 0x100005200, symSize: 0x8 }
  - { offset: 0xF49E, size: 0x8, addend: 0x0, symName: _OUTLINED_FUNCTION_4, symObjAddr: 0x4DA4, symBinAddr: 0x100005208, symSize: 0x8 }
  - { offset: 0xF4B6, size: 0x8, addend: 0x0, symName: _OUTLINED_FUNCTION_5, symObjAddr: 0x4DAC, symBinAddr: 0x100005210, symSize: 0x8 }
  - { offset: 0xF4CE, size: 0x8, addend: 0x0, symName: _OUTLINED_FUNCTION_6, symObjAddr: 0x4DB4, symBinAddr: 0x100005218, symSize: 0xC }
  - { offset: 0xF83B, size: 0x8, addend: 0x0, symName: __ZN10dmGraphics18GetAttributeValuesERKNS_15VertexAttributeEPPKhPj, symObjAddr: 0x0, symBinAddr: 0x100005280, symSize: 0x14 }
  - { offset: 0xF867, size: 0x8, addend: 0x0, symName: __ZN10dmGraphicsL25g_SourceDataDefaultMatrixE, symObjAddr: 0xFC8, symBinAddr: 0x1003A0728, symSize: 0x0 }
  - { offset: 0xF880, size: 0x8, addend: 0x0, symName: __ZN10dmGraphicsL25g_SourceDataDefaultVectorE, symObjAddr: 0x1008, symBinAddr: 0x1003A0768, symSize: 0x0 }
  - { offset: 0xF899, size: 0x8, addend: 0x0, symName: __ZN10dmGraphicsL31g_SourceDataDefaultVectorOneAsWE, symObjAddr: 0x1018, symBinAddr: 0x1003A0778, symSize: 0x0 }
  - { offset: 0xF8B2, size: 0x8, addend: 0x0, symName: __ZN10dmGraphicsL30g_SourceDataDefaultVectorEmptyE, symObjAddr: 0x1028, symBinAddr: 0x1003A0788, symSize: 0x0 }
  - { offset: 0xF8BF, size: 0x8, addend: 0x0, symName: __ZN10dmGraphics18GetAttributeValuesERKNS_15VertexAttributeEPPKhPj, symObjAddr: 0x0, symBinAddr: 0x100005280, symSize: 0x14 }
  - { offset: 0xF91E, size: 0x8, addend: 0x0, symName: __ZN10dmGraphics29WriteVertexAttributeFromFloatEPhfNS_15VertexAttribute8DataTypeE, symObjAddr: 0x54, symBinAddr: 0x100005294, symSize: 0x150 }
  - { offset: 0xFAF1, size: 0x8, addend: 0x0, symName: __ZN10dmGraphics30VertexAttributeDataTypeToFloatENS_15VertexAttribute8DataTypeEPKh, symObjAddr: 0x1A4, symBinAddr: 0x1000053E4, symSize: 0xA0 }
  - { offset: 0x101A5, size: 0x8, addend: 0x0, symName: __ZN10dmGraphics15WriteAttributesEPhjjRKNS_20WriteAttributeParamsE, symObjAddr: 0x244, symBinAddr: 0x100005484, symSize: 0xB44 }
  - { offset: 0x107B4, size: 0x8, addend: 0x0, symName: __ZN10dmGraphicsL11WriteVectorEPhRKNS_19UnpackAttributeDataES3_, symObjAddr: 0xD88, symBinAddr: 0x100005FC8, symSize: 0x1B8 }
  - { offset: 0x10AD5, size: 0x8, addend: 0x0, symName: __ZN10dmGraphics15WriteAttributesEPhjjRKNS_20WriteAttributeParamsE.cold.1, symObjAddr: 0xF40, symBinAddr: 0x1003491A0, symSize: 0x28 }
  - { offset: 0x10D0F, size: 0x8, addend: 0x0, symName: __ZL16rmtp_DrawCalls_p, symObjAddr: 0x8BE68, symBinAddr: 0x100527D08, symSize: 0x0 }
  - { offset: 0x10D34, size: 0x8, addend: 0x0, symName: __ZL20rmtp_DispatchCalls_p, symObjAddr: 0x8BE70, symBinAddr: 0x100527D10, symSize: 0x0 }
  - { offset: 0x10D54, size: 0x8, addend: 0x0, symName: __ZN10dmGraphicsL16g_opengl_adapterE, symObjAddr: 0x8BE78, symBinAddr: 0x100527D18, symSize: 0x0 }
  - { offset: 0x10EF7, size: 0x8, addend: 0x0, symName: __ZN10dmGraphics27PFN_glInvalidateFramebufferE, symObjAddr: 0x8BEF8, symBinAddr: 0x10053BD90, symSize: 0x0 }
  - { offset: 0x10F1E, size: 0x8, addend: 0x0, symName: __ZN10dmGraphics17PFN_glDrawBuffersE, symObjAddr: 0x8BF00, symBinAddr: 0x10053BD98, symSize: 0x0 }
  - { offset: 0x10F45, size: 0x8, addend: 0x0, symName: __ZN10dmGraphics9g_ContextE, symObjAddr: 0x8BF08, symBinAddr: 0x10053BDA0, symSize: 0x0 }
  - { offset: 0x114DF, size: 0x8, addend: 0x0, symName: __ZN10dmGraphics18TEXTURE_UNIT_NAMESE, symObjAddr: 0x10AA4, symBinAddr: 0x10049A7E0, symSize: 0x0 }
  - { offset: 0x114EC, size: 0x8, addend: 0x0, symName: __ZN10dmGraphicsL17GetExtProcAddressEPKcS1_S1_PNS_15GraphicsContextE, symObjAddr: 0x799C, symBinAddr: 0x10000DA5C, symSize: 0x180 }
  - { offset: 0x11518, size: 0x8, addend: 0x0, symName: __ZZN10dmGraphicsL17GetExtProcAddressEPKcS1_S1_PNS_15GraphicsContextEE19ext_name_prefix_str, symObjAddr: 0x10B28, symBinAddr: 0x100488688, symSize: 0x0 }
  - { offset: 0x1152F, size: 0x8, addend: 0x0, symName: __ZZN10dmGraphicsL17GetExtProcAddressEPKcS1_S1_PNS_15GraphicsContextEE21proc_name_postfix_str, symObjAddr: 0x10B40, symBinAddr: 0x1004886A0, symSize: 0x0 }
  - { offset: 0x11757, size: 0x8, addend: 0x0, symName: __ZN10dmGraphicsL18PostDeleteTexturesEPNS_13OpenGLContextEb, symObjAddr: 0x7DE0, symBinAddr: 0x10000DEA0, symSize: 0x110 }
  - { offset: 0x1177F, size: 0x8, addend: 0x0, symName: __ZZN10dmGraphicsL18PostDeleteTexturesEPNS_13OpenGLContextEbE10_scope4826, symObjAddr: 0x8BEA0, symBinAddr: 0x100527D40, symSize: 0x0 }
  - { offset: 0x119C5, size: 0x8, addend: 0x0, symName: __ZN10dmGraphicsL15DoDeleteTextureEPNS_13OpenGLContextEy, symObjAddr: 0x7EF0, symBinAddr: 0x10000DFB0, symSize: 0x214 }
  - { offset: 0x119E2, size: 0x8, addend: 0x0, symName: __ZN10dmGraphicsL10OpenGLFlipEPNS_15GraphicsContextE, symObjAddr: 0x1B1C, symBinAddr: 0x100007BDC, symSize: 0x70 }
  - { offset: 0x11A0A, size: 0x8, addend: 0x0, symName: __ZZN10dmGraphicsL10OpenGLFlipEPNS_15GraphicsContextEE10_scope2151, symObjAddr: 0x8BEA8, symBinAddr: 0x100527D48, symSize: 0x0 }
  - { offset: 0x11B33, size: 0x8, addend: 0x0, symName: __ZN10dmGraphicsL11OpenGLClearEPNS_15GraphicsContextEjhhhhfj, symObjAddr: 0x1B8C, symBinAddr: 0x100007C4C, symSize: 0x144 }
  - { offset: 0x11B3D, size: 0x8, addend: 0x0, symName: __ZN10dmGraphicsL11OpenGLClearEPNS_15GraphicsContextEjhhhhfj, symObjAddr: 0x1B8C, symBinAddr: 0x100007C4C, symSize: 0x144 }
  - { offset: 0x11B65, size: 0x8, addend: 0x0, symName: __ZZN10dmGraphicsL11OpenGLClearEPNS_15GraphicsContextEjhhhhfjE10_scope2115, symObjAddr: 0x8BEB0, symBinAddr: 0x100527D50, symSize: 0x0 }
  - { offset: 0x11E16, size: 0x8, addend: 0x0, symName: __ZN10dmGraphicsL21OpenGLNewVertexBufferEPNS_15GraphicsContextEjPKvNS_11BufferUsageE, symObjAddr: 0x1CD0, symBinAddr: 0x100007D90, symSize: 0xA8 }
  - { offset: 0x11E50, size: 0x8, addend: 0x0, symName: __ZN10dmGraphicsL25OpenGLSetVertexBufferDataEmjPKvNS_11BufferUsageE, symObjAddr: 0x1E50, symBinAddr: 0x100007F10, symSize: 0x158 }
  - { offset: 0x11E78, size: 0x8, addend: 0x0, symName: __ZZN10dmGraphicsL25OpenGLSetVertexBufferDataEmjPKvNS_11BufferUsageEE10_scope2305, symObjAddr: 0x8BEB8, symBinAddr: 0x100527D58, symSize: 0x0 }
  - { offset: 0x1216E, size: 0x8, addend: 0x0, symName: __ZN10dmGraphicsL28OpenGLSetVertexBufferSubDataEmjjPKv, symObjAddr: 0x1FA8, symBinAddr: 0x100008068, symSize: 0x140 }
  - { offset: 0x12178, size: 0x8, addend: 0x0, symName: __ZN10dmGraphicsL28OpenGLSetVertexBufferSubDataEmjjPKv, symObjAddr: 0x1FA8, symBinAddr: 0x100008068, symSize: 0x140 }
  - { offset: 0x121A0, size: 0x8, addend: 0x0, symName: __ZZN10dmGraphicsL28OpenGLSetVertexBufferSubDataEmjjPKvE10_scope2323, symObjAddr: 0x8BEC0, symBinAddr: 0x100527D60, symSize: 0x0 }
  - { offset: 0x12478, size: 0x8, addend: 0x0, symName: __ZN10dmGraphicsL25OpenGLGetVertexBufferSizeEm, symObjAddr: 0x20E8, symBinAddr: 0x1000081A8, symSize: 0xC }
  - { offset: 0x12482, size: 0x8, addend: 0x0, symName: __ZN10dmGraphicsL24OpenGLSetIndexBufferDataEmjPKvNS_11BufferUsageE, symObjAddr: 0x2278, symBinAddr: 0x100008338, symSize: 0x15C }
  - { offset: 0x124AA, size: 0x8, addend: 0x0, symName: __ZZN10dmGraphicsL24OpenGLSetIndexBufferDataEmjPKvNS_11BufferUsageEE10_scope2355, symObjAddr: 0x8BEC8, symBinAddr: 0x100527D68, symSize: 0x0 }
  - { offset: 0x127A0, size: 0x8, addend: 0x0, symName: __ZN10dmGraphicsL27OpenGLSetIndexBufferSubDataEmjjPKv, symObjAddr: 0x23D4, symBinAddr: 0x100008494, symSize: 0x158 }
  - { offset: 0x127AA, size: 0x8, addend: 0x0, symName: __ZN10dmGraphicsL27OpenGLSetIndexBufferSubDataEmjjPKv, symObjAddr: 0x23D4, symBinAddr: 0x100008494, symSize: 0x158 }
  - { offset: 0x127D2, size: 0x8, addend: 0x0, symName: __ZZN10dmGraphicsL27OpenGLSetIndexBufferSubDataEmjjPKvE10_scope2407, symObjAddr: 0x8BED0, symBinAddr: 0x100527D70, symSize: 0x0 }
  - { offset: 0x12AAC, size: 0x8, addend: 0x0, symName: __ZN10dmGraphicsL24OpenGLGetIndexBufferSizeEm, symObjAddr: 0x252C, symBinAddr: 0x1000085EC, symSize: 0xC }
  - { offset: 0x12AB6, size: 0x8, addend: 0x0, symName: __ZN10dmGraphicsL18OpenGLDrawElementsEPNS_15GraphicsContextENS_13PrimitiveTypeEjjNS_4TypeEmj, symObjAddr: 0x2B64, symBinAddr: 0x100008C24, symSize: 0x1F0 }
  - { offset: 0x12ADE, size: 0x8, addend: 0x0, symName: __ZZN10dmGraphicsL18OpenGLDrawElementsEPNS_15GraphicsContextENS_13PrimitiveTypeEjjNS_4TypeEmjE10_scope3050, symObjAddr: 0x8BED8, symBinAddr: 0x100527D78, symSize: 0x0 }
  - { offset: 0x12EC8, size: 0x8, addend: 0x0, symName: __ZN10dmGraphicsL10OpenGLDrawEPNS_15GraphicsContextENS_13PrimitiveTypeEjjj, symObjAddr: 0x2D54, symBinAddr: 0x100008E14, symSize: 0x114 }
  - { offset: 0x12EDE, size: 0x8, addend: 0x0, symName: __ZN10dmGraphicsL10OpenGLDrawEPNS_15GraphicsContextENS_13PrimitiveTypeEjjj, symObjAddr: 0x2D54, symBinAddr: 0x100008E14, symSize: 0x114 }
  - { offset: 0x12F06, size: 0x8, addend: 0x0, symName: __ZZN10dmGraphicsL10OpenGLDrawEPNS_15GraphicsContextENS_13PrimitiveTypeEjjjE10_scope3077, symObjAddr: 0x8BEE0, symBinAddr: 0x100527D80, symSize: 0x0 }
  - { offset: 0x13154, size: 0x8, addend: 0x0, symName: __ZN10dmGraphicsL21OpenGLDispatchComputeEPNS_15GraphicsContextEjjj, symObjAddr: 0x2E68, symBinAddr: 0x100008F28, symSize: 0x4 }
  - { offset: 0x1317F, size: 0x8, addend: 0x0, symName: __ZN10dmGraphicsL17OpenGLEnableStateEPNS_15GraphicsContextENS_5StateE, symObjAddr: 0x4690, symBinAddr: 0x10000A750, symSize: 0x54 }
  - { offset: 0x131A7, size: 0x8, addend: 0x0, symName: __ZZN10dmGraphicsL17OpenGLEnableStateEPNS_15GraphicsContextENS_5StateEE15__dmLogOnce5351, symObjAddr: 0x8BEE8, symBinAddr: 0x100527D88, symSize: 0x0 }
  - { offset: 0x13211, size: 0x8, addend: 0x0, symName: __ZN10dmGraphicsL18OpenGLDisableStateEPNS_15GraphicsContextENS_5StateE, symObjAddr: 0x46E4, symBinAddr: 0x10000A7A4, symSize: 0x54 }
  - { offset: 0x1321B, size: 0x8, addend: 0x0, symName: __ZN10dmGraphicsL18OpenGLDisableStateEPNS_15GraphicsContextENS_5StateE, symObjAddr: 0x46E4, symBinAddr: 0x10000A7A4, symSize: 0x54 }
  - { offset: 0x13243, size: 0x8, addend: 0x0, symName: __ZZN10dmGraphicsL18OpenGLDisableStateEPNS_15GraphicsContextENS_5StateEE15__dmLogOnce5365, symObjAddr: 0x8BEEC, symBinAddr: 0x100527D8C, symSize: 0x0 }
  - { offset: 0x132AD, size: 0x8, addend: 0x0, symName: __ZN10dmGraphicsL18OpenGLSetBlendFuncEPNS_15GraphicsContextENS_11BlendFactorES2_, symObjAddr: 0x4738, symBinAddr: 0x10000A7F8, symSize: 0x30 }
  - { offset: 0x132C3, size: 0x8, addend: 0x0, symName: __ZN10dmGraphicsL16OpenGLSetTextureEPNS_15GraphicsContextEyRKNS_13TextureParamsE, symObjAddr: 0x5BD8, symBinAddr: 0x10000BC98, symSize: 0x1110 }
  - { offset: 0x132EB, size: 0x8, addend: 0x0, symName: __ZZN10dmGraphicsL16OpenGLSetTextureEPNS_15GraphicsContextEyRKNS_13TextureParamsEE10_scope4985, symObjAddr: 0x8BEF0, symBinAddr: 0x100527D90, symSize: 0x0 }
  - { offset: 0x1438C, size: 0x8, addend: 0x0, symName: __ZN10dmGraphicsL21OpenGLSetTextureAsyncEPNS_15GraphicsContextEyRKNS_13TextureParamsEPFvyPvES5_, symObjAddr: 0x6CE8, symBinAddr: 0x10000CDA8, symSize: 0x160 }
  - { offset: 0x146FE, size: 0x8, addend: 0x0, symName: __ZN10dmGraphicsL17OpenGLIsSupportedEv, symObjAddr: 0x28, symBinAddr: 0x1000061A8, symSize: 0x8 }
  - { offset: 0x1471D, size: 0x8, addend: 0x0, symName: __ZN10dmGraphicsL27OpenGLRegisterFunctionTableEv, symObjAddr: 0x30, symBinAddr: 0x1000061B0, symSize: 0x420 }
  - { offset: 0x1474C, size: 0x8, addend: 0x0, symName: __ZN10dmGraphicsL16OpenGLGetContextEv, symObjAddr: 0x450, symBinAddr: 0x1000065D0, symSize: 0xC }
  - { offset: 0x14BE6, size: 0x8, addend: 0x0, symName: __ZN10dmGraphicsL16OpenGLNewContextERKNS_13ContextParamsE, symObjAddr: 0x64C, symBinAddr: 0x10000670C, symSize: 0x12C4 }
  - { offset: 0x16683, size: 0x8, addend: 0x0, symName: __ZN10dmGraphicsL19OpenGLDeleteContextEPNS_15GraphicsContextE, symObjAddr: 0x1910, symBinAddr: 0x1000079D0, symSize: 0x5C }
  - { offset: 0x166B9, size: 0x8, addend: 0x0, symName: __ZN10dmGraphicsL25AcquireAuxContextOnThreadEPNS_13OpenGLContextEb, symObjAddr: 0x7B1C, symBinAddr: 0x10000DBDC, symSize: 0xA4 }
  - { offset: 0x167AE, size: 0x8, addend: 0x0, symName: __ZN10dmGraphicsL14AddNewGLHandleEPNS_13OpenGLContextEj, symObjAddr: 0x7BC0, symBinAddr: 0x10000DC80, symSize: 0x120 }
  - { offset: 0x1683D, size: 0x8, addend: 0x0, symName: __ZN10dmGraphicsL14AddNewGLHandleEPNS_13OpenGLContextEj, symObjAddr: 0x7BC0, symBinAddr: 0x10000DC80, symSize: 0x120 }
  - { offset: 0x16A80, size: 0x8, addend: 0x0, symName: __ZN10dmGraphicsL26WorkerAcquireContextRunnerEP10JobContextyPvS2_, symObjAddr: 0x7CE0, symBinAddr: 0x10000DDA0, symSize: 0x54 }
  - { offset: 0x16AA1, size: 0x8, addend: 0x0, symName: __ZN10dmGraphicsL19OpenGLDeleteContextEPNS_15GraphicsContextE, symObjAddr: 0x1910, symBinAddr: 0x1000079D0, symSize: 0x5C }
  - { offset: 0x16B78, size: 0x8, addend: 0x0, symName: __ZN10dmGraphicsL14OpenGLFinalizeEv, symObjAddr: 0x196C, symBinAddr: 0x100007A2C, symSize: 0x4 }
  - { offset: 0x16B92, size: 0x8, addend: 0x0, symName: __ZN10dmGraphicsL17OpenGLCloseWindowEPNS_15GraphicsContextE, symObjAddr: 0x1970, symBinAddr: 0x100007A30, symSize: 0x58 }
  - { offset: 0x16C4F, size: 0x8, addend: 0x0, symName: __ZN10dmGraphicsL15OpenGLGetWindowEPNS_15GraphicsContextE, symObjAddr: 0x19C8, symBinAddr: 0x100007A88, symSize: 0x18 }
  - { offset: 0x16C59, size: 0x8, addend: 0x0, symName: __ZN10dmGraphicsL15OpenGLGetWindowEPNS_15GraphicsContextE, symObjAddr: 0x19C8, symBinAddr: 0x100007A88, symSize: 0x18 }
  - { offset: 0x16C9B, size: 0x8, addend: 0x0, symName: __ZN10dmGraphicsL19OpenGLGetDisplayDpiEPNS_15GraphicsContextE, symObjAddr: 0x19E0, symBinAddr: 0x100007AA0, symSize: 0x18 }
  - { offset: 0x16CA5, size: 0x8, addend: 0x0, symName: __ZN10dmGraphicsL19OpenGLGetDisplayDpiEPNS_15GraphicsContextE, symObjAddr: 0x19E0, symBinAddr: 0x100007AA0, symSize: 0x18 }
  - { offset: 0x16CE7, size: 0x8, addend: 0x0, symName: __ZN10dmGraphicsL14OpenGLGetWidthEPNS_15GraphicsContextE, symObjAddr: 0x19F8, symBinAddr: 0x100007AB8, symSize: 0x18 }
  - { offset: 0x16CF1, size: 0x8, addend: 0x0, symName: __ZN10dmGraphicsL14OpenGLGetWidthEPNS_15GraphicsContextE, symObjAddr: 0x19F8, symBinAddr: 0x100007AB8, symSize: 0x18 }
  - { offset: 0x16D33, size: 0x8, addend: 0x0, symName: __ZN10dmGraphicsL15OpenGLGetHeightEPNS_15GraphicsContextE, symObjAddr: 0x1A10, symBinAddr: 0x100007AD0, symSize: 0x18 }
  - { offset: 0x16D3D, size: 0x8, addend: 0x0, symName: __ZN10dmGraphicsL15OpenGLGetHeightEPNS_15GraphicsContextE, symObjAddr: 0x1A10, symBinAddr: 0x100007AD0, symSize: 0x18 }
  - { offset: 0x16D7F, size: 0x8, addend: 0x0, symName: __ZN10dmGraphicsL19OpenGLSetWindowSizeEPNS_15GraphicsContextEjj, symObjAddr: 0x1A28, symBinAddr: 0x100007AE8, symSize: 0x64 }
  - { offset: 0x16D89, size: 0x8, addend: 0x0, symName: __ZN10dmGraphicsL19OpenGLSetWindowSizeEPNS_15GraphicsContextEjj, symObjAddr: 0x1A28, symBinAddr: 0x100007AE8, symSize: 0x64 }
  - { offset: 0x16E07, size: 0x8, addend: 0x0, symName: __ZN10dmGraphicsL18OpenGLResizeWindowEPNS_15GraphicsContextEjj, symObjAddr: 0x1A8C, symBinAddr: 0x100007B4C, symSize: 0x60 }
  - { offset: 0x16E11, size: 0x8, addend: 0x0, symName: __ZN10dmGraphicsL18OpenGLResizeWindowEPNS_15GraphicsContextEjj, symObjAddr: 0x1A8C, symBinAddr: 0x100007B4C, symSize: 0x60 }
  - { offset: 0x16E8F, size: 0x8, addend: 0x0, symName: __ZN10dmGraphicsL30OpenGLGetDefaultTextureFiltersEPNS_15GraphicsContextERNS_13TextureFilterES3_, symObjAddr: 0x1AEC, symBinAddr: 0x100007BAC, symSize: 0x14 }
  - { offset: 0x16E9A, size: 0x8, addend: 0x0, symName: __ZN10dmGraphicsL30OpenGLGetDefaultTextureFiltersEPNS_15GraphicsContextERNS_13TextureFilterES3_, symObjAddr: 0x1AEC, symBinAddr: 0x100007BAC, symSize: 0x14 }
  - { offset: 0x16EED, size: 0x8, addend: 0x0, symName: __ZN10dmGraphicsL16OpenGLBeginFrameEPNS_15GraphicsContextE, symObjAddr: 0x1B00, symBinAddr: 0x100007BC0, symSize: 0x1C }
  - { offset: 0x16F37, size: 0x8, addend: 0x0, symName: __ZN10dmGraphicsL18ApplyPipelineStateEPNS_13OpenGLContextE, symObjAddr: 0x82B4, symBinAddr: 0x10000E374, symSize: 0x7A8 }
  - { offset: 0x176CD, size: 0x8, addend: 0x0, symName: __ZN10dmGraphicsL9DrawSetupEPNS_13OpenGLContextE, symObjAddr: 0x8A5C, symBinAddr: 0x10000EB1C, symSize: 0x698 }
  - { offset: 0x176D7, size: 0x8, addend: 0x0, symName: __ZN10dmGraphicsL21OpenGLNewVertexBufferEPNS_15GraphicsContextEjPKvNS_11BufferUsageE, symObjAddr: 0x1CD0, symBinAddr: 0x100007D90, symSize: 0xA8 }
  - { offset: 0x177DF, size: 0x8, addend: 0x0, symName: __ZN10dmGraphicsL24OpenGLDeleteVertexBufferEm, symObjAddr: 0x1D78, symBinAddr: 0x100007E38, symSize: 0xD8 }
  - { offset: 0x1780A, size: 0x8, addend: 0x0, symName: __ZN10dmGraphicsL24OpenGLDeleteVertexBufferEm, symObjAddr: 0x1D78, symBinAddr: 0x100007E38, symSize: 0xD8 }
  - { offset: 0x17987, size: 0x8, addend: 0x0, symName: __ZN10dmGraphicsL25OpenGLSetVertexBufferDataEmjPKvNS_11BufferUsageE, symObjAddr: 0x1E50, symBinAddr: 0x100007F10, symSize: 0x158 }
  - { offset: 0x17991, size: 0x8, addend: 0x0, symName: __ZN10dmGraphicsL15CleanupGLHandleEPNS_13OpenGLContextEj, symObjAddr: 0x819C, symBinAddr: 0x10000E25C, symSize: 0xF8 }
  - { offset: 0x17B8E, size: 0x8, addend: 0x0, symName: __ZN10dmGraphicsL25AsyncDeleteTextureProcessEP10JobContextyPvS2_, symObjAddr: 0x8294, symBinAddr: 0x10000E354, symSize: 0x20 }
  - { offset: 0x17BB7, size: 0x8, addend: 0x0, symName: __ZN10dmGraphicsL25OpenGLGetVertexBufferSizeEm, symObjAddr: 0x20E8, symBinAddr: 0x1000081A8, symSize: 0xC }
  - { offset: 0x17BF7, size: 0x8, addend: 0x0, symName: __ZN10dmGraphicsL28OpenGLGetMaxElementsVerticesEPNS_15GraphicsContextE, symObjAddr: 0x20F4, symBinAddr: 0x1000081B4, symSize: 0x8 }
  - { offset: 0x17C36, size: 0x8, addend: 0x0, symName: __ZN10dmGraphicsL20OpenGLNewIndexBufferEPNS_15GraphicsContextEjPKvNS_11BufferUsageE, symObjAddr: 0x20FC, symBinAddr: 0x1000081BC, symSize: 0xA4 }
  - { offset: 0x17D3E, size: 0x8, addend: 0x0, symName: __ZN10dmGraphicsL23OpenGLDeleteIndexBufferEm, symObjAddr: 0x21A0, symBinAddr: 0x100008260, symSize: 0xD8 }
  - { offset: 0x17D48, size: 0x8, addend: 0x0, symName: __ZN10dmGraphicsL23OpenGLDeleteIndexBufferEm, symObjAddr: 0x21A0, symBinAddr: 0x100008260, symSize: 0xD8 }
  - { offset: 0x17EC5, size: 0x8, addend: 0x0, symName: __ZN10dmGraphicsL24OpenGLSetIndexBufferDataEmjPKvNS_11BufferUsageE, symObjAddr: 0x2278, symBinAddr: 0x100008338, symSize: 0x15C }
  - { offset: 0x17ED0, size: 0x8, addend: 0x0, symName: __ZN10dmGraphicsL24OpenGLGetIndexBufferSizeEm, symObjAddr: 0x252C, symBinAddr: 0x1000085EC, symSize: 0xC }
  - { offset: 0x17F10, size: 0x8, addend: 0x0, symName: __ZN10dmGraphicsL34OpenGLIsIndexBufferFormatSupportedEPNS_15GraphicsContextENS_17IndexBufferFormatE, symObjAddr: 0x2538, symBinAddr: 0x1000085F8, symSize: 0x10 }
  - { offset: 0x17F5D, size: 0x8, addend: 0x0, symName: __ZN10dmGraphicsL26OpenGLNewVertexDeclarationEPNS_15GraphicsContextEPNS_23VertexStreamDeclarationE, symObjAddr: 0x2548, symBinAddr: 0x100008608, symSize: 0x130 }
  - { offset: 0x18038, size: 0x8, addend: 0x0, symName: __ZN10dmGraphicsL32OpenGLNewVertexDeclarationStrideEPNS_15GraphicsContextEPNS_23VertexStreamDeclarationEj, symObjAddr: 0x2678, symBinAddr: 0x100008738, symSize: 0x24 }
  - { offset: 0x18058, size: 0x8, addend: 0x0, symName: __ZN10dmGraphicsL32OpenGLNewVertexDeclarationStrideEPNS_15GraphicsContextEPNS_23VertexStreamDeclarationEj, symObjAddr: 0x2678, symBinAddr: 0x100008738, symSize: 0x24 }
  - { offset: 0x18250, size: 0x8, addend: 0x0, symName: __ZN10dmGraphicsL29OpenGLEnableVertexDeclarationEPNS_15GraphicsContextEPNS_17VertexDeclarationEjjm, symObjAddr: 0x269C, symBinAddr: 0x10000875C, symSize: 0x308 }
  - { offset: 0x18647, size: 0x8, addend: 0x0, symName: __ZN10dmGraphicsL30OpenGLDisableVertexDeclarationEPNS_15GraphicsContextEPNS_17VertexDeclarationE, symObjAddr: 0x29A4, symBinAddr: 0x100008A64, symSize: 0x114 }
  - { offset: 0x18651, size: 0x8, addend: 0x0, symName: __ZN10dmGraphicsL30OpenGLDisableVertexDeclarationEPNS_15GraphicsContextEPNS_17VertexDeclarationE, symObjAddr: 0x29A4, symBinAddr: 0x100008A64, symSize: 0x114 }
  - { offset: 0x18818, size: 0x8, addend: 0x0, symName: __ZN10dmGraphicsL24OpenGLEnableVertexBufferEPNS_15GraphicsContextEmj, symObjAddr: 0x2AB8, symBinAddr: 0x100008B78, symSize: 0xA8 }
  - { offset: 0x18822, size: 0x8, addend: 0x0, symName: __ZN10dmGraphicsL24OpenGLEnableVertexBufferEPNS_15GraphicsContextEmj, symObjAddr: 0x2AB8, symBinAddr: 0x100008B78, symSize: 0xA8 }
  - { offset: 0x189B1, size: 0x8, addend: 0x0, symName: __ZN10dmGraphicsL25OpenGLDisableVertexBufferEPNS_15GraphicsContextEm, symObjAddr: 0x2B60, symBinAddr: 0x100008C20, symSize: 0x4 }
  - { offset: 0x189BC, size: 0x8, addend: 0x0, symName: __ZN10dmGraphicsL25OpenGLDisableVertexBufferEPNS_15GraphicsContextEm, symObjAddr: 0x2B60, symBinAddr: 0x100008C20, symSize: 0x4 }
  - { offset: 0x18A0D, size: 0x8, addend: 0x0, symName: __ZN10dmGraphicsL9DrawSetupEPNS_13OpenGLContextE, symObjAddr: 0x8A5C, symBinAddr: 0x10000EB1C, symSize: 0x698 }
  - { offset: 0x1946D, size: 0x8, addend: 0x0, symName: __ZN10dmGraphicsL12CreateShaderEPNS_15GraphicsContextEjPNS_10ShaderDesc6ShaderEPcj, symObjAddr: 0x90F4, symBinAddr: 0x10000F1B4, symSize: 0x1E0 }
  - { offset: 0x19478, size: 0x8, addend: 0x0, symName: __ZN10dmGraphicsL21OpenGLDispatchComputeEPNS_15GraphicsContextEjjj, symObjAddr: 0x2E68, symBinAddr: 0x100008F28, symSize: 0x4 }
  - { offset: 0x19A5B, size: 0x8, addend: 0x0, symName: __ZN10dmGraphicsL16OpenGLNewProgramEPNS_15GraphicsContextEPNS_10ShaderDescEPcj, symObjAddr: 0x2E6C, symBinAddr: 0x100008F2C, symSize: 0xE84 }
  - { offset: 0x1B241, size: 0x8, addend: 0x0, symName: __ZN10dmGraphicsL19OpenGLDeleteProgramEPNS_15GraphicsContextEm, symObjAddr: 0x3CF0, symBinAddr: 0x100009DB0, symSize: 0x168 }
  - { offset: 0x1B28C, size: 0x8, addend: 0x0, symName: __ZN10dmGraphicsL12CreateShaderEPNS_15GraphicsContextEjPNS_10ShaderDesc6ShaderEPcj, symObjAddr: 0x90F4, symBinAddr: 0x10000F1B4, symSize: 0x1E0 }
  - { offset: 0x1B525, size: 0x8, addend: 0x0, symName: __ZN10dmGraphicsL12DeleteShaderEPNS_13OpenGLContextEPNS_12OpenGLShaderE, symObjAddr: 0x92D4, symBinAddr: 0x10000F394, symSize: 0xCC }
  - { offset: 0x1B555, size: 0x8, addend: 0x0, symName: __ZN10dmGraphicsL12DeleteShaderEPNS_13OpenGLContextEPNS_12OpenGLShaderE, symObjAddr: 0x92D4, symBinAddr: 0x10000F394, symSize: 0xCC }
  - { offset: 0x1B6C4, size: 0x8, addend: 0x0, symName: __ZN10dmGraphicsL15BuildAttributesEPNS_13OpenGLProgramE, symObjAddr: 0x93A0, symBinAddr: 0x10000F460, symSize: 0x238 }
  - { offset: 0x1B6F0, size: 0x8, addend: 0x0, symName: __ZN10dmGraphicsL15GetGraphicsTypeEj, symObjAddr: 0x98B8, symBinAddr: 0x10000F978, symSize: 0x1D8 }
  - { offset: 0x1B71F, size: 0x8, addend: 0x0, symName: __ZN10dmGraphicsL15BuildAttributesEPNS_13OpenGLProgramE, symObjAddr: 0x93A0, symBinAddr: 0x10000F460, symSize: 0x238 }
  - { offset: 0x1BA7B, size: 0x8, addend: 0x0, symName: __ZN10dmGraphics7ProgramD2Ev, symObjAddr: 0x95D8, symBinAddr: 0x10000F698, symSize: 0xB0 }
  - { offset: 0x1BA85, size: 0x8, addend: 0x0, symName: __ZN10dmGraphicsL19OpenGLDeleteProgramEPNS_15GraphicsContextEm, symObjAddr: 0x3CF0, symBinAddr: 0x100009DB0, symSize: 0x168 }
  - { offset: 0x1BD3C, size: 0x8, addend: 0x0, symName: __ZN10dmGraphicsL24OpenGLGetProgramLanguageEm, symObjAddr: 0x3E58, symBinAddr: 0x100009F18, symSize: 0x8 }
  - { offset: 0x1BD47, size: 0x8, addend: 0x0, symName: __ZN10dmGraphicsL24OpenGLGetProgramLanguageEm, symObjAddr: 0x3E58, symBinAddr: 0x100009F18, symSize: 0x8 }
  - { offset: 0x1BD77, size: 0x8, addend: 0x0, symName: __ZN10dmGraphicsL31OpenGLIsShaderLanguageSupportedEPNS_15GraphicsContextENS_10ShaderDesc8LanguageENS2_10ShaderTypeE, symObjAddr: 0x3E60, symBinAddr: 0x100009F20, symSize: 0x30 }
  - { offset: 0x1BDD2, size: 0x8, addend: 0x0, symName: __ZN10dmGraphicsL19OpenGLEnableProgramEPNS_15GraphicsContextEm, symObjAddr: 0x3E90, symBinAddr: 0x100009F50, symSize: 0xA8 }
  - { offset: 0x1BF4D, size: 0x8, addend: 0x0, symName: __ZN10dmGraphicsL20OpenGLDisableProgramEPNS_15GraphicsContextE, symObjAddr: 0x3F38, symBinAddr: 0x100009FF8, symSize: 0x38 }
  - { offset: 0x1BF57, size: 0x8, addend: 0x0, symName: __ZN10dmGraphicsL20OpenGLDisableProgramEPNS_15GraphicsContextE, symObjAddr: 0x3F38, symBinAddr: 0x100009FF8, symSize: 0x38 }
  - { offset: 0x1BFCB, size: 0x8, addend: 0x0, symName: __ZN10dmGraphicsL19OpenGLReloadProgramEPNS_15GraphicsContextEmPNS_10ShaderDescE, symObjAddr: 0x3F70, symBinAddr: 0x10000A030, symSize: 0x32C }
  - { offset: 0x1BFD5, size: 0x8, addend: 0x0, symName: __ZN10dmGraphicsL19OpenGLReloadProgramEPNS_15GraphicsContextEmPNS_10ShaderDescE, symObjAddr: 0x3F70, symBinAddr: 0x10000A030, symSize: 0x32C }
  - { offset: 0x1C67D, size: 0x8, addend: 0x0, symName: __ZN10dmGraphicsL23OpenGLGetAttributeCountEm, symObjAddr: 0x429C, symBinAddr: 0x10000A35C, symSize: 0x30 }
  - { offset: 0x1C687, size: 0x8, addend: 0x0, symName: __ZN10dmGraphicsL12ReloadShaderEPNS_13OpenGLContextEPNS_12OpenGLShaderEPNS_10ShaderDesc6ShaderEj, symObjAddr: 0x9A90, symBinAddr: 0x10000FB50, symSize: 0x234 }
  - { offset: 0x1CAA8, size: 0x8, addend: 0x0, symName: __ZN10dmGraphicsL14TryLinkProgramEPji, symObjAddr: 0x9CC4, symBinAddr: 0x10000FD84, symSize: 0x13C }
  - { offset: 0x1CAB2, size: 0x8, addend: 0x0, symName: __ZN10dmGraphicsL14TryLinkProgramEPji, symObjAddr: 0x9CC4, symBinAddr: 0x10000FD84, symSize: 0x13C }
  - { offset: 0x1CCDA, size: 0x8, addend: 0x0, symName: __ZN10dmGraphicsL28CreateRenderTargetAttachmentEPNS_13OpenGLContextERNS_28OpenGLRenderTargetAttachmentENS_14AttachmentTypeERNS_13TextureParamsENS_21TextureCreationParamsEPy, symObjAddr: 0x9E00, symBinAddr: 0x10000FEC0, symSize: 0x9C }
  - { offset: 0x1CCE4, size: 0x8, addend: 0x0, symName: __ZN10dmGraphicsL23OpenGLGetAttributeCountEm, symObjAddr: 0x429C, symBinAddr: 0x10000A35C, symSize: 0x30 }
  - { offset: 0x1CD46, size: 0x8, addend: 0x0, symName: __ZN10dmGraphicsL18OpenGLGetAttributeEmjPyPNS_4TypeEPjS3_Pi, symObjAddr: 0x42CC, symBinAddr: 0x10000A38C, symSize: 0x170 }
  - { offset: 0x1CD6E, size: 0x8, addend: 0x0, symName: __ZN10dmGraphicsL18OpenGLGetAttributeEmjPyPNS_4TypeEPjS3_Pi, symObjAddr: 0x42CC, symBinAddr: 0x10000A38C, symSize: 0x170 }
  - { offset: 0x1CE8A, size: 0x8, addend: 0x0, symName: __ZN10dmGraphicsL19OpenGLSetConstantV4EPNS_15GraphicsContextEPKN10Vectormath3Aos7Vector4Eix, symObjAddr: 0x443C, symBinAddr: 0x10000A4FC, symSize: 0xC8 }
  - { offset: 0x1CE94, size: 0x8, addend: 0x0, symName: __ZN10dmGraphicsL19OpenGLSetConstantV4EPNS_15GraphicsContextEPKN10Vectormath3Aos7Vector4Eix, symObjAddr: 0x443C, symBinAddr: 0x10000A4FC, symSize: 0xC8 }
  - { offset: 0x1D00F, size: 0x8, addend: 0x0, symName: __ZN10dmGraphicsL19OpenGLSetConstantM4EPNS_15GraphicsContextEPKN10Vectormath3Aos7Vector4Eix, symObjAddr: 0x4504, symBinAddr: 0x10000A5C4, symSize: 0xC8 }
  - { offset: 0x1D019, size: 0x8, addend: 0x0, symName: __ZN10dmGraphicsL19OpenGLSetConstantM4EPNS_15GraphicsContextEPKN10Vectormath3Aos7Vector4Eix, symObjAddr: 0x4504, symBinAddr: 0x10000A5C4, symSize: 0xC8 }
  - { offset: 0x1D19A, size: 0x8, addend: 0x0, symName: __ZN10dmGraphicsL16OpenGLSetSamplerEPNS_15GraphicsContextExi, symObjAddr: 0x45CC, symBinAddr: 0x10000A68C, symSize: 0x40 }
  - { offset: 0x1D1A4, size: 0x8, addend: 0x0, symName: __ZN10dmGraphicsL16OpenGLSetSamplerEPNS_15GraphicsContextExi, symObjAddr: 0x45CC, symBinAddr: 0x10000A68C, symSize: 0x40 }
  - { offset: 0x1D23F, size: 0x8, addend: 0x0, symName: __ZN10dmGraphicsL17OpenGLSetViewportEPNS_15GraphicsContextEiiii, symObjAddr: 0x460C, symBinAddr: 0x10000A6CC, symSize: 0x84 }
  - { offset: 0x1D249, size: 0x8, addend: 0x0, symName: __ZN10dmGraphicsL17OpenGLSetViewportEPNS_15GraphicsContextEiiii, symObjAddr: 0x460C, symBinAddr: 0x10000A6CC, symSize: 0x84 }
  - { offset: 0x1D304, size: 0x8, addend: 0x0, symName: __ZN10dmGraphicsL17OpenGLEnableStateEPNS_15GraphicsContextENS_5StateE, symObjAddr: 0x4690, symBinAddr: 0x10000A750, symSize: 0x54 }
  - { offset: 0x1D32A, size: 0x8, addend: 0x0, symName: __ZN10dmGraphicsL18OpenGLSetBlendFuncEPNS_15GraphicsContextENS_11BlendFactorES2_, symObjAddr: 0x4738, symBinAddr: 0x10000A7F8, symSize: 0x30 }
  - { offset: 0x1D388, size: 0x8, addend: 0x0, symName: __ZN10dmGraphicsL26OpenGLSetBlendFuncSeparateEPNS_15GraphicsContextENS_11BlendFactorES2_S2_S2_, symObjAddr: 0x4768, symBinAddr: 0x10000A828, symSize: 0x28 }
  - { offset: 0x1D392, size: 0x8, addend: 0x0, symName: __ZN10dmGraphicsL26OpenGLSetBlendFuncSeparateEPNS_15GraphicsContextENS_11BlendFactorES2_S2_S2_, symObjAddr: 0x4768, symBinAddr: 0x10000A828, symSize: 0x28 }
  - { offset: 0x1D410, size: 0x8, addend: 0x0, symName: __ZN10dmGraphicsL30OpenGLSetBlendEquationSeparateEPNS_15GraphicsContextENS_13BlendEquationES2_, symObjAddr: 0x4790, symBinAddr: 0x10000A850, symSize: 0x2C }
  - { offset: 0x1D41A, size: 0x8, addend: 0x0, symName: __ZN10dmGraphicsL30OpenGLSetBlendEquationSeparateEPNS_15GraphicsContextENS_13BlendEquationES2_, symObjAddr: 0x4790, symBinAddr: 0x10000A850, symSize: 0x2C }
  - { offset: 0x1D478, size: 0x8, addend: 0x0, symName: __ZN10dmGraphicsL18OpenGLSetColorMaskEPNS_15GraphicsContextEbbbb, symObjAddr: 0x47BC, symBinAddr: 0x10000A87C, symSize: 0x58 }
  - { offset: 0x1D482, size: 0x8, addend: 0x0, symName: __ZN10dmGraphicsL18OpenGLSetColorMaskEPNS_15GraphicsContextEbbbb, symObjAddr: 0x47BC, symBinAddr: 0x10000A87C, symSize: 0x58 }
  - { offset: 0x1D51A, size: 0x8, addend: 0x0, symName: __ZN10dmGraphicsL18OpenGLSetDepthMaskEPNS_15GraphicsContextEb, symObjAddr: 0x4814, symBinAddr: 0x10000A8D4, symSize: 0x30 }
  - { offset: 0x1D524, size: 0x8, addend: 0x0, symName: __ZN10dmGraphicsL18OpenGLSetDepthMaskEPNS_15GraphicsContextEb, symObjAddr: 0x4814, symBinAddr: 0x10000A8D4, symSize: 0x30 }
  - { offset: 0x1D573, size: 0x8, addend: 0x0, symName: __ZN10dmGraphicsL18OpenGLSetDepthFuncEPNS_15GraphicsContextENS_11CompareFuncE, symObjAddr: 0x4844, symBinAddr: 0x10000A904, symSize: 0x28 }
  - { offset: 0x1D57D, size: 0x8, addend: 0x0, symName: __ZN10dmGraphicsL18OpenGLSetDepthFuncEPNS_15GraphicsContextENS_11CompareFuncE, symObjAddr: 0x4844, symBinAddr: 0x10000A904, symSize: 0x28 }
  - { offset: 0x1D5C9, size: 0x8, addend: 0x0, symName: __ZN10dmGraphicsL16OpenGLSetScissorEPNS_15GraphicsContextEiiii, symObjAddr: 0x486C, symBinAddr: 0x10000A92C, symSize: 0x24 }
  - { offset: 0x1D5D3, size: 0x8, addend: 0x0, symName: __ZN10dmGraphicsL16OpenGLSetScissorEPNS_15GraphicsContextEiiii, symObjAddr: 0x486C, symBinAddr: 0x10000A92C, symSize: 0x24 }
  - { offset: 0x1D64F, size: 0x8, addend: 0x0, symName: __ZN10dmGraphicsL20OpenGLSetStencilMaskEPNS_15GraphicsContextEj, symObjAddr: 0x4890, symBinAddr: 0x10000A950, symSize: 0x24 }
  - { offset: 0x1D659, size: 0x8, addend: 0x0, symName: __ZN10dmGraphicsL20OpenGLSetStencilMaskEPNS_15GraphicsContextEj, symObjAddr: 0x4890, symBinAddr: 0x10000A950, symSize: 0x24 }
  - { offset: 0x1D6A5, size: 0x8, addend: 0x0, symName: __ZN10dmGraphicsL20OpenGLSetStencilFuncEPNS_15GraphicsContextENS_11CompareFuncEjj, symObjAddr: 0x48B4, symBinAddr: 0x10000A974, symSize: 0x48 }
  - { offset: 0x1D6AF, size: 0x8, addend: 0x0, symName: __ZN10dmGraphicsL20OpenGLSetStencilFuncEPNS_15GraphicsContextENS_11CompareFuncEjj, symObjAddr: 0x48B4, symBinAddr: 0x10000A974, symSize: 0x48 }
  - { offset: 0x1D71D, size: 0x8, addend: 0x0, symName: __ZN10dmGraphicsL28OpenGLSetStencilFuncSeparateEPNS_15GraphicsContextENS_8FaceTypeENS_11CompareFuncEjj, symObjAddr: 0x48FC, symBinAddr: 0x10000A9BC, symSize: 0x5C }
  - { offset: 0x1D727, size: 0x8, addend: 0x0, symName: __ZN10dmGraphicsL28OpenGLSetStencilFuncSeparateEPNS_15GraphicsContextENS_8FaceTypeENS_11CompareFuncEjj, symObjAddr: 0x48FC, symBinAddr: 0x10000A9BC, symSize: 0x5C }
  - { offset: 0x1D7A5, size: 0x8, addend: 0x0, symName: __ZN10dmGraphicsL18OpenGLSetStencilOpEPNS_15GraphicsContextENS_9StencilOpES2_S2_, symObjAddr: 0x4958, symBinAddr: 0x10000AA18, symSize: 0x50 }
  - { offset: 0x1D7AF, size: 0x8, addend: 0x0, symName: __ZN10dmGraphicsL18OpenGLSetStencilOpEPNS_15GraphicsContextENS_9StencilOpES2_S2_, symObjAddr: 0x4958, symBinAddr: 0x10000AA18, symSize: 0x50 }
  - { offset: 0x1D81D, size: 0x8, addend: 0x0, symName: __ZN10dmGraphicsL26OpenGLSetStencilOpSeparateEPNS_15GraphicsContextENS_8FaceTypeENS_9StencilOpES3_S3_, symObjAddr: 0x49A8, symBinAddr: 0x10000AA68, symSize: 0x54 }
  - { offset: 0x1D827, size: 0x8, addend: 0x0, symName: __ZN10dmGraphicsL26OpenGLSetStencilOpSeparateEPNS_15GraphicsContextENS_8FaceTypeENS_9StencilOpES3_S3_, symObjAddr: 0x49A8, symBinAddr: 0x10000AA68, symSize: 0x54 }
  - { offset: 0x1D8A5, size: 0x8, addend: 0x0, symName: __ZN10dmGraphicsL17OpenGLSetCullFaceEPNS_15GraphicsContextENS_8FaceTypeE, symObjAddr: 0x49FC, symBinAddr: 0x10000AABC, symSize: 0x20 }
  - { offset: 0x1D8AF, size: 0x8, addend: 0x0, symName: __ZN10dmGraphicsL17OpenGLSetCullFaceEPNS_15GraphicsContextENS_8FaceTypeE, symObjAddr: 0x49FC, symBinAddr: 0x10000AABC, symSize: 0x20 }
  - { offset: 0x1D8FB, size: 0x8, addend: 0x0, symName: __ZN10dmGraphicsL20OpenGLSetFaceWindingEPNS_15GraphicsContextENS_11FaceWindingE, symObjAddr: 0x4A1C, symBinAddr: 0x10000AADC, symSize: 0x20 }
  - { offset: 0x1D905, size: 0x8, addend: 0x0, symName: __ZN10dmGraphicsL20OpenGLSetFaceWindingEPNS_15GraphicsContextENS_11FaceWindingE, symObjAddr: 0x4A1C, symBinAddr: 0x10000AADC, symSize: 0x20 }
  - { offset: 0x1D951, size: 0x8, addend: 0x0, symName: __ZN10dmGraphicsL22OpenGLSetPolygonOffsetEPNS_15GraphicsContextEff, symObjAddr: 0x4A3C, symBinAddr: 0x10000AAFC, symSize: 0x38 }
  - { offset: 0x1D95B, size: 0x8, addend: 0x0, symName: __ZN10dmGraphicsL22OpenGLSetPolygonOffsetEPNS_15GraphicsContextEff, symObjAddr: 0x4A3C, symBinAddr: 0x10000AAFC, symSize: 0x38 }
  - { offset: 0x1D9F6, size: 0x8, addend: 0x0, symName: __ZN10dmGraphicsL21OpenGLNewRenderTargetEPNS_15GraphicsContextEjNS_26RenderTargetCreationParamsE, symObjAddr: 0x4A74, symBinAddr: 0x10000AB34, symSize: 0x708 }
  - { offset: 0x1DB2D, size: 0x8, addend: 0x0, symName: __ZN10dmGraphicsL21OpenGLNewRenderTargetEPNS_15GraphicsContextEjNS_26RenderTargetCreationParamsE, symObjAddr: 0x4A74, symBinAddr: 0x10000AB34, symSize: 0x708 }
  - { offset: 0x1E4B4, size: 0x8, addend: 0x0, symName: __ZN10dmGraphicsL24OpenGLDeleteRenderTargetEPNS_15GraphicsContextEy, symObjAddr: 0x517C, symBinAddr: 0x10000B23C, symSize: 0x1A0 }
  - { offset: 0x1E4D4, size: 0x8, addend: 0x0, symName: __ZN10dmGraphicsL28CreateRenderTargetAttachmentEPNS_13OpenGLContextERNS_28OpenGLRenderTargetAttachmentENS_14AttachmentTypeERNS_13TextureParamsENS_21TextureCreationParamsEPy, symObjAddr: 0x9E00, symBinAddr: 0x10000FEC0, symSize: 0x9C }
  - { offset: 0x1E5C0, size: 0x8, addend: 0x0, symName: __ZN10dmGraphicsL28ApplyRenderTargetAttachmentsEPNS_15GraphicsContextEPNS_18OpenGLRenderTargetEb, symObjAddr: 0x9E9C, symBinAddr: 0x10000FF5C, symSize: 0x51C }
  - { offset: 0x1E5CB, size: 0x8, addend: 0x0, symName: __ZN10dmGraphicsL28ApplyRenderTargetAttachmentsEPNS_15GraphicsContextEPNS_18OpenGLRenderTargetEb, symObjAddr: 0x9E9C, symBinAddr: 0x10000FF5C, symSize: 0x51C }
  - { offset: 0x1EF0F, size: 0x8, addend: 0x0, symName: __ZN10dmGraphicsL19LogFrameBufferErrorEj, symObjAddr: 0xA3B8, symBinAddr: 0x100010478, symSize: 0x14C }
  - { offset: 0x1EF19, size: 0x8, addend: 0x0, symName: __ZN10dmGraphicsL24OpenGLDeleteRenderTargetEPNS_15GraphicsContextEy, symObjAddr: 0x517C, symBinAddr: 0x10000B23C, symSize: 0x1A0 }
  - { offset: 0x1F262, size: 0x8, addend: 0x0, symName: __ZN10dmGraphicsL21OpenGLSetRenderTargetEPNS_15GraphicsContextEyj, symObjAddr: 0x531C, symBinAddr: 0x10000B3DC, symSize: 0x298 }
  - { offset: 0x1F26C, size: 0x8, addend: 0x0, symName: __ZN10dmGraphicsL28DeleteRenderTargetAttachmentERNS_28OpenGLRenderTargetAttachmentERy, symObjAddr: 0xA6EC, symBinAddr: 0x1000107AC, symSize: 0xF0 }
  - { offset: 0x1F3D5, size: 0x8, addend: 0x0, symName: __ZN10dmGraphicsL20AsyncProcessCallbackEP10JobContextyPvS2_, symObjAddr: 0xA7DC, symBinAddr: 0x10001089C, symSize: 0xE8 }
  - { offset: 0x1F3DF, size: 0x8, addend: 0x0, symName: __ZN10dmGraphicsL21OpenGLSetRenderTargetEPNS_15GraphicsContextEyj, symObjAddr: 0x531C, symBinAddr: 0x10000B3DC, symSize: 0x298 }
  - { offset: 0x1F6F3, size: 0x8, addend: 0x0, symName: __ZN10dmGraphicsL25OpenGLSetRenderTargetSizeEPNS_15GraphicsContextEyjj, symObjAddr: 0x55B4, symBinAddr: 0x10000B674, symSize: 0x7C }
  - { offset: 0x1F6FD, size: 0x8, addend: 0x0, symName: __ZN10dmGraphicsL25OpenGLSetRenderTargetSizeEPNS_15GraphicsContextEyjj, symObjAddr: 0x55B4, symBinAddr: 0x10000B674, symSize: 0x7C }
  - { offset: 0x1F823, size: 0x8, addend: 0x0, symName: __ZN10dmGraphicsL30OpenGLIsTextureFormatSupportedEPNS_15GraphicsContextENS_13TextureFormatE, symObjAddr: 0x5630, symBinAddr: 0x10000B6F0, symSize: 0x2C }
  - { offset: 0x1F82E, size: 0x8, addend: 0x0, symName: __ZN10dmGraphicsL30OpenGLIsTextureFormatSupportedEPNS_15GraphicsContextENS_13TextureFormatE, symObjAddr: 0x5630, symBinAddr: 0x10000B6F0, symSize: 0x2C }
  - { offset: 0x1FAA3, size: 0x8, addend: 0x0, symName: __ZN10dmGraphicsL16OpenGLNewTextureEPNS_15GraphicsContextERKNS_21TextureCreationParamsE, symObjAddr: 0x565C, symBinAddr: 0x10000B71C, symSize: 0x514 }
  - { offset: 0x2023E, size: 0x8, addend: 0x0, symName: __ZN10dmGraphicsL19OpenGLDeleteTextureEPNS_15GraphicsContextEy, symObjAddr: 0x5B70, symBinAddr: 0x10000BC30, symSize: 0x68 }
  - { offset: 0x20248, size: 0x8, addend: 0x0, symName: __ZN10dmGraphicsL19OpenGLDeleteTextureEPNS_15GraphicsContextEy, symObjAddr: 0x5B70, symBinAddr: 0x10000BC30, symSize: 0x68 }
  - { offset: 0x202D7, size: 0x8, addend: 0x0, symName: __ZN10dmGraphicsL16OpenGLSetTextureEPNS_15GraphicsContextEyRKNS_13TextureParamsE, symObjAddr: 0x5BD8, symBinAddr: 0x10000BC98, symSize: 0x1110 }
  - { offset: 0x202FC, size: 0x8, addend: 0x0, symName: __ZN10dmGraphicsL24OpenGLDeleteTextureAsyncEPNS_13OpenGLContextEy, symObjAddr: 0x8104, symBinAddr: 0x10000E1C4, symSize: 0x98 }
  - { offset: 0x20518, size: 0x8, addend: 0x0, symName: __ZN10dmGraphicsL21OpenGLSetTextureAsyncEPNS_15GraphicsContextEyRKNS_13TextureParamsEPFvyPvES5_, symObjAddr: 0x6CE8, symBinAddr: 0x10000CDA8, symSize: 0x160 }
  - { offset: 0x20736, size: 0x8, addend: 0x0, symName: __ZN10dmGraphicsL22OpenGLSetTextureParamsEPNS_15GraphicsContextEyNS_13TextureFilterES2_NS_11TextureWrapES3_f, symObjAddr: 0x6E48, symBinAddr: 0x10000CF08, symSize: 0xE8 }
  - { offset: 0x20786, size: 0x8, addend: 0x0, symName: __ZN10dmGraphicsL22OpenGLSetTextureParamsEPNS_15GraphicsContextEyNS_13TextureFilterES2_NS_11TextureWrapES3_f, symObjAddr: 0x6E48, symBinAddr: 0x10000CF08, symSize: 0xE8 }
  - { offset: 0x209B7, size: 0x8, addend: 0x0, symName: __ZN10dmGraphicsL28OpenGLGetTextureResourceSizeEPNS_15GraphicsContextEy, symObjAddr: 0x6F30, symBinAddr: 0x10000CFF0, symSize: 0xD8 }
  - { offset: 0x209C1, size: 0x8, addend: 0x0, symName: __ZN10dmGraphicsL28OpenGLGetTextureResourceSizeEPNS_15GraphicsContextEy, symObjAddr: 0x6F30, symBinAddr: 0x10000CFF0, symSize: 0xD8 }
  - { offset: 0x20B95, size: 0x8, addend: 0x0, symName: __ZN10dmGraphicsL19OpenGLEnableTextureEPNS_15GraphicsContextEjhy, symObjAddr: 0x7008, symBinAddr: 0x10000D0C8, symSize: 0x38 }
  - { offset: 0x20B9F, size: 0x8, addend: 0x0, symName: __ZN10dmGraphicsL19OpenGLEnableTextureEPNS_15GraphicsContextEjhy, symObjAddr: 0x7008, symBinAddr: 0x10000D0C8, symSize: 0x38 }
  - { offset: 0x20C26, size: 0x8, addend: 0x0, symName: __ZN10dmGraphicsL20OpenGLDisableTextureEPNS_15GraphicsContextEjy, symObjAddr: 0x7040, symBinAddr: 0x10000D100, symSize: 0x24 }
  - { offset: 0x20C30, size: 0x8, addend: 0x0, symName: __ZN10dmGraphicsL20OpenGLDisableTextureEPNS_15GraphicsContextEjy, symObjAddr: 0x7040, symBinAddr: 0x10000D100, symSize: 0x24 }
  - { offset: 0x20C98, size: 0x8, addend: 0x0, symName: __ZN10dmGraphicsL23OpenGLGetMaxTextureSizeEPNS_15GraphicsContextE, symObjAddr: 0x7064, symBinAddr: 0x10000D124, symSize: 0x8 }
  - { offset: 0x20CA3, size: 0x8, addend: 0x0, symName: __ZN10dmGraphicsL23OpenGLGetMaxTextureSizeEPNS_15GraphicsContextE, symObjAddr: 0x7064, symBinAddr: 0x10000D124, symSize: 0x8 }
  - { offset: 0x20CE2, size: 0x8, addend: 0x0, symName: __ZN10dmGraphicsL16OpenGLReadPixelsEPNS_15GraphicsContextEiijjPvj, symObjAddr: 0x706C, symBinAddr: 0x10000D12C, symSize: 0x190 }
  - { offset: 0x20E41, size: 0x8, addend: 0x0, symName: __ZN10dmGraphicsL24OpenGLRunApplicationLoopEPvPFvS0_EPFiS0_E, symObjAddr: 0x71FC, symBinAddr: 0x10000D2BC, symSize: 0x48 }
  - { offset: 0x20E4B, size: 0x8, addend: 0x0, symName: __ZN10dmGraphicsL24OpenGLRunApplicationLoopEPvPFvS0_EPFiS0_E, symObjAddr: 0x71FC, symBinAddr: 0x10000D2BC, symSize: 0x48 }
  - { offset: 0x20F03, size: 0x8, addend: 0x0, symName: __ZN10dmGraphicsL22OpenGLGetTextureHandleEyPPv, symObjAddr: 0x7244, symBinAddr: 0x10000D304, symSize: 0x130 }
  - { offset: 0x21144, size: 0x8, addend: 0x0, symName: __ZN10dmGraphicsL27OpenGLGetMaxElementsIndicesEPNS_15GraphicsContextE, symObjAddr: 0x7374, symBinAddr: 0x10000D434, symSize: 0x8 }
  - { offset: 0x2114F, size: 0x8, addend: 0x0, symName: __ZN10dmGraphicsL27OpenGLGetMaxElementsIndicesEPNS_15GraphicsContextE, symObjAddr: 0x7374, symBinAddr: 0x10000D434, symSize: 0x8 }
  - { offset: 0x2117A, size: 0x8, addend: 0x0, symName: __ZN10dmGraphicsL26OpenGLIsExtensionSupportedEPNS_15GraphicsContextEPKc, symObjAddr: 0x737C, symBinAddr: 0x10000D43C, symSize: 0x88 }
  - { offset: 0x21243, size: 0x8, addend: 0x0, symName: __ZN10dmGraphicsL31OpenGLGetNumSupportedExtensionsEPNS_15GraphicsContextE, symObjAddr: 0x7404, symBinAddr: 0x10000D4C4, symSize: 0x10 }
  - { offset: 0x2126C, size: 0x8, addend: 0x0, symName: __ZN10dmGraphicsL31OpenGLGetNumSupportedExtensionsEPNS_15GraphicsContextE, symObjAddr: 0x7404, symBinAddr: 0x10000D4C4, symSize: 0x10 }
  - { offset: 0x21289, size: 0x8, addend: 0x0, symName: __ZN10dmGraphicsL27OpenGLGetSupportedExtensionEPNS_15GraphicsContextEj, symObjAddr: 0x7414, symBinAddr: 0x10000D4D4, symSize: 0x28 }
  - { offset: 0x212DA, size: 0x8, addend: 0x0, symName: __ZN10dmGraphicsL27OpenGLGetSupportedExtensionEPNS_15GraphicsContextEj, symObjAddr: 0x7414, symBinAddr: 0x10000D4D4, symSize: 0x28 }
  - { offset: 0x212FB, size: 0x8, addend: 0x0, symName: __ZN10dmGraphicsL25OpenGLGetTexturePageCountEy, symObjAddr: 0x743C, symBinAddr: 0x10000D4FC, symSize: 0xA8 }
  - { offset: 0x21305, size: 0x8, addend: 0x0, symName: __ZN10dmGraphicsL25OpenGLGetTexturePageCountEy, symObjAddr: 0x743C, symBinAddr: 0x10000D4FC, symSize: 0xA8 }
  - { offset: 0x21460, size: 0x8, addend: 0x0, symName: __ZN10dmGraphicsL22OpenGLGetPipelineStateEPNS_15GraphicsContextE, symObjAddr: 0x74E4, symBinAddr: 0x10000D5A4, symSize: 0x10 }
  - { offset: 0x2146B, size: 0x8, addend: 0x0, symName: __ZN10dmGraphicsL22OpenGLGetPipelineStateEPNS_15GraphicsContextE, symObjAddr: 0x74E4, symBinAddr: 0x10000D5A4, symSize: 0x10 }
  - { offset: 0x214AB, size: 0x8, addend: 0x0, symName: __ZN10dmGraphicsL31OpenGLIsContextFeatureSupportedEPNS_15GraphicsContextENS_14ContextFeatureE, symObjAddr: 0x74F4, symBinAddr: 0x10000D5B4, symSize: 0x38 }
  - { offset: 0x21555, size: 0x8, addend: 0x0, symName: __ZN10dmGraphicsL24OpenGLIsAssetHandleValidEPNS_15GraphicsContextEy, symObjAddr: 0x752C, symBinAddr: 0x10000D5EC, symSize: 0xDC }
  - { offset: 0x21776, size: 0x8, addend: 0x0, symName: __ZN10dmGraphicsL31OpenGLInvalidateGraphicsHandlesEPNS_15GraphicsContextE, symObjAddr: 0x7608, symBinAddr: 0x10000D6C8, symSize: 0x58 }
  - { offset: 0x21780, size: 0x8, addend: 0x0, symName: __ZN10dmGraphicsL31OpenGLInvalidateGraphicsHandlesEPNS_15GraphicsContextE, symObjAddr: 0x7608, symBinAddr: 0x10000D6C8, symSize: 0x58 }
  - { offset: 0x2187E, size: 0x8, addend: 0x0, symName: __ZN10dmGraphicsL17OpenGLGetViewportEPNS_15GraphicsContextEPiS2_PjS3_, symObjAddr: 0x7660, symBinAddr: 0x10000D720, symSize: 0x24 }
  - { offset: 0x218ED, size: 0x8, addend: 0x0, symName: __ZN10dmGraphicsL22OpenGLNewUniformBufferEPNS_15GraphicsContextERKNS_19UniformBufferLayoutE, symObjAddr: 0x7684, symBinAddr: 0x10000D744, symSize: 0xCC }
  - { offset: 0x219E6, size: 0x8, addend: 0x0, symName: __ZN10dmGraphicsL25OpenGLDeleteUniformBufferEPNS_15GraphicsContextEPNS_13UniformBufferE, symObjAddr: 0x7750, symBinAddr: 0x10000D810, symSize: 0x40 }
  - { offset: 0x21A56, size: 0x8, addend: 0x0, symName: __ZN10dmGraphicsL25OpenGLDeleteUniformBufferEPNS_15GraphicsContextEPNS_13UniformBufferE, symObjAddr: 0x7750, symBinAddr: 0x10000D810, symSize: 0x40 }
  - { offset: 0x21ACF, size: 0x8, addend: 0x0, symName: __ZN10dmGraphicsL22OpenGLSetUniformBufferEPNS_15GraphicsContextEPNS_13UniformBufferEjjPKv, symObjAddr: 0x7790, symBinAddr: 0x10000D850, symSize: 0x118 }
  - { offset: 0x21D14, size: 0x8, addend: 0x0, symName: __ZN10dmGraphicsL25OpenGLEnableUniformBufferEPNS_15GraphicsContextEPNS_13UniformBufferEjj, symObjAddr: 0x78A8, symBinAddr: 0x10000D968, symSize: 0x58 }
  - { offset: 0x21D1F, size: 0x8, addend: 0x0, symName: __ZN10dmGraphicsL25OpenGLEnableUniformBufferEPNS_15GraphicsContextEPNS_13UniformBufferEjj, symObjAddr: 0x78A8, symBinAddr: 0x10000D968, symSize: 0x58 }
  - { offset: 0x21DB2, size: 0x8, addend: 0x0, symName: __ZN10dmGraphicsL26OpenGLDisableUniformBufferEPNS_15GraphicsContextEPNS_13UniformBufferE, symObjAddr: 0x7900, symBinAddr: 0x10000D9C0, symSize: 0x3C }
  - { offset: 0x21DFE, size: 0x8, addend: 0x0, symName: __ZN10dmGraphicsL10LogGLErrorEiPKci, symObjAddr: 0x793C, symBinAddr: 0x10000D9FC, symSize: 0x60 }
  - { offset: 0x21E4C, size: 0x8, addend: 0x0, symName: __ZN10dmGraphicsL10LogGLErrorEiPKci, symObjAddr: 0x793C, symBinAddr: 0x10000D9FC, symSize: 0x60 }
  - { offset: 0x21E8F, size: 0x8, addend: 0x0, symName: __ZN10dmGraphicsL26WorkerAcquireContextRunnerEP10JobContextyPvS2_, symObjAddr: 0x7CE0, symBinAddr: 0x10000DDA0, symSize: 0x54 }
  - { offset: 0x21F85, size: 0x8, addend: 0x0, symName: __ZN10dmGraphics13OpenGLContextD2Ev, symObjAddr: 0x7D34, symBinAddr: 0x10000DDF4, symSize: 0xAC }
  - { offset: 0x21F8F, size: 0x8, addend: 0x0, symName: __ZN10dmGraphicsL15DoDeleteTextureEPNS_13OpenGLContextEy, symObjAddr: 0x7EF0, symBinAddr: 0x10000DFB0, symSize: 0x214 }
  - { offset: 0x22328, size: 0x8, addend: 0x0, symName: __ZN10dmGraphicsL24OpenGLDeleteTextureAsyncEPNS_13OpenGLContextEy, symObjAddr: 0x8104, symBinAddr: 0x10000E1C4, symSize: 0x98 }
  - { offset: 0x22332, size: 0x8, addend: 0x0, symName: __ZN10dmGraphicsL25AsyncDeleteTextureProcessEP10JobContextyPvS2_, symObjAddr: 0x8294, symBinAddr: 0x10000E354, symSize: 0x20 }
  - { offset: 0x22534, size: 0x8, addend: 0x0, symName: __ZN10dmGraphicsL27BuildCanonicalPathsCallbackERKNS_38CreateUniformLeafMembersCallbackParamsEPv, symObjAddr: 0x9688, symBinAddr: 0x10000F748, symSize: 0x230 }
  - { offset: 0x227BB, size: 0x8, addend: 0x0, symName: __ZN10dmGraphicsL15GetGraphicsTypeEj, symObjAddr: 0x98B8, symBinAddr: 0x10000F978, symSize: 0x1D8 }
  - { offset: 0x2284E, size: 0x8, addend: 0x0, symName: __ZN10dmGraphicsL28AttachRenderTargetAttachmentEPNS_13OpenGLContextERNS_28OpenGLRenderTargetAttachmentEyPjj, symObjAddr: 0xA504, symBinAddr: 0x1000105C4, symSize: 0x1E8 }
  - { offset: 0x22C7E, size: 0x8, addend: 0x0, symName: __ZN10dmGraphicsL28DeleteRenderTargetAttachmentERNS_28OpenGLRenderTargetAttachmentERy, symObjAddr: 0xA6EC, symBinAddr: 0x1000107AC, symSize: 0xF0 }
  - { offset: 0x22C88, size: 0x8, addend: 0x0, symName: __ZN10dmGraphicsL19LogFrameBufferErrorEj, symObjAddr: 0xA3B8, symBinAddr: 0x100010478, symSize: 0x14C }
  - { offset: 0x22CC6, size: 0x8, addend: 0x0, symName: __ZN10dmGraphicsL20AsyncProcessCallbackEP10JobContextyPvS2_, symObjAddr: 0xA7DC, symBinAddr: 0x10001089C, symSize: 0xE8 }
  - { offset: 0x22F5E, size: 0x8, addend: 0x0, symName: __ZN10dmGraphicsL21AsyncCompleteCallbackEP10JobContexty15JobSystemStatusPvS3_i, symObjAddr: 0xA8C4, symBinAddr: 0x100010984, symSize: 0x58 }
  - { offset: 0x22F83, size: 0x8, addend: 0x0, symName: __ZN10dmGraphicsL21AsyncCompleteCallbackEP10JobContexty15JobSystemStatusPvS3_i, symObjAddr: 0xA8C4, symBinAddr: 0x100010984, symSize: 0x58 }
  - { offset: 0x24D10, size: 0x8, addend: 0x0, symName: _GraphicsAdapterOpenGL, symObjAddr: 0x0, symBinAddr: 0x100006180, symSize: 0x28 }
  - { offset: 0x24E49, size: 0x8, addend: 0x0, symName: __ZN10dmGraphics13OpenGLContextC2ERKNS_13ContextParamsE, symObjAddr: 0x45C, symBinAddr: 0x1000065DC, symSize: 0x130 }
  - { offset: 0x250F0, size: 0x8, addend: 0x0, symName: __ZN10dmGraphics13OpenGLContextC2ERKNS_13ContextParamsE.cold.3, symObjAddr: 0xA964, symBinAddr: 0x1003491C8, symSize: 0x28 }
  - { offset: 0x25773, size: 0x8, addend: 0x0, symName: __ZN10dmGraphicsL16OpenGLNewContextERKNS_13ContextParamsE.cold.11, symObjAddr: 0xABDC, symBinAddr: 0x100349344, symSize: 0x3C }
  - { offset: 0x25848, size: 0x8, addend: 0x0, symName: __ZN10dmGraphicsL16OpenGLNewContextERKNS_13ContextParamsE.cold.4, symObjAddr: 0xAA7C, symBinAddr: 0x10034922C, symSize: 0x28 }
  - { offset: 0x258F7, size: 0x8, addend: 0x0, symName: __ZN10dmGraphicsL16OpenGLNewContextERKNS_13ContextParamsE.cold.1, symObjAddr: 0xA9F8, symBinAddr: 0x1003491F0, symSize: 0x3C }
  - { offset: 0x25925, size: 0x8, addend: 0x0, symName: __ZN10dmGraphicsL16OpenGLNewContextERKNS_13ContextParamsE.cold.7, symObjAddr: 0xAAEC, symBinAddr: 0x100349254, symSize: 0x3C }
  - { offset: 0x25969, size: 0x8, addend: 0x0, symName: __ZN10dmGraphicsL16OpenGLNewContextERKNS_13ContextParamsE.cold.8, symObjAddr: 0xAB28, symBinAddr: 0x100349290, symSize: 0x3C }
  - { offset: 0x259AD, size: 0x8, addend: 0x0, symName: __ZN10dmGraphicsL16OpenGLNewContextERKNS_13ContextParamsE.cold.9, symObjAddr: 0xAB64, symBinAddr: 0x1003492CC, symSize: 0x3C }
  - { offset: 0x259F1, size: 0x8, addend: 0x0, symName: __ZN10dmGraphicsL16OpenGLNewContextERKNS_13ContextParamsE.cold.12, symObjAddr: 0xAC18, symBinAddr: 0x100349380, symSize: 0x3C }
  - { offset: 0x25A35, size: 0x8, addend: 0x0, symName: __ZN10dmGraphicsL16OpenGLNewContextERKNS_13ContextParamsE.cold.13, symObjAddr: 0xAC54, symBinAddr: 0x1003493BC, symSize: 0x3C }
  - { offset: 0x25A79, size: 0x8, addend: 0x0, symName: __ZN10dmGraphicsL16OpenGLNewContextERKNS_13ContextParamsE.cold.10, symObjAddr: 0xABA0, symBinAddr: 0x100349308, symSize: 0x3C }
  - { offset: 0x25B00, size: 0x8, addend: 0x0, symName: __ZN10dmGraphics13OpenGLContextD2Ev, symObjAddr: 0x7D34, symBinAddr: 0x10000DDF4, symSize: 0xAC }
  - { offset: 0x25E02, size: 0x8, addend: 0x0, symName: __ZN10dmGraphicsL17OpenGLCloseWindowEPNS_15GraphicsContextE.cold.1, symObjAddr: 0xAC90, symBinAddr: 0x1003493F8, symSize: 0x28 }
  - { offset: 0x25E1A, size: 0x8, addend: 0x0, symName: __ZN10dmGraphicsL15OpenGLGetWindowEPNS_15GraphicsContextE.cold.1, symObjAddr: 0xACB8, symBinAddr: 0x100349420, symSize: 0x28 }
  - { offset: 0x25E32, size: 0x8, addend: 0x0, symName: __ZN10dmGraphicsL19OpenGLGetDisplayDpiEPNS_15GraphicsContextE.cold.1, symObjAddr: 0xACE0, symBinAddr: 0x100349448, symSize: 0x28 }
  - { offset: 0x25E4A, size: 0x8, addend: 0x0, symName: __ZN10dmGraphicsL14OpenGLGetWidthEPNS_15GraphicsContextE.cold.1, symObjAddr: 0xAD08, symBinAddr: 0x100349470, symSize: 0x28 }
  - { offset: 0x25E62, size: 0x8, addend: 0x0, symName: __ZN10dmGraphicsL15OpenGLGetHeightEPNS_15GraphicsContextE.cold.1, symObjAddr: 0xAD30, symBinAddr: 0x100349498, symSize: 0x28 }
  - { offset: 0x25E7A, size: 0x8, addend: 0x0, symName: __ZN10dmGraphicsL19OpenGLSetWindowSizeEPNS_15GraphicsContextEjj.cold.1, symObjAddr: 0xAD58, symBinAddr: 0x1003494C0, symSize: 0x28 }
  - { offset: 0x25E92, size: 0x8, addend: 0x0, symName: __ZN10dmGraphicsL18OpenGLResizeWindowEPNS_15GraphicsContextEjj.cold.1, symObjAddr: 0xAD80, symBinAddr: 0x1003494E8, symSize: 0x28 }
  - { offset: 0x26017, size: 0x8, addend: 0x0, symName: __ZN10dmGraphicsL10OpenGLFlipEPNS_15GraphicsContextE.cold.1, symObjAddr: 0xADA8, symBinAddr: 0x100349510, symSize: 0x3C }
  - { offset: 0x2609E, size: 0x8, addend: 0x0, symName: __ZN10dmGraphicsL11OpenGLClearEPNS_15GraphicsContextEjhhhhfj.cold.5, symObjAddr: 0xAED4, symBinAddr: 0x10034963C, symSize: 0x28 }
  - { offset: 0x260B6, size: 0x8, addend: 0x0, symName: __ZN10dmGraphicsL11OpenGLClearEPNS_15GraphicsContextEjhhhhfj.cold.1, symObjAddr: 0xADE4, symBinAddr: 0x10034954C, symSize: 0x3C }
  - { offset: 0x260CE, size: 0x8, addend: 0x0, symName: __ZN10dmGraphicsL11OpenGLClearEPNS_15GraphicsContextEjhhhhfj.cold.2, symObjAddr: 0xAE20, symBinAddr: 0x100349588, symSize: 0x3C }
  - { offset: 0x260E6, size: 0x8, addend: 0x0, symName: __ZN10dmGraphicsL11OpenGLClearEPNS_15GraphicsContextEjhhhhfj.cold.3, symObjAddr: 0xAE5C, symBinAddr: 0x1003495C4, symSize: 0x3C }
  - { offset: 0x260FE, size: 0x8, addend: 0x0, symName: __ZN10dmGraphicsL11OpenGLClearEPNS_15GraphicsContextEjhhhhfj.cold.4, symObjAddr: 0xAE98, symBinAddr: 0x100349600, symSize: 0x3C }
  - { offset: 0x26129, size: 0x8, addend: 0x0, symName: __ZN10dmGraphicsL21OpenGLNewVertexBufferEPNS_15GraphicsContextEjPKvNS_11BufferUsageE.cold.1, symObjAddr: 0xAEFC, symBinAddr: 0x100349664, symSize: 0x3C }
  - { offset: 0x26174, size: 0x8, addend: 0x0, symName: __ZN10dmGraphicsL24OpenGLDeleteVertexBufferEm.cold.2, symObjAddr: 0xAF5C, symBinAddr: 0x1003496A0, symSize: 0x3C }
  - { offset: 0x261F1, size: 0x8, addend: 0x0, symName: __ZN10dmGraphicsL25OpenGLSetVertexBufferDataEmjPKvNS_11BufferUsageE.cold.3, symObjAddr: 0xAFF8, symBinAddr: 0x100349718, symSize: 0x28 }
  - { offset: 0x2621F, size: 0x8, addend: 0x0, symName: __ZN10dmGraphicsL25OpenGLSetVertexBufferDataEmjPKvNS_11BufferUsageE.cold.2, symObjAddr: 0xAFBC, symBinAddr: 0x1003496DC, symSize: 0x3C }
  - { offset: 0x26237, size: 0x8, addend: 0x0, symName: __ZN10dmGraphicsL25OpenGLSetVertexBufferDataEmjPKvNS_11BufferUsageE.cold.4, symObjAddr: 0xB020, symBinAddr: 0x100349740, symSize: 0x3C }
  - { offset: 0x2624F, size: 0x8, addend: 0x0, symName: __ZN10dmGraphicsL25OpenGLSetVertexBufferDataEmjPKvNS_11BufferUsageE.cold.5, symObjAddr: 0xB05C, symBinAddr: 0x10034977C, symSize: 0x3C }
  - { offset: 0x262AF, size: 0x8, addend: 0x0, symName: __ZN10dmGraphicsL28OpenGLSetVertexBufferSubDataEmjjPKv.cold.2, symObjAddr: 0xB0BC, symBinAddr: 0x1003497B8, symSize: 0x3C }
  - { offset: 0x262C7, size: 0x8, addend: 0x0, symName: __ZN10dmGraphicsL28OpenGLSetVertexBufferSubDataEmjjPKv.cold.3, symObjAddr: 0xB0F8, symBinAddr: 0x1003497F4, symSize: 0x3C }
  - { offset: 0x262DF, size: 0x8, addend: 0x0, symName: __ZN10dmGraphicsL28OpenGLSetVertexBufferSubDataEmjjPKv.cold.4, symObjAddr: 0xB134, symBinAddr: 0x100349830, symSize: 0x3C }
  - { offset: 0x262F7, size: 0x8, addend: 0x0, symName: __ZN10dmGraphicsL20OpenGLNewIndexBufferEPNS_15GraphicsContextEjPKvNS_11BufferUsageE.cold.1, symObjAddr: 0xB170, symBinAddr: 0x10034986C, symSize: 0x3C }
  - { offset: 0x2632F, size: 0x8, addend: 0x0, symName: __ZN10dmGraphicsL23OpenGLDeleteIndexBufferEm.cold.2, symObjAddr: 0xB1D0, symBinAddr: 0x1003498A8, symSize: 0x3C }
  - { offset: 0x2637C, size: 0x8, addend: 0x0, symName: __ZN10dmGraphicsL24OpenGLSetIndexBufferDataEmjPKvNS_11BufferUsageE.cold.2, symObjAddr: 0xB230, symBinAddr: 0x1003498E4, symSize: 0x3C }
  - { offset: 0x26394, size: 0x8, addend: 0x0, symName: __ZN10dmGraphicsL24OpenGLSetIndexBufferDataEmjPKvNS_11BufferUsageE.cold.4, symObjAddr: 0xB294, symBinAddr: 0x100349920, symSize: 0x3C }
  - { offset: 0x263AC, size: 0x8, addend: 0x0, symName: __ZN10dmGraphicsL24OpenGLSetIndexBufferDataEmjPKvNS_11BufferUsageE.cold.5, symObjAddr: 0xB2D0, symBinAddr: 0x10034995C, symSize: 0x3C }
  - { offset: 0x263E4, size: 0x8, addend: 0x0, symName: __ZN10dmGraphicsL27OpenGLSetIndexBufferSubDataEmjjPKv.cold.2, symObjAddr: 0xB330, symBinAddr: 0x100349998, symSize: 0x3C }
  - { offset: 0x263FC, size: 0x8, addend: 0x0, symName: __ZN10dmGraphicsL27OpenGLSetIndexBufferSubDataEmjjPKv.cold.3, symObjAddr: 0xB36C, symBinAddr: 0x1003499D4, symSize: 0x3C }
  - { offset: 0x26414, size: 0x8, addend: 0x0, symName: __ZN10dmGraphicsL27OpenGLSetIndexBufferSubDataEmjjPKv.cold.4, symObjAddr: 0xB3A8, symBinAddr: 0x100349A10, symSize: 0x3C }
  - { offset: 0x264E7, size: 0x8, addend: 0x0, symName: __ZN10dmGraphicsL29OpenGLEnableVertexDeclarationEPNS_15GraphicsContextEPNS_17VertexDeclarationEjjm.cold.5, symObjAddr: 0xB4C8, symBinAddr: 0x100349AE8, symSize: 0x3C }
  - { offset: 0x26515, size: 0x8, addend: 0x0, symName: __ZN10dmGraphicsL29OpenGLEnableVertexDeclarationEPNS_15GraphicsContextEPNS_17VertexDeclarationEjjm.cold.2, symObjAddr: 0xB42C, symBinAddr: 0x100349A4C, symSize: 0x24 }
  - { offset: 0x26543, size: 0x8, addend: 0x0, symName: __ZN10dmGraphicsL29OpenGLEnableVertexDeclarationEPNS_15GraphicsContextEPNS_17VertexDeclarationEjjm.cold.7, symObjAddr: 0xB52C, symBinAddr: 0x100349B4C, symSize: 0x28 }
  - { offset: 0x2655B, size: 0x8, addend: 0x0, symName: __ZN10dmGraphicsL29OpenGLEnableVertexDeclarationEPNS_15GraphicsContextEPNS_17VertexDeclarationEjjm.cold.6, symObjAddr: 0xB504, symBinAddr: 0x100349B24, symSize: 0x28 }
  - { offset: 0x26593, size: 0x8, addend: 0x0, symName: __ZN10dmGraphicsL29OpenGLEnableVertexDeclarationEPNS_15GraphicsContextEPNS_17VertexDeclarationEjjm.cold.3, symObjAddr: 0xB450, symBinAddr: 0x100349A70, symSize: 0x3C }
  - { offset: 0x265C1, size: 0x8, addend: 0x0, symName: __ZN10dmGraphicsL29OpenGLEnableVertexDeclarationEPNS_15GraphicsContextEPNS_17VertexDeclarationEjjm.cold.4, symObjAddr: 0xB48C, symBinAddr: 0x100349AAC, symSize: 0x3C }
  - { offset: 0x265FD, size: 0x8, addend: 0x0, symName: __ZN10dmGraphicsL30OpenGLDisableVertexDeclarationEPNS_15GraphicsContextEPNS_17VertexDeclarationE.cold.1, symObjAddr: 0xB554, symBinAddr: 0x100349B74, symSize: 0x3C }
  - { offset: 0x26615, size: 0x8, addend: 0x0, symName: __ZN10dmGraphicsL30OpenGLDisableVertexDeclarationEPNS_15GraphicsContextEPNS_17VertexDeclarationE.cold.5, symObjAddr: 0xB630, symBinAddr: 0x100349C50, symSize: 0x28 }
  - { offset: 0x2662D, size: 0x8, addend: 0x0, symName: __ZN10dmGraphicsL30OpenGLDisableVertexDeclarationEPNS_15GraphicsContextEPNS_17VertexDeclarationE.cold.4, symObjAddr: 0xB608, symBinAddr: 0x100349C28, symSize: 0x28 }
  - { offset: 0x26645, size: 0x8, addend: 0x0, symName: __ZN10dmGraphicsL30OpenGLDisableVertexDeclarationEPNS_15GraphicsContextEPNS_17VertexDeclarationE.cold.2, symObjAddr: 0xB590, symBinAddr: 0x100349BB0, symSize: 0x3C }
  - { offset: 0x2665D, size: 0x8, addend: 0x0, symName: __ZN10dmGraphicsL30OpenGLDisableVertexDeclarationEPNS_15GraphicsContextEPNS_17VertexDeclarationE.cold.3, symObjAddr: 0xB5CC, symBinAddr: 0x100349BEC, symSize: 0x3C }
  - { offset: 0x26695, size: 0x8, addend: 0x0, symName: __ZN10dmGraphicsL24OpenGLEnableVertexBufferEPNS_15GraphicsContextEmj.cold.2, symObjAddr: 0xB67C, symBinAddr: 0x100349C78, symSize: 0x3C }
  - { offset: 0x266E0, size: 0x8, addend: 0x0, symName: __ZN10dmGraphicsL18OpenGLDrawElementsEPNS_15GraphicsContextENS_13PrimitiveTypeEjjNS_4TypeEmj.cold.8, symObjAddr: 0xB7E4, symBinAddr: 0x100349D50, symSize: 0x3C }
  - { offset: 0x2671A, size: 0x8, addend: 0x0, symName: __ZN10dmGraphicsL18OpenGLDrawElementsEPNS_15GraphicsContextENS_13PrimitiveTypeEjjNS_4TypeEmj.cold.9, symObjAddr: 0xB820, symBinAddr: 0x100349D8C, symSize: 0x28 }
  - { offset: 0x2677C, size: 0x8, addend: 0x0, symName: __ZN10dmGraphicsL18OpenGLDrawElementsEPNS_15GraphicsContextENS_13PrimitiveTypeEjjNS_4TypeEmj.cold.2, symObjAddr: 0xB6DC, symBinAddr: 0x100349CB4, symSize: 0x3C }
  - { offset: 0x267A9, size: 0x8, addend: 0x0, symName: __ZN10dmGraphicsL18OpenGLDrawElementsEPNS_15GraphicsContextENS_13PrimitiveTypeEjjNS_4TypeEmj.cold.3, symObjAddr: 0xB718, symBinAddr: 0x100349CF0, symSize: 0x24 }
  - { offset: 0x267D7, size: 0x8, addend: 0x0, symName: __ZN10dmGraphicsL18OpenGLDrawElementsEPNS_15GraphicsContextENS_13PrimitiveTypeEjjNS_4TypeEmj.cold.5, symObjAddr: 0xB760, symBinAddr: 0x100349D14, symSize: 0x3C }
  - { offset: 0x26807, size: 0x8, addend: 0x0, symName: __ZN10dmGraphicsL10OpenGLDrawEPNS_15GraphicsContextENS_13PrimitiveTypeEjjj.cold.4, symObjAddr: 0xB8CC, symBinAddr: 0x100349DF0, symSize: 0x3C }
  - { offset: 0x2683C, size: 0x8, addend: 0x0, symName: __ZN10dmGraphicsL10OpenGLDrawEPNS_15GraphicsContextENS_13PrimitiveTypeEjjj.cold.5, symObjAddr: 0xB908, symBinAddr: 0x100349E2C, symSize: 0x28 }
  - { offset: 0x2687E, size: 0x8, addend: 0x0, symName: __ZN10dmGraphicsL10OpenGLDrawEPNS_15GraphicsContextENS_13PrimitiveTypeEjjj.cold.2, symObjAddr: 0xB86C, symBinAddr: 0x100349DB4, symSize: 0x3C }
  - { offset: 0x26F90, size: 0x8, addend: 0x0, symName: __ZN10dmGraphicsL16OpenGLNewProgramEPNS_15GraphicsContextEPNS_10ShaderDescEPcj.cold.22, symObjAddr: 0xBD5C, symBinAddr: 0x10034A160, symSize: 0x3C }
  - { offset: 0x2700C, size: 0x8, addend: 0x0, symName: __ZN10dmGraphics7ProgramD2Ev, symObjAddr: 0x95D8, symBinAddr: 0x10000F698, symSize: 0xB0 }
  - { offset: 0x27471, size: 0x8, addend: 0x0, symName: __ZN10dmGraphicsL16OpenGLNewProgramEPNS_15GraphicsContextEPNS_10ShaderDescEPcj.cold.23, symObjAddr: 0xBD98, symBinAddr: 0x10034A19C, symSize: 0x24 }
  - { offset: 0x27604, size: 0x8, addend: 0x0, symName: __ZN10dmGraphicsL16OpenGLNewProgramEPNS_15GraphicsContextEPNS_10ShaderDescEPcj.cold.31, symObjAddr: 0xBEE8, symBinAddr: 0x10034A238, symSize: 0x28 }
  - { offset: 0x2765E, size: 0x8, addend: 0x0, symName: __ZN10dmGraphicsL16OpenGLNewProgramEPNS_15GraphicsContextEPNS_10ShaderDescEPcj.cold.29, symObjAddr: 0xBE88, symBinAddr: 0x10034A1FC, symSize: 0x3C }
  - { offset: 0x276A2, size: 0x8, addend: 0x0, symName: __ZN10dmGraphicsL16OpenGLNewProgramEPNS_15GraphicsContextEPNS_10ShaderDescEPcj.cold.9, symObjAddr: 0xBA98, symBinAddr: 0x100349F08, symSize: 0x3C }
  - { offset: 0x276FC, size: 0x8, addend: 0x0, symName: __ZN10dmGraphicsL16OpenGLNewProgramEPNS_15GraphicsContextEPNS_10ShaderDescEPcj.cold.10, symObjAddr: 0xBAD4, symBinAddr: 0x100349F44, symSize: 0x3C }
  - { offset: 0x27756, size: 0x8, addend: 0x0, symName: __ZN10dmGraphicsL16OpenGLNewProgramEPNS_15GraphicsContextEPNS_10ShaderDescEPcj.cold.11, symObjAddr: 0xBB10, symBinAddr: 0x100349F80, symSize: 0x3C }
  - { offset: 0x277B0, size: 0x8, addend: 0x0, symName: __ZN10dmGraphicsL16OpenGLNewProgramEPNS_15GraphicsContextEPNS_10ShaderDescEPcj.cold.19, symObjAddr: 0xBCA8, symBinAddr: 0x10034A0AC, symSize: 0x3C }
  - { offset: 0x2780A, size: 0x8, addend: 0x0, symName: __ZN10dmGraphicsL16OpenGLNewProgramEPNS_15GraphicsContextEPNS_10ShaderDescEPcj.cold.20, symObjAddr: 0xBCE4, symBinAddr: 0x10034A0E8, symSize: 0x3C }
  - { offset: 0x27864, size: 0x8, addend: 0x0, symName: __ZN10dmGraphicsL16OpenGLNewProgramEPNS_15GraphicsContextEPNS_10ShaderDescEPcj.cold.15, symObjAddr: 0xBBB8, symBinAddr: 0x100349FBC, symSize: 0x3C }
  - { offset: 0x278BE, size: 0x8, addend: 0x0, symName: __ZN10dmGraphicsL16OpenGLNewProgramEPNS_15GraphicsContextEPNS_10ShaderDescEPcj.cold.21, symObjAddr: 0xBD20, symBinAddr: 0x10034A124, symSize: 0x3C }
  - { offset: 0x27918, size: 0x8, addend: 0x0, symName: __ZN10dmGraphicsL16OpenGLNewProgramEPNS_15GraphicsContextEPNS_10ShaderDescEPcj.cold.16, symObjAddr: 0xBBF4, symBinAddr: 0x100349FF8, symSize: 0x3C }
  - { offset: 0x27972, size: 0x8, addend: 0x0, symName: __ZN10dmGraphicsL16OpenGLNewProgramEPNS_15GraphicsContextEPNS_10ShaderDescEPcj.cold.17, symObjAddr: 0xBC30, symBinAddr: 0x10034A034, symSize: 0x3C }
  - { offset: 0x279CC, size: 0x8, addend: 0x0, symName: __ZN10dmGraphicsL16OpenGLNewProgramEPNS_15GraphicsContextEPNS_10ShaderDescEPcj.cold.18, symObjAddr: 0xBC6C, symBinAddr: 0x10034A070, symSize: 0x3C }
  - { offset: 0x27A26, size: 0x8, addend: 0x0, symName: __ZN10dmGraphicsL16OpenGLNewProgramEPNS_15GraphicsContextEPNS_10ShaderDescEPcj.cold.1, symObjAddr: 0xB930, symBinAddr: 0x100349E54, symSize: 0x3C }
  - { offset: 0x27A54, size: 0x8, addend: 0x0, symName: __ZN10dmGraphicsL16OpenGLNewProgramEPNS_15GraphicsContextEPNS_10ShaderDescEPcj.cold.4, symObjAddr: 0xB9B4, symBinAddr: 0x100349E90, symSize: 0x3C }
  - { offset: 0x27A82, size: 0x8, addend: 0x0, symName: __ZN10dmGraphicsL16OpenGLNewProgramEPNS_15GraphicsContextEPNS_10ShaderDescEPcj.cold.5, symObjAddr: 0xB9F0, symBinAddr: 0x100349ECC, symSize: 0x3C }
  - { offset: 0x27AB0, size: 0x8, addend: 0x0, symName: __ZN10dmGraphicsL16OpenGLNewProgramEPNS_15GraphicsContextEPNS_10ShaderDescEPcj.cold.27, symObjAddr: 0xBE28, symBinAddr: 0x10034A1C0, symSize: 0x3C }
  - { offset: 0x27AF4, size: 0x8, addend: 0x0, symName: __ZN10dmGraphicsL16OpenGLNewProgramEPNS_15GraphicsContextEPNS_10ShaderDescEPcj.cold.34, symObjAddr: 0xBF58, symBinAddr: 0x10034A260, symSize: 0x3C }
  - { offset: 0x27B70, size: 0x8, addend: 0x0, symName: __ZN10dmGraphicsL19OpenGLEnableProgramEPNS_15GraphicsContextEm.cold.2, symObjAddr: 0xBFDC, symBinAddr: 0x10034A29C, symSize: 0x3C }
  - { offset: 0x27B88, size: 0x8, addend: 0x0, symName: __ZN10dmGraphicsL20OpenGLDisableProgramEPNS_15GraphicsContextE.cold.1, symObjAddr: 0xC018, symBinAddr: 0x10034A2D8, symSize: 0x3C }
  - { offset: 0x27BA0, size: 0x8, addend: 0x0, symName: __ZN10dmGraphicsL19OpenGLReloadProgramEPNS_15GraphicsContextEmPNS_10ShaderDescE.cold.3, symObjAddr: 0xC09C, symBinAddr: 0x10034A314, symSize: 0x3C }
  - { offset: 0x27C58, size: 0x8, addend: 0x0, symName: __ZN10dmGraphicsL19OpenGLReloadProgramEPNS_15GraphicsContextEmPNS_10ShaderDescE.cold.7, symObjAddr: 0xC144, symBinAddr: 0x10034A350, symSize: 0x3C }
  - { offset: 0x27C8D, size: 0x8, addend: 0x0, symName: __ZN10dmGraphicsL23OpenGLGetAttributeCountEm.cold.1, symObjAddr: 0xC180, symBinAddr: 0x10034A38C, symSize: 0x28 }
  - { offset: 0x27CC8, size: 0x8, addend: 0x0, symName: __ZN10dmGraphicsL18OpenGLGetAttributeEmjPyPNS_4TypeEPjS3_Pi.cold.2, symObjAddr: 0xC1D0, symBinAddr: 0x10034A3DC, symSize: 0x28 }
  - { offset: 0x27CE0, size: 0x8, addend: 0x0, symName: __ZN10dmGraphicsL18OpenGLGetAttributeEmjPyPNS_4TypeEPjS3_Pi.cold.1, symObjAddr: 0xC1A8, symBinAddr: 0x10034A3B4, symSize: 0x28 }
  - { offset: 0x27D8B, size: 0x8, addend: 0x0, symName: __ZN10dmGraphicsL19OpenGLSetConstantV4EPNS_15GraphicsContextEPKN10Vectormath3Aos7Vector4Eix.cold.3, symObjAddr: 0xC240, symBinAddr: 0x10034A404, symSize: 0x3C }
  - { offset: 0x27DEA, size: 0x8, addend: 0x0, symName: __ZN10dmGraphicsL19OpenGLSetConstantM4EPNS_15GraphicsContextEPKN10Vectormath3Aos7Vector4Eix.cold.3, symObjAddr: 0xC2C4, symBinAddr: 0x10034A440, symSize: 0x3C }
  - { offset: 0x27E15, size: 0x8, addend: 0x0, symName: __ZN10dmGraphicsL16OpenGLSetSamplerEPNS_15GraphicsContextExi.cold.2, symObjAddr: 0xC33C, symBinAddr: 0x10034A4B8, symSize: 0x28 }
  - { offset: 0x27E2D, size: 0x8, addend: 0x0, symName: __ZN10dmGraphicsL16OpenGLSetSamplerEPNS_15GraphicsContextExi.cold.1, symObjAddr: 0xC300, symBinAddr: 0x10034A47C, symSize: 0x3C }
  - { offset: 0x27E45, size: 0x8, addend: 0x0, symName: __ZN10dmGraphicsL17OpenGLSetViewportEPNS_15GraphicsContextEiiii.cold.2, symObjAddr: 0xC3A0, symBinAddr: 0x10034A51C, symSize: 0x28 }
  - { offset: 0x27E5D, size: 0x8, addend: 0x0, symName: __ZN10dmGraphicsL17OpenGLSetViewportEPNS_15GraphicsContextEiiii.cold.1, symObjAddr: 0xC364, symBinAddr: 0x10034A4E0, symSize: 0x3C }
  - { offset: 0x27E7A, size: 0x8, addend: 0x0, symName: __ZN10dmGraphicsL17OpenGLEnableStateEPNS_15GraphicsContextENS_5StateE.cold.1, symObjAddr: 0xC3C8, symBinAddr: 0x10034A544, symSize: 0x28 }
  - { offset: 0x27E92, size: 0x8, addend: 0x0, symName: __ZN10dmGraphicsL18OpenGLDisableStateEPNS_15GraphicsContextENS_5StateE.cold.1, symObjAddr: 0xC3F0, symBinAddr: 0x10034A56C, symSize: 0x28 }
  - { offset: 0x27EAA, size: 0x8, addend: 0x0, symName: __ZN10dmGraphicsL18OpenGLSetBlendFuncEPNS_15GraphicsContextENS_11BlendFactorES2_.cold.1, symObjAddr: 0xC418, symBinAddr: 0x10034A594, symSize: 0x28 }
  - { offset: 0x27EC2, size: 0x8, addend: 0x0, symName: __ZN10dmGraphicsL26OpenGLSetBlendFuncSeparateEPNS_15GraphicsContextENS_11BlendFactorES2_S2_S2_.cold.1, symObjAddr: 0xC440, symBinAddr: 0x10034A5BC, symSize: 0x28 }
  - { offset: 0x27EDA, size: 0x8, addend: 0x0, symName: __ZN10dmGraphicsL30OpenGLSetBlendEquationSeparateEPNS_15GraphicsContextENS_13BlendEquationES2_.cold.1, symObjAddr: 0xC468, symBinAddr: 0x10034A5E4, symSize: 0x28 }
  - { offset: 0x27EF2, size: 0x8, addend: 0x0, symName: __ZN10dmGraphicsL18OpenGLSetColorMaskEPNS_15GraphicsContextEbbbb.cold.1, symObjAddr: 0xC490, symBinAddr: 0x10034A60C, symSize: 0x28 }
  - { offset: 0x27F0A, size: 0x8, addend: 0x0, symName: __ZN10dmGraphicsL18OpenGLSetDepthMaskEPNS_15GraphicsContextEb.cold.1, symObjAddr: 0xC4B8, symBinAddr: 0x10034A634, symSize: 0x28 }
  - { offset: 0x27F22, size: 0x8, addend: 0x0, symName: __ZN10dmGraphicsL18OpenGLSetDepthFuncEPNS_15GraphicsContextENS_11CompareFuncE.cold.1, symObjAddr: 0xC4E0, symBinAddr: 0x10034A65C, symSize: 0x28 }
  - { offset: 0x27F3A, size: 0x8, addend: 0x0, symName: __ZN10dmGraphicsL16OpenGLSetScissorEPNS_15GraphicsContextEiiii.cold.1, symObjAddr: 0xC508, symBinAddr: 0x10034A684, symSize: 0x28 }
  - { offset: 0x27F52, size: 0x8, addend: 0x0, symName: __ZN10dmGraphicsL20OpenGLSetStencilMaskEPNS_15GraphicsContextEj.cold.1, symObjAddr: 0xC530, symBinAddr: 0x10034A6AC, symSize: 0x28 }
  - { offset: 0x27F6A, size: 0x8, addend: 0x0, symName: __ZN10dmGraphicsL20OpenGLSetStencilFuncEPNS_15GraphicsContextENS_11CompareFuncEjj.cold.1, symObjAddr: 0xC558, symBinAddr: 0x10034A6D4, symSize: 0x28 }
  - { offset: 0x27F82, size: 0x8, addend: 0x0, symName: __ZN10dmGraphicsL28OpenGLSetStencilFuncSeparateEPNS_15GraphicsContextENS_8FaceTypeENS_11CompareFuncEjj.cold.1, symObjAddr: 0xC580, symBinAddr: 0x10034A6FC, symSize: 0x28 }
  - { offset: 0x27F9A, size: 0x8, addend: 0x0, symName: __ZN10dmGraphicsL18OpenGLSetStencilOpEPNS_15GraphicsContextENS_9StencilOpES2_S2_.cold.1, symObjAddr: 0xC5A8, symBinAddr: 0x10034A724, symSize: 0x28 }
  - { offset: 0x27FB2, size: 0x8, addend: 0x0, symName: __ZN10dmGraphicsL26OpenGLSetStencilOpSeparateEPNS_15GraphicsContextENS_8FaceTypeENS_9StencilOpES3_S3_.cold.1, symObjAddr: 0xC5D0, symBinAddr: 0x10034A74C, symSize: 0x28 }
  - { offset: 0x27FCA, size: 0x8, addend: 0x0, symName: __ZN10dmGraphicsL17OpenGLSetCullFaceEPNS_15GraphicsContextENS_8FaceTypeE.cold.1, symObjAddr: 0xC5F8, symBinAddr: 0x10034A774, symSize: 0x28 }
  - { offset: 0x27FE2, size: 0x8, addend: 0x0, symName: __ZN10dmGraphicsL20OpenGLSetFaceWindingEPNS_15GraphicsContextENS_11FaceWindingE.cold.1, symObjAddr: 0xC620, symBinAddr: 0x10034A79C, symSize: 0x28 }
  - { offset: 0x2800D, size: 0x8, addend: 0x0, symName: __ZN10dmGraphicsL22OpenGLSetPolygonOffsetEPNS_15GraphicsContextEff.cold.2, symObjAddr: 0xC684, symBinAddr: 0x10034A800, symSize: 0x28 }
  - { offset: 0x28025, size: 0x8, addend: 0x0, symName: __ZN10dmGraphicsL22OpenGLSetPolygonOffsetEPNS_15GraphicsContextEff.cold.1, symObjAddr: 0xC648, symBinAddr: 0x10034A7C4, symSize: 0x3C }
  - { offset: 0x281AD, size: 0x8, addend: 0x0, symName: __ZN10dmGraphicsL21OpenGLNewRenderTargetEPNS_15GraphicsContextEjNS_26RenderTargetCreationParamsE.cold.11, symObjAddr: 0xC8B4, symBinAddr: 0x10034A9AC, symSize: 0x28 }
  - { offset: 0x28208, size: 0x8, addend: 0x0, symName: __ZN10dmGraphicsL21OpenGLNewRenderTargetEPNS_15GraphicsContextEjNS_26RenderTargetCreationParamsE.cold.13, symObjAddr: 0xC904, symBinAddr: 0x10034A9FC, symSize: 0x28 }
  - { offset: 0x2824C, size: 0x8, addend: 0x0, symName: __ZN10dmGraphicsL21OpenGLNewRenderTargetEPNS_15GraphicsContextEjNS_26RenderTargetCreationParamsE.cold.3, symObjAddr: 0xC724, symBinAddr: 0x10034A8A0, symSize: 0x2C }
  - { offset: 0x2827A, size: 0x8, addend: 0x0, symName: __ZN10dmGraphicsL21OpenGLNewRenderTargetEPNS_15GraphicsContextEjNS_26RenderTargetCreationParamsE.cold.12, symObjAddr: 0xC8DC, symBinAddr: 0x10034A9D4, symSize: 0x28 }
  - { offset: 0x282BE, size: 0x8, addend: 0x0, symName: __ZN10dmGraphicsL21OpenGLNewRenderTargetEPNS_15GraphicsContextEjNS_26RenderTargetCreationParamsE.cold.9, symObjAddr: 0xC84C, symBinAddr: 0x10034A944, symSize: 0x2C }
  - { offset: 0x282D6, size: 0x8, addend: 0x0, symName: __ZN10dmGraphicsL21OpenGLNewRenderTargetEPNS_15GraphicsContextEjNS_26RenderTargetCreationParamsE.cold.1, symObjAddr: 0xC6AC, symBinAddr: 0x10034A828, symSize: 0x3C }
  - { offset: 0x282EE, size: 0x8, addend: 0x0, symName: __ZN10dmGraphicsL21OpenGLNewRenderTargetEPNS_15GraphicsContextEjNS_26RenderTargetCreationParamsE.cold.2, symObjAddr: 0xC6E8, symBinAddr: 0x10034A864, symSize: 0x3C }
  - { offset: 0x28306, size: 0x8, addend: 0x0, symName: __ZN10dmGraphicsL21OpenGLNewRenderTargetEPNS_15GraphicsContextEjNS_26RenderTargetCreationParamsE.cold.10, symObjAddr: 0xC878, symBinAddr: 0x10034A970, symSize: 0x3C }
  - { offset: 0x2831E, size: 0x8, addend: 0x0, symName: __ZN10dmGraphicsL21OpenGLNewRenderTargetEPNS_15GraphicsContextEjNS_26RenderTargetCreationParamsE.cold.7, symObjAddr: 0xC7D4, symBinAddr: 0x10034A8CC, symSize: 0x3C }
  - { offset: 0x28336, size: 0x8, addend: 0x0, symName: __ZN10dmGraphicsL21OpenGLNewRenderTargetEPNS_15GraphicsContextEjNS_26RenderTargetCreationParamsE.cold.8, symObjAddr: 0xC810, symBinAddr: 0x10034A908, symSize: 0x3C }
  - { offset: 0x2848F, size: 0x8, addend: 0x0, symName: __ZN10dmGraphicsL21OpenGLSetRenderTargetEPNS_15GraphicsContextEyj.cold.5, symObjAddr: 0xCA64, symBinAddr: 0x10034AA60, symSize: 0x2C }
  - { offset: 0x284A7, size: 0x8, addend: 0x0, symName: __ZN10dmGraphicsL21OpenGLSetRenderTargetEPNS_15GraphicsContextEyj.cold.4, symObjAddr: 0xCA28, symBinAddr: 0x10034AA24, symSize: 0x3C }
  - { offset: 0x28625, size: 0x8, addend: 0x0, symName: __ZN10dmGraphicsL16OpenGLNewTextureEPNS_15GraphicsContextERKNS_21TextureCreationParamsE.cold.6, symObjAddr: 0xCBEC, symBinAddr: 0x10034AB7C, symSize: 0x24 }
  - { offset: 0x28669, size: 0x8, addend: 0x0, symName: __ZN10dmGraphicsL16OpenGLNewTextureEPNS_15GraphicsContextERKNS_21TextureCreationParamsE.cold.7, symObjAddr: 0xCC10, symBinAddr: 0x10034ABA0, symSize: 0x3C }
  - { offset: 0x28697, size: 0x8, addend: 0x0, symName: __ZN10dmGraphicsL16OpenGLNewTextureEPNS_15GraphicsContextERKNS_21TextureCreationParamsE.cold.4, symObjAddr: 0xCB74, symBinAddr: 0x10034AB04, symSize: 0x3C }
  - { offset: 0x286C5, size: 0x8, addend: 0x0, symName: __ZN10dmGraphicsL16OpenGLNewTextureEPNS_15GraphicsContextERKNS_21TextureCreationParamsE.cold.9, symObjAddr: 0xCC70, symBinAddr: 0x10034ABDC, symSize: 0x3C }
  - { offset: 0x286F3, size: 0x8, addend: 0x0, symName: __ZN10dmGraphicsL16OpenGLNewTextureEPNS_15GraphicsContextERKNS_21TextureCreationParamsE.cold.5, symObjAddr: 0xCBB0, symBinAddr: 0x10034AB40, symSize: 0x3C }
  - { offset: 0x28721, size: 0x8, addend: 0x0, symName: __ZN10dmGraphicsL16OpenGLNewTextureEPNS_15GraphicsContextERKNS_21TextureCreationParamsE.cold.3, symObjAddr: 0xCB38, symBinAddr: 0x10034AAC8, symSize: 0x3C }
  - { offset: 0x2874F, size: 0x8, addend: 0x0, symName: __ZN10dmGraphicsL16OpenGLNewTextureEPNS_15GraphicsContextERKNS_21TextureCreationParamsE.cold.1, symObjAddr: 0xCAD8, symBinAddr: 0x10034AA8C, symSize: 0x3C }
  - { offset: 0x28767, size: 0x8, addend: 0x0, symName: __ZN10dmGraphicsL19OpenGLDeleteTextureEPNS_15GraphicsContextEy.cold.1, symObjAddr: 0xCD24, symBinAddr: 0x10034AC18, symSize: 0x28 }
  - { offset: 0x28965, size: 0x8, addend: 0x0, symName: __ZN10dmGraphicsL16OpenGLSetTextureEPNS_15GraphicsContextEyRKNS_13TextureParamsE.cold.27, symObjAddr: 0xD30C, symBinAddr: 0x10034B1B8, symSize: 0x3C }
  - { offset: 0x2899D, size: 0x8, addend: 0x0, symName: __ZN10dmGraphicsL16OpenGLSetTextureEPNS_15GraphicsContextEyRKNS_13TextureParamsE.cold.35, symObjAddr: 0xD4EC, symBinAddr: 0x10034B398, symSize: 0x28 }
  - { offset: 0x289B5, size: 0x8, addend: 0x0, symName: __ZN10dmGraphicsL16OpenGLSetTextureEPNS_15GraphicsContextEyRKNS_13TextureParamsE.cold.37, symObjAddr: 0xD550, symBinAddr: 0x10034B3FC, symSize: 0x28 }
  - { offset: 0x289CD, size: 0x8, addend: 0x0, symName: __ZN10dmGraphicsL16OpenGLSetTextureEPNS_15GraphicsContextEyRKNS_13TextureParamsE.cold.21, symObjAddr: 0xD1B8, symBinAddr: 0x10034B064, symSize: 0x28 }
  - { offset: 0x289E5, size: 0x8, addend: 0x0, symName: __ZN10dmGraphicsL16OpenGLSetTextureEPNS_15GraphicsContextEyRKNS_13TextureParamsE.cold.47, symObjAddr: 0xD718, symBinAddr: 0x10034B5A0, symSize: 0x28 }
  - { offset: 0x289FD, size: 0x8, addend: 0x0, symName: __ZN10dmGraphicsL16OpenGLSetTextureEPNS_15GraphicsContextEyRKNS_13TextureParamsE.cold.46, symObjAddr: 0xD6F0, symBinAddr: 0x10034B578, symSize: 0x28 }
  - { offset: 0x28A15, size: 0x8, addend: 0x0, symName: __ZN10dmGraphicsL16OpenGLSetTextureEPNS_15GraphicsContextEyRKNS_13TextureParamsE.cold.45, symObjAddr: 0xD6C8, symBinAddr: 0x10034B550, symSize: 0x28 }
  - { offset: 0x28A6C, size: 0x8, addend: 0x0, symName: __ZN10dmGraphicsL16OpenGLSetTextureEPNS_15GraphicsContextEyRKNS_13TextureParamsE.cold.4, symObjAddr: 0xCDD0, symBinAddr: 0x10034AC7C, symSize: 0x3C }
  - { offset: 0x28A84, size: 0x8, addend: 0x0, symName: __ZN10dmGraphicsL16OpenGLSetTextureEPNS_15GraphicsContextEyRKNS_13TextureParamsE.cold.20, symObjAddr: 0xD190, symBinAddr: 0x10034B03C, symSize: 0x28 }
  - { offset: 0x28A9C, size: 0x8, addend: 0x0, symName: __ZN10dmGraphicsL16OpenGLSetTextureEPNS_15GraphicsContextEyRKNS_13TextureParamsE.cold.38, symObjAddr: 0xD578, symBinAddr: 0x10034B424, symSize: 0x3C }
  - { offset: 0x28AB4, size: 0x8, addend: 0x0, symName: __ZN10dmGraphicsL16OpenGLSetTextureEPNS_15GraphicsContextEyRKNS_13TextureParamsE.cold.34, symObjAddr: 0xD4B0, symBinAddr: 0x10034B35C, symSize: 0x3C }
  - { offset: 0x28ACC, size: 0x8, addend: 0x0, symName: __ZN10dmGraphicsL16OpenGLSetTextureEPNS_15GraphicsContextEyRKNS_13TextureParamsE.cold.39, symObjAddr: 0xD5B4, symBinAddr: 0x10034B460, symSize: 0x28 }
  - { offset: 0x28AE4, size: 0x8, addend: 0x0, symName: __ZN10dmGraphicsL16OpenGLSetTextureEPNS_15GraphicsContextEyRKNS_13TextureParamsE.cold.17, symObjAddr: 0xD0DC, symBinAddr: 0x10034AF88, symSize: 0x3C }
  - { offset: 0x28AFC, size: 0x8, addend: 0x0, symName: __ZN10dmGraphicsL16OpenGLSetTextureEPNS_15GraphicsContextEyRKNS_13TextureParamsE.cold.18, symObjAddr: 0xD118, symBinAddr: 0x10034AFC4, symSize: 0x3C }
  - { offset: 0x28B14, size: 0x8, addend: 0x0, symName: __ZN10dmGraphicsL16OpenGLSetTextureEPNS_15GraphicsContextEyRKNS_13TextureParamsE.cold.19, symObjAddr: 0xD154, symBinAddr: 0x10034B000, symSize: 0x3C }
  - { offset: 0x28B2C, size: 0x8, addend: 0x0, symName: __ZN10dmGraphicsL16OpenGLSetTextureEPNS_15GraphicsContextEyRKNS_13TextureParamsE.cold.11, symObjAddr: 0xCF74, symBinAddr: 0x10034AE20, symSize: 0x3C }
  - { offset: 0x28B44, size: 0x8, addend: 0x0, symName: __ZN10dmGraphicsL16OpenGLSetTextureEPNS_15GraphicsContextEyRKNS_13TextureParamsE.cold.12, symObjAddr: 0xCFB0, symBinAddr: 0x10034AE5C, symSize: 0x3C }
  - { offset: 0x28B5C, size: 0x8, addend: 0x0, symName: __ZN10dmGraphicsL16OpenGLSetTextureEPNS_15GraphicsContextEyRKNS_13TextureParamsE.cold.13, symObjAddr: 0xCFEC, symBinAddr: 0x10034AE98, symSize: 0x3C }
  - { offset: 0x28B74, size: 0x8, addend: 0x0, symName: __ZN10dmGraphicsL16OpenGLSetTextureEPNS_15GraphicsContextEyRKNS_13TextureParamsE.cold.14, symObjAddr: 0xD028, symBinAddr: 0x10034AED4, symSize: 0x3C }
  - { offset: 0x28B8C, size: 0x8, addend: 0x0, symName: __ZN10dmGraphicsL16OpenGLSetTextureEPNS_15GraphicsContextEyRKNS_13TextureParamsE.cold.15, symObjAddr: 0xD064, symBinAddr: 0x10034AF10, symSize: 0x3C }
  - { offset: 0x28BA4, size: 0x8, addend: 0x0, symName: __ZN10dmGraphicsL16OpenGLSetTextureEPNS_15GraphicsContextEyRKNS_13TextureParamsE.cold.16, symObjAddr: 0xD0A0, symBinAddr: 0x10034AF4C, symSize: 0x3C }
  - { offset: 0x28BBC, size: 0x8, addend: 0x0, symName: __ZN10dmGraphicsL16OpenGLSetTextureEPNS_15GraphicsContextEyRKNS_13TextureParamsE.cold.36, symObjAddr: 0xD514, symBinAddr: 0x10034B3C0, symSize: 0x3C }
  - { offset: 0x28BD4, size: 0x8, addend: 0x0, symName: __ZN10dmGraphicsL16OpenGLSetTextureEPNS_15GraphicsContextEyRKNS_13TextureParamsE.cold.41, symObjAddr: 0xD604, symBinAddr: 0x10034B4B0, symSize: 0x3C }
  - { offset: 0x28BEC, size: 0x8, addend: 0x0, symName: __ZN10dmGraphicsL16OpenGLSetTextureEPNS_15GraphicsContextEyRKNS_13TextureParamsE.cold.40, symObjAddr: 0xD5DC, symBinAddr: 0x10034B488, symSize: 0x28 }
  - { offset: 0x28C04, size: 0x8, addend: 0x0, symName: __ZN10dmGraphicsL16OpenGLSetTextureEPNS_15GraphicsContextEyRKNS_13TextureParamsE.cold.5, symObjAddr: 0xCE0C, symBinAddr: 0x10034ACB8, symSize: 0x3C }
  - { offset: 0x28C1C, size: 0x8, addend: 0x0, symName: __ZN10dmGraphicsL16OpenGLSetTextureEPNS_15GraphicsContextEyRKNS_13TextureParamsE.cold.6, symObjAddr: 0xCE48, symBinAddr: 0x10034ACF4, symSize: 0x3C }
  - { offset: 0x28C34, size: 0x8, addend: 0x0, symName: __ZN10dmGraphicsL16OpenGLSetTextureEPNS_15GraphicsContextEyRKNS_13TextureParamsE.cold.7, symObjAddr: 0xCE84, symBinAddr: 0x10034AD30, symSize: 0x3C }
  - { offset: 0x28C4C, size: 0x8, addend: 0x0, symName: __ZN10dmGraphicsL16OpenGLSetTextureEPNS_15GraphicsContextEyRKNS_13TextureParamsE.cold.8, symObjAddr: 0xCEC0, symBinAddr: 0x10034AD6C, symSize: 0x3C }
  - { offset: 0x28C64, size: 0x8, addend: 0x0, symName: __ZN10dmGraphicsL16OpenGLSetTextureEPNS_15GraphicsContextEyRKNS_13TextureParamsE.cold.9, symObjAddr: 0xCEFC, symBinAddr: 0x10034ADA8, symSize: 0x3C }
  - { offset: 0x28C7C, size: 0x8, addend: 0x0, symName: __ZN10dmGraphicsL16OpenGLSetTextureEPNS_15GraphicsContextEyRKNS_13TextureParamsE.cold.10, symObjAddr: 0xCF38, symBinAddr: 0x10034ADE4, symSize: 0x3C }
  - { offset: 0x28C94, size: 0x8, addend: 0x0, symName: __ZN10dmGraphicsL16OpenGLSetTextureEPNS_15GraphicsContextEyRKNS_13TextureParamsE.cold.28, symObjAddr: 0xD348, symBinAddr: 0x10034B1F4, symSize: 0x3C }
  - { offset: 0x28CAC, size: 0x8, addend: 0x0, symName: __ZN10dmGraphicsL16OpenGLSetTextureEPNS_15GraphicsContextEyRKNS_13TextureParamsE.cold.29, symObjAddr: 0xD384, symBinAddr: 0x10034B230, symSize: 0x3C }
  - { offset: 0x28CC4, size: 0x8, addend: 0x0, symName: __ZN10dmGraphicsL16OpenGLSetTextureEPNS_15GraphicsContextEyRKNS_13TextureParamsE.cold.30, symObjAddr: 0xD3C0, symBinAddr: 0x10034B26C, symSize: 0x3C }
  - { offset: 0x28CDC, size: 0x8, addend: 0x0, symName: __ZN10dmGraphicsL16OpenGLSetTextureEPNS_15GraphicsContextEyRKNS_13TextureParamsE.cold.31, symObjAddr: 0xD3FC, symBinAddr: 0x10034B2A8, symSize: 0x3C }
  - { offset: 0x28CF4, size: 0x8, addend: 0x0, symName: __ZN10dmGraphicsL16OpenGLSetTextureEPNS_15GraphicsContextEyRKNS_13TextureParamsE.cold.32, symObjAddr: 0xD438, symBinAddr: 0x10034B2E4, symSize: 0x3C }
  - { offset: 0x28D0C, size: 0x8, addend: 0x0, symName: __ZN10dmGraphicsL16OpenGLSetTextureEPNS_15GraphicsContextEyRKNS_13TextureParamsE.cold.33, symObjAddr: 0xD474, symBinAddr: 0x10034B320, symSize: 0x3C }
  - { offset: 0x28D24, size: 0x8, addend: 0x0, symName: __ZN10dmGraphicsL16OpenGLSetTextureEPNS_15GraphicsContextEyRKNS_13TextureParamsE.cold.42, symObjAddr: 0xD640, symBinAddr: 0x10034B4EC, symSize: 0x3C }
  - { offset: 0x28D3C, size: 0x8, addend: 0x0, symName: __ZN10dmGraphicsL16OpenGLSetTextureEPNS_15GraphicsContextEyRKNS_13TextureParamsE.cold.22, symObjAddr: 0xD1E0, symBinAddr: 0x10034B08C, symSize: 0x3C }
  - { offset: 0x28D54, size: 0x8, addend: 0x0, symName: __ZN10dmGraphicsL16OpenGLSetTextureEPNS_15GraphicsContextEyRKNS_13TextureParamsE.cold.23, symObjAddr: 0xD21C, symBinAddr: 0x10034B0C8, symSize: 0x3C }
  - { offset: 0x28D6C, size: 0x8, addend: 0x0, symName: __ZN10dmGraphicsL16OpenGLSetTextureEPNS_15GraphicsContextEyRKNS_13TextureParamsE.cold.24, symObjAddr: 0xD258, symBinAddr: 0x10034B104, symSize: 0x3C }
  - { offset: 0x28D84, size: 0x8, addend: 0x0, symName: __ZN10dmGraphicsL16OpenGLSetTextureEPNS_15GraphicsContextEyRKNS_13TextureParamsE.cold.25, symObjAddr: 0xD294, symBinAddr: 0x10034B140, symSize: 0x3C }
  - { offset: 0x28D9C, size: 0x8, addend: 0x0, symName: __ZN10dmGraphicsL16OpenGLSetTextureEPNS_15GraphicsContextEyRKNS_13TextureParamsE.cold.26, symObjAddr: 0xD2D0, symBinAddr: 0x10034B17C, symSize: 0x3C }
  - { offset: 0x28DB4, size: 0x8, addend: 0x0, symName: __ZN10dmGraphicsL16OpenGLSetTextureEPNS_15GraphicsContextEyRKNS_13TextureParamsE.cold.1, symObjAddr: 0xCD4C, symBinAddr: 0x10034AC40, symSize: 0x3C }
  - { offset: 0x28DCC, size: 0x8, addend: 0x0, symName: __ZN10dmGraphicsL16OpenGLSetTextureEPNS_15GraphicsContextEyRKNS_13TextureParamsE.cold.43, symObjAddr: 0xD67C, symBinAddr: 0x10034B528, symSize: 0x28 }
  - { offset: 0x28F8E, size: 0x8, addend: 0x0, symName: __ZN10dmGraphicsL19OpenGLEnableTextureEPNS_15GraphicsContextEjhy.cold.1, symObjAddr: 0xD818, symBinAddr: 0x10034B5C8, symSize: 0x28 }
  - { offset: 0x28FA6, size: 0x8, addend: 0x0, symName: __ZN10dmGraphicsL19OpenGLEnableTextureEPNS_15GraphicsContextEjhy.cold.2, symObjAddr: 0xD840, symBinAddr: 0x10034B5F0, symSize: 0x28 }
  - { offset: 0x28FBE, size: 0x8, addend: 0x0, symName: __ZN10dmGraphicsL20OpenGLDisableTextureEPNS_15GraphicsContextEjy.cold.1, symObjAddr: 0xD868, symBinAddr: 0x10034B618, symSize: 0x28 }
  - { offset: 0x28FD6, size: 0x8, addend: 0x0, symName: __ZN10dmGraphicsL16OpenGLReadPixelsEPNS_15GraphicsContextEiijjPvj.cold.2, symObjAddr: 0xD8CC, symBinAddr: 0x10034B67C, symSize: 0x28 }
  - { offset: 0x28FEE, size: 0x8, addend: 0x0, symName: __ZN10dmGraphicsL16OpenGLReadPixelsEPNS_15GraphicsContextEiijjPvj.cold.1, symObjAddr: 0xD890, symBinAddr: 0x10034B640, symSize: 0x3C }
  - { offset: 0x291C8, size: 0x8, addend: 0x0, symName: __ZN10dmGraphicsL22OpenGLNewUniformBufferEPNS_15GraphicsContextERKNS_19UniformBufferLayoutE.cold.1, symObjAddr: 0xDA5C, symBinAddr: 0x10034B6A4, symSize: 0x3C }
  - { offset: 0x291E0, size: 0x8, addend: 0x0, symName: __ZN10dmGraphicsL22OpenGLSetUniformBufferEPNS_15GraphicsContextEPNS_13UniformBufferEjjPKv.cold.2, symObjAddr: 0xDABC, symBinAddr: 0x10034B6E0, symSize: 0x3C }
  - { offset: 0x291F8, size: 0x8, addend: 0x0, symName: __ZN10dmGraphicsL22OpenGLSetUniformBufferEPNS_15GraphicsContextEPNS_13UniformBufferEjjPKv.cold.3, symObjAddr: 0xDAF8, symBinAddr: 0x10034B71C, symSize: 0x28 }
  - { offset: 0x292A4, size: 0x8, addend: 0x0, symName: __ZN10dmGraphicsL25AcquireAuxContextOnThreadEPNS_13OpenGLContextEb.cold.1, symObjAddr: 0xDB20, symBinAddr: 0x10034B744, symSize: 0x28 }
  - { offset: 0x29391, size: 0x8, addend: 0x0, symName: __ZN10dmGraphicsL14AddNewGLHandleEPNS_13OpenGLContextEj.cold.1, symObjAddr: 0xDB48, symBinAddr: 0x10034B76C, symSize: 0x28 }
  - { offset: 0x293F4, size: 0x8, addend: 0x0, symName: __ZN10dmGraphicsL26WorkerAcquireContextRunnerEP10JobContextyPvS2_.cold.1, symObjAddr: 0xDBDC, symBinAddr: 0x10034B794, symSize: 0x28 }
  - { offset: 0x2968F, size: 0x8, addend: 0x0, symName: __ZN10dmGraphicsL18PostDeleteTexturesEPNS_13OpenGLContextEb.cold.2, symObjAddr: 0xDC2C, symBinAddr: 0x10034B7E4, symSize: 0x28 }
  - { offset: 0x296D2, size: 0x8, addend: 0x0, symName: __ZN10dmGraphicsL18PostDeleteTexturesEPNS_13OpenGLContextEb.cold.1, symObjAddr: 0xDC04, symBinAddr: 0x10034B7BC, symSize: 0x28 }
  - { offset: 0x2979C, size: 0x8, addend: 0x0, symName: __ZN10dmGraphicsL15DoDeleteTextureEPNS_13OpenGLContextEy.cold.3, symObjAddr: 0xDCC0, symBinAddr: 0x10034B80C, symSize: 0x3C }
  - { offset: 0x298BD, size: 0x8, addend: 0x0, symName: __ZN10dmGraphicsL18ApplyPipelineStateEPNS_13OpenGLContextE.cold.22, symObjAddr: 0xE214, symBinAddr: 0x10034BC18, symSize: 0x3C }
  - { offset: 0x2990E, size: 0x8, addend: 0x0, symName: __ZN10dmGraphicsL18ApplyPipelineStateEPNS_13OpenGLContextE.cold.15, symObjAddr: 0xE098, symBinAddr: 0x10034BAC4, symSize: 0x28 }
  - { offset: 0x29951, size: 0x8, addend: 0x0, symName: __ZN10dmGraphicsL18ApplyPipelineStateEPNS_13OpenGLContextE.cold.21, symObjAddr: 0xE1D8, symBinAddr: 0x10034BBDC, symSize: 0x3C }
  - { offset: 0x29969, size: 0x8, addend: 0x0, symName: __ZN10dmGraphicsL18ApplyPipelineStateEPNS_13OpenGLContextE.cold.7, symObjAddr: 0xDF18, symBinAddr: 0x10034B9B0, symSize: 0x3C }
  - { offset: 0x29981, size: 0x8, addend: 0x0, symName: __ZN10dmGraphicsL18ApplyPipelineStateEPNS_13OpenGLContextE.cold.14, symObjAddr: 0xE05C, symBinAddr: 0x10034BA88, symSize: 0x3C }
  - { offset: 0x29999, size: 0x8, addend: 0x0, symName: __ZN10dmGraphicsL18ApplyPipelineStateEPNS_13OpenGLContextE.cold.19, symObjAddr: 0xE160, symBinAddr: 0x10034BB64, symSize: 0x3C }
  - { offset: 0x299B1, size: 0x8, addend: 0x0, symName: __ZN10dmGraphicsL18ApplyPipelineStateEPNS_13OpenGLContextE.cold.17, symObjAddr: 0xE0E8, symBinAddr: 0x10034BAEC, symSize: 0x3C }
  - { offset: 0x299C9, size: 0x8, addend: 0x0, symName: __ZN10dmGraphicsL18ApplyPipelineStateEPNS_13OpenGLContextE.cold.20, symObjAddr: 0xE19C, symBinAddr: 0x10034BBA0, symSize: 0x3C }
  - { offset: 0x299E1, size: 0x8, addend: 0x0, symName: __ZN10dmGraphicsL18ApplyPipelineStateEPNS_13OpenGLContextE.cold.26, symObjAddr: 0xE2F0, symBinAddr: 0x10034BCF4, symSize: 0x3C }
  - { offset: 0x299F9, size: 0x8, addend: 0x0, symName: __ZN10dmGraphicsL18ApplyPipelineStateEPNS_13OpenGLContextE.cold.1, symObjAddr: 0xDDB0, symBinAddr: 0x10034B848, symSize: 0x3C }
  - { offset: 0x29A11, size: 0x8, addend: 0x0, symName: __ZN10dmGraphicsL18ApplyPipelineStateEPNS_13OpenGLContextE.cold.2, symObjAddr: 0xDDEC, symBinAddr: 0x10034B884, symSize: 0x3C }
  - { offset: 0x29A29, size: 0x8, addend: 0x0, symName: __ZN10dmGraphicsL18ApplyPipelineStateEPNS_13OpenGLContextE.cold.3, symObjAddr: 0xDE28, symBinAddr: 0x10034B8C0, symSize: 0x3C }
  - { offset: 0x29A41, size: 0x8, addend: 0x0, symName: __ZN10dmGraphicsL18ApplyPipelineStateEPNS_13OpenGLContextE.cold.4, symObjAddr: 0xDE64, symBinAddr: 0x10034B8FC, symSize: 0x3C }
  - { offset: 0x29A59, size: 0x8, addend: 0x0, symName: __ZN10dmGraphicsL18ApplyPipelineStateEPNS_13OpenGLContextE.cold.5, symObjAddr: 0xDEA0, symBinAddr: 0x10034B938, symSize: 0x3C }
  - { offset: 0x29A71, size: 0x8, addend: 0x0, symName: __ZN10dmGraphicsL18ApplyPipelineStateEPNS_13OpenGLContextE.cold.6, symObjAddr: 0xDEDC, symBinAddr: 0x10034B974, symSize: 0x3C }
  - { offset: 0x29A89, size: 0x8, addend: 0x0, symName: __ZN10dmGraphicsL18ApplyPipelineStateEPNS_13OpenGLContextE.cold.8, symObjAddr: 0xDF54, symBinAddr: 0x10034B9EC, symSize: 0x3C }
  - { offset: 0x29AA1, size: 0x8, addend: 0x0, symName: __ZN10dmGraphicsL18ApplyPipelineStateEPNS_13OpenGLContextE.cold.9, symObjAddr: 0xDF90, symBinAddr: 0x10034BA28, symSize: 0x3C }
  - { offset: 0x29AB9, size: 0x8, addend: 0x0, symName: __ZN10dmGraphicsL18ApplyPipelineStateEPNS_13OpenGLContextE.cold.18, symObjAddr: 0xE124, symBinAddr: 0x10034BB28, symSize: 0x3C }
  - { offset: 0x29AD1, size: 0x8, addend: 0x0, symName: __ZN10dmGraphicsL18ApplyPipelineStateEPNS_13OpenGLContextE.cold.24, symObjAddr: 0xE278, symBinAddr: 0x10034BC7C, symSize: 0x3C }
  - { offset: 0x29AE9, size: 0x8, addend: 0x0, symName: __ZN10dmGraphicsL18ApplyPipelineStateEPNS_13OpenGLContextE.cold.25, symObjAddr: 0xE2B4, symBinAddr: 0x10034BCB8, symSize: 0x3C }
  - { offset: 0x29B01, size: 0x8, addend: 0x0, symName: __ZN10dmGraphicsL18ApplyPipelineStateEPNS_13OpenGLContextE.cold.23, symObjAddr: 0xE250, symBinAddr: 0x10034BC54, symSize: 0x28 }
  - { offset: 0x29B2F, size: 0x8, addend: 0x0, symName: __ZN10dmGraphicsL18ApplyPipelineStateEPNS_13OpenGLContextE.cold.10, symObjAddr: 0xDFCC, symBinAddr: 0x10034BA64, symSize: 0x24 }
  - { offset: 0x29B9C, size: 0x8, addend: 0x0, symName: __ZN10dmGraphicsL9DrawSetupEPNS_13OpenGLContextE.cold.7, symObjAddr: 0xE44C, symBinAddr: 0x10034BDE4, symSize: 0x3C }
  - { offset: 0x29BDA, size: 0x8, addend: 0x0, symName: __ZN10dmGraphicsL9DrawSetupEPNS_13OpenGLContextE.cold.18, symObjAddr: 0xE680, symBinAddr: 0x10034BF88, symSize: 0x3C }
  - { offset: 0x29CB1, size: 0x8, addend: 0x0, symName: __ZN10dmGraphicsL9DrawSetupEPNS_13OpenGLContextE.cold.4, symObjAddr: 0xE3B0, symBinAddr: 0x10034BD6C, symSize: 0x3C }
  - { offset: 0x29CC9, size: 0x8, addend: 0x0, symName: __ZN10dmGraphicsL9DrawSetupEPNS_13OpenGLContextE.cold.2, symObjAddr: 0xE350, symBinAddr: 0x10034BD30, symSize: 0x3C }
  - { offset: 0x29CE1, size: 0x8, addend: 0x0, symName: __ZN10dmGraphicsL9DrawSetupEPNS_13OpenGLContextE.cold.11, symObjAddr: 0xE50C, symBinAddr: 0x10034BE5C, symSize: 0x3C }
  - { offset: 0x29D23, size: 0x8, addend: 0x0, symName: __ZN10dmGraphicsL9DrawSetupEPNS_13OpenGLContextE.cold.9, symObjAddr: 0xE4AC, symBinAddr: 0x10034BE20, symSize: 0x3C }
  - { offset: 0x29D3B, size: 0x8, addend: 0x0, symName: __ZN10dmGraphicsL9DrawSetupEPNS_13OpenGLContextE.cold.6, symObjAddr: 0xE410, symBinAddr: 0x10034BDA8, symSize: 0x3C }
  - { offset: 0x29D53, size: 0x8, addend: 0x0, symName: __ZN10dmGraphicsL9DrawSetupEPNS_13OpenGLContextE.cold.12, symObjAddr: 0xE548, symBinAddr: 0x10034BE98, symSize: 0x3C }
  - { offset: 0x29D6B, size: 0x8, addend: 0x0, symName: __ZN10dmGraphicsL9DrawSetupEPNS_13OpenGLContextE.cold.13, symObjAddr: 0xE584, symBinAddr: 0x10034BED4, symSize: 0x3C }
  - { offset: 0x29D83, size: 0x8, addend: 0x0, symName: __ZN10dmGraphicsL9DrawSetupEPNS_13OpenGLContextE.cold.15, symObjAddr: 0xE5E4, symBinAddr: 0x10034BF10, symSize: 0x3C }
  - { offset: 0x29D9B, size: 0x8, addend: 0x0, symName: __ZN10dmGraphicsL9DrawSetupEPNS_13OpenGLContextE.cold.17, symObjAddr: 0xE644, symBinAddr: 0x10034BF4C, symSize: 0x3C }
  - { offset: 0x29E48, size: 0x8, addend: 0x0, symName: __ZN10dmGraphicsL12CreateShaderEPNS_15GraphicsContextEjPNS_10ShaderDesc6ShaderEPcj.cold.1, symObjAddr: 0xE6E0, symBinAddr: 0x10034BFC4, symSize: 0x3C }
  - { offset: 0x29E76, size: 0x8, addend: 0x0, symName: __ZN10dmGraphicsL12CreateShaderEPNS_15GraphicsContextEjPNS_10ShaderDesc6ShaderEPcj.cold.2, symObjAddr: 0xE71C, symBinAddr: 0x10034C000, symSize: 0x3C }
  - { offset: 0x29EA4, size: 0x8, addend: 0x0, symName: __ZN10dmGraphicsL12CreateShaderEPNS_15GraphicsContextEjPNS_10ShaderDesc6ShaderEPcj.cold.3, symObjAddr: 0xE758, symBinAddr: 0x10034C03C, symSize: 0x3C }
  - { offset: 0x29EF2, size: 0x8, addend: 0x0, symName: __ZN10dmGraphicsL12DeleteShaderEPNS_13OpenGLContextEPNS_12OpenGLShaderE.cold.2, symObjAddr: 0xE7B8, symBinAddr: 0x10034C078, symSize: 0x3C }
  - { offset: 0x29FAE, size: 0x8, addend: 0x0, symName: __ZN10dmGraphicsL15BuildAttributesEPNS_13OpenGLProgramE.cold.6, symObjAddr: 0xE8D8, symBinAddr: 0x10034C12C, symSize: 0x3C }
  - { offset: 0x2A025, size: 0x8, addend: 0x0, symName: __ZN10dmGraphicsL15BuildAttributesEPNS_13OpenGLProgramE.cold.5, symObjAddr: 0xE89C, symBinAddr: 0x10034C0F0, symSize: 0x3C }
  - { offset: 0x2A03D, size: 0x8, addend: 0x0, symName: __ZN10dmGraphicsL15BuildAttributesEPNS_13OpenGLProgramE.cold.2, symObjAddr: 0xE818, symBinAddr: 0x10034C0B4, symSize: 0x3C }
  - { offset: 0x2A31A, size: 0x8, addend: 0x0, symName: __ZN10dmGraphicsL12ReloadShaderEPNS_13OpenGLContextEPNS_12OpenGLShaderEPNS_10ShaderDesc6ShaderEj.cold.1, symObjAddr: 0xE9A4, symBinAddr: 0x10034C168, symSize: 0x3C }
  - { offset: 0x2A348, size: 0x8, addend: 0x0, symName: __ZN10dmGraphicsL12ReloadShaderEPNS_13OpenGLContextEPNS_12OpenGLShaderEPNS_10ShaderDesc6ShaderEj.cold.2, symObjAddr: 0xE9E0, symBinAddr: 0x10034C1A4, symSize: 0x3C }
  - { offset: 0x2A376, size: 0x8, addend: 0x0, symName: __ZN10dmGraphicsL12ReloadShaderEPNS_13OpenGLContextEPNS_12OpenGLShaderEPNS_10ShaderDesc6ShaderEj.cold.4, symObjAddr: 0xEA58, symBinAddr: 0x10034C21C, symSize: 0x3C }
  - { offset: 0x2A38E, size: 0x8, addend: 0x0, symName: __ZN10dmGraphicsL12ReloadShaderEPNS_13OpenGLContextEPNS_12OpenGLShaderEPNS_10ShaderDesc6ShaderEj.cold.6, symObjAddr: 0xEAB8, symBinAddr: 0x10034C258, symSize: 0x3C }
  - { offset: 0x2A3A6, size: 0x8, addend: 0x0, symName: __ZN10dmGraphicsL12ReloadShaderEPNS_13OpenGLContextEPNS_12OpenGLShaderEPNS_10ShaderDesc6ShaderEj.cold.7, symObjAddr: 0xEAF4, symBinAddr: 0x10034C294, symSize: 0x3C }
  - { offset: 0x2A3BE, size: 0x8, addend: 0x0, symName: __ZN10dmGraphicsL12ReloadShaderEPNS_13OpenGLContextEPNS_12OpenGLShaderEPNS_10ShaderDesc6ShaderEj.cold.3, symObjAddr: 0xEA1C, symBinAddr: 0x10034C1E0, symSize: 0x3C }
  - { offset: 0x2A3EC, size: 0x8, addend: 0x0, symName: __ZN10dmGraphicsL14TryLinkProgramEPji.cold.2, symObjAddr: 0xEB6C, symBinAddr: 0x10034C30C, symSize: 0x3C }
  - { offset: 0x2A404, size: 0x8, addend: 0x0, symName: __ZN10dmGraphicsL14TryLinkProgramEPji.cold.1, symObjAddr: 0xEB30, symBinAddr: 0x10034C2D0, symSize: 0x3C }
  - { offset: 0x2A426, size: 0x8, addend: 0x0, symName: __ZN10dmGraphicsL28CreateRenderTargetAttachmentEPNS_13OpenGLContextERNS_28OpenGLRenderTargetAttachmentENS_14AttachmentTypeERNS_13TextureParamsENS_21TextureCreationParamsEPy.cold.1, symObjAddr: 0xEBA8, symBinAddr: 0x10034C348, symSize: 0x28 }
  - { offset: 0x2A52D, size: 0x8, addend: 0x0, symName: __ZN10dmGraphicsL28ApplyRenderTargetAttachmentsEPNS_15GraphicsContextEPNS_18OpenGLRenderTargetEb.cold.12, symObjAddr: 0xEE00, symBinAddr: 0x10034C49C, symSize: 0x28 }
  - { offset: 0x2A545, size: 0x8, addend: 0x0, symName: __ZN10dmGraphicsL28ApplyRenderTargetAttachmentsEPNS_15GraphicsContextEPNS_18OpenGLRenderTargetEb.cold.7, symObjAddr: 0xED04, symBinAddr: 0x10034C3E8, symSize: 0x3C }
  - { offset: 0x2A55D, size: 0x8, addend: 0x0, symName: __ZN10dmGraphicsL28ApplyRenderTargetAttachmentsEPNS_15GraphicsContextEPNS_18OpenGLRenderTargetEb.cold.3, symObjAddr: 0xEC44, symBinAddr: 0x10034C370, symSize: 0x3C }
  - { offset: 0x2A575, size: 0x8, addend: 0x0, symName: __ZN10dmGraphicsL28ApplyRenderTargetAttachmentsEPNS_15GraphicsContextEPNS_18OpenGLRenderTargetEb.cold.4, symObjAddr: 0xEC80, symBinAddr: 0x10034C3AC, symSize: 0x3C }
  - { offset: 0x2A58D, size: 0x8, addend: 0x0, symName: __ZN10dmGraphicsL28ApplyRenderTargetAttachmentsEPNS_15GraphicsContextEPNS_18OpenGLRenderTargetEb.cold.9, symObjAddr: 0xED64, symBinAddr: 0x10034C424, symSize: 0x3C }
  - { offset: 0x2A5A5, size: 0x8, addend: 0x0, symName: __ZN10dmGraphicsL28ApplyRenderTargetAttachmentsEPNS_15GraphicsContextEPNS_18OpenGLRenderTargetEb.cold.11, symObjAddr: 0xEDC4, symBinAddr: 0x10034C460, symSize: 0x3C }
  - { offset: 0x2A5DA, size: 0x8, addend: 0x0, symName: __ZN10dmGraphicsL28AttachRenderTargetAttachmentEPNS_13OpenGLContextERNS_28OpenGLRenderTargetAttachmentEyPjj.cold.8, symObjAddr: 0xEF5C, symBinAddr: 0x10034C568, symSize: 0x2C }
  - { offset: 0x2A671, size: 0x8, addend: 0x0, symName: __ZN10dmGraphicsL28AttachRenderTargetAttachmentEPNS_13OpenGLContextERNS_28OpenGLRenderTargetAttachmentEyPjj.cold.9, symObjAddr: 0xEF88, symBinAddr: 0x10034C594, symSize: 0x28 }
  - { offset: 0x2A689, size: 0x8, addend: 0x0, symName: __ZN10dmGraphicsL28AttachRenderTargetAttachmentEPNS_13OpenGLContextERNS_28OpenGLRenderTargetAttachmentEyPjj.cold.4, symObjAddr: 0xEEAC, symBinAddr: 0x10034C500, symSize: 0x2C }
  - { offset: 0x2A6A1, size: 0x8, addend: 0x0, symName: __ZN10dmGraphicsL28AttachRenderTargetAttachmentEPNS_13OpenGLContextERNS_28OpenGLRenderTargetAttachmentEyPjj.cold.7, symObjAddr: 0xEF20, symBinAddr: 0x10034C52C, symSize: 0x3C }
  - { offset: 0x2A6B9, size: 0x8, addend: 0x0, symName: __ZN10dmGraphicsL28AttachRenderTargetAttachmentEPNS_13OpenGLContextERNS_28OpenGLRenderTargetAttachmentEyPjj.cold.3, symObjAddr: 0xEE70, symBinAddr: 0x10034C4C4, symSize: 0x3C }
  - { offset: 0x2A7AB, size: 0x8, addend: 0x0, symName: __GLOBAL__sub_I_graphics_opengl.cpp, symObjAddr: 0xF2B0, symBinAddr: 0x100010A1C, symSize: 0x34 }
  - { offset: 0x2A86A, size: 0x8, addend: 0x0, symName: _OUTLINED_FUNCTION_1, symObjAddr: 0xF024, symBinAddr: 0x1000109DC, symSize: 0xC }
  - { offset: 0x2A882, size: 0x8, addend: 0x0, symName: _OUTLINED_FUNCTION_2, symObjAddr: 0xF030, symBinAddr: 0x1000109E8, symSize: 0xC }
  - { offset: 0x2A89A, size: 0x8, addend: 0x0, symName: _OUTLINED_FUNCTION_6, symObjAddr: 0xF054, symBinAddr: 0x1000109F4, symSize: 0x8 }
  - { offset: 0x2A8B2, size: 0x8, addend: 0x0, symName: _OUTLINED_FUNCTION_7, symObjAddr: 0xF05C, symBinAddr: 0x1000109FC, symSize: 0x8 }
  - { offset: 0x2A8CA, size: 0x8, addend: 0x0, symName: _OUTLINED_FUNCTION_8, symObjAddr: 0xF064, symBinAddr: 0x100010A04, symSize: 0x8 }
  - { offset: 0x2A8E2, size: 0x8, addend: 0x0, symName: _OUTLINED_FUNCTION_10, symObjAddr: 0xF074, symBinAddr: 0x100010A0C, symSize: 0x8 }
  - { offset: 0x2A8FA, size: 0x8, addend: 0x0, symName: _OUTLINED_FUNCTION_11, symObjAddr: 0xF07C, symBinAddr: 0x100010A14, symSize: 0x8 }
  - { offset: 0x2AB93, size: 0x8, addend: 0x0, symName: _dmGraphics_Cubemap_right_DEFAULT_VALUE, symObjAddr: 0x9A90, symBinAddr: 0x10053BDA8, symSize: 0x0 }
  - { offset: 0x2ABB7, size: 0x8, addend: 0x0, symName: _dmGraphics_Cubemap_left_DEFAULT_VALUE, symObjAddr: 0x9A94, symBinAddr: 0x10053BDAC, symSize: 0x0 }
  - { offset: 0x2ABCE, size: 0x8, addend: 0x0, symName: _dmGraphics_Cubemap_top_DEFAULT_VALUE, symObjAddr: 0x9A98, symBinAddr: 0x10053BDB0, symSize: 0x0 }
  - { offset: 0x2ABE5, size: 0x8, addend: 0x0, symName: _dmGraphics_Cubemap_bottom_DEFAULT_VALUE, symObjAddr: 0x9A9C, symBinAddr: 0x10053BDB4, symSize: 0x0 }
  - { offset: 0x2ABFC, size: 0x8, addend: 0x0, symName: _dmGraphics_Cubemap_front_DEFAULT_VALUE, symObjAddr: 0x9AA0, symBinAddr: 0x10053BDB8, symSize: 0x0 }
  - { offset: 0x2AC13, size: 0x8, addend: 0x0, symName: _dmGraphics_Cubemap_back_DEFAULT_VALUE, symObjAddr: 0x9AA4, symBinAddr: 0x10053BDBC, symSize: 0x0 }
  - { offset: 0x2AC29, size: 0x8, addend: 0x0, symName: _dmGraphics_Cubemap_FIELDS_DESCRIPTOR, symObjAddr: 0x7A0, symBinAddr: 0x10049A868, symSize: 0x0 }
  - { offset: 0x2AC64, size: 0x8, addend: 0x0, symName: _dmGraphics_Cubemap_DESCRIPTOR, symObjAddr: 0x8C0, symBinAddr: 0x10049A988, symSize: 0x0 }
  - { offset: 0x2B0C6, size: 0x8, addend: 0x0, symName: _dmGraphics_VertexAttribute_LongValues_FIELDS_DESCRIPTOR, symObjAddr: 0x910, symBinAddr: 0x10049A9D0, symSize: 0x0 }
  - { offset: 0x2B0E9, size: 0x8, addend: 0x0, symName: _dmGraphics_VertexAttribute_LongValues_DESCRIPTOR, symObjAddr: 0x940, symBinAddr: 0x10049AA00, symSize: 0x0 }
  - { offset: 0x2B114, size: 0x8, addend: 0x0, symName: _dmGraphics_VertexAttribute_DoubleValues_FIELDS_DESCRIPTOR, symObjAddr: 0x990, symBinAddr: 0x10049AA48, symSize: 0x0 }
  - { offset: 0x2B12A, size: 0x8, addend: 0x0, symName: _dmGraphics_VertexAttribute_DoubleValues_DESCRIPTOR, symObjAddr: 0x9C0, symBinAddr: 0x10049AA78, symSize: 0x0 }
  - { offset: 0x2B141, size: 0x8, addend: 0x0, symName: _dmGraphics_VertexAttribute_name_DEFAULT_VALUE, symObjAddr: 0x9AA8, symBinAddr: 0x10053BDC0, symSize: 0x0 }
  - { offset: 0x2B158, size: 0x8, addend: 0x0, symName: _dmGraphics_VertexAttribute_semantic_type_DEFAULT_VALUE, symObjAddr: 0xA10, symBinAddr: 0x10049AAC0, symSize: 0x0 }
  - { offset: 0x2B17C, size: 0x8, addend: 0x0, symName: _dmGraphics_VertexAttribute_element_count_DEFAULT_VALUE, symObjAddr: 0x9AAC, symBinAddr: 0x10053BDC4, symSize: 0x0 }
  - { offset: 0x2B193, size: 0x8, addend: 0x0, symName: _dmGraphics_VertexAttribute_normalize_DEFAULT_VALUE, symObjAddr: 0x9AB4, symBinAddr: 0x10053BDCC, symSize: 0x0 }
  - { offset: 0x2B1AA, size: 0x8, addend: 0x0, symName: _dmGraphics_VertexAttribute_data_type_DEFAULT_VALUE, symObjAddr: 0xA18, symBinAddr: 0x10049AAC8, symSize: 0x0 }
  - { offset: 0x2B1C1, size: 0x8, addend: 0x0, symName: _dmGraphics_VertexAttribute_coordinate_space_DEFAULT_VALUE, symObjAddr: 0xA20, symBinAddr: 0x10049AAD0, symSize: 0x0 }
  - { offset: 0x2B1D8, size: 0x8, addend: 0x0, symName: _dmGraphics_VertexAttribute_step_function_DEFAULT_VALUE, symObjAddr: 0x9AB8, symBinAddr: 0x10053BDD0, symSize: 0x0 }
  - { offset: 0x2B1EF, size: 0x8, addend: 0x0, symName: _dmGraphics_VertexAttribute_vector_type_DEFAULT_VALUE, symObjAddr: 0xA28, symBinAddr: 0x10049AAD8, symSize: 0x0 }
  - { offset: 0x2B205, size: 0x8, addend: 0x0, symName: _dmGraphics_VertexAttribute_FIELDS_DESCRIPTOR, symObjAddr: 0xA30, symBinAddr: 0x10049AAE0, symSize: 0x0 }
  - { offset: 0x2B228, size: 0x8, addend: 0x0, symName: _dmGraphics_VertexAttribute_ONEOF_OFFSETS, symObjAddr: 0xC70, symBinAddr: 0x10049AD20, symSize: 0x0 }
  - { offset: 0x2B24B, size: 0x8, addend: 0x0, symName: _dmGraphics_VertexAttribute_DESCRIPTOR, symObjAddr: 0xC78, symBinAddr: 0x10049AD28, symSize: 0x0 }
  - { offset: 0x2B262, size: 0x8, addend: 0x0, symName: _dmGraphics_TextureImage_Image_depth_DEFAULT_VALUE, symObjAddr: 0xCC8, symBinAddr: 0x10049AD70, symSize: 0x0 }
  - { offset: 0x2B279, size: 0x8, addend: 0x0, symName: _dmGraphics_TextureImage_Image_original_depth_DEFAULT_VALUE, symObjAddr: 0xCD0, symBinAddr: 0x10049AD78, symSize: 0x0 }
  - { offset: 0x2B290, size: 0x8, addend: 0x0, symName: _dmGraphics_TextureImage_Image_compression_type_DEFAULT_VALUE, symObjAddr: 0x9AC0, symBinAddr: 0x10053BDD8, symSize: 0x0 }
  - { offset: 0x2B2A6, size: 0x8, addend: 0x0, symName: _dmGraphics_TextureImage_Image_FIELDS_DESCRIPTOR, symObjAddr: 0xCD8, symBinAddr: 0x10049AD80, symSize: 0x0 }
  - { offset: 0x2B2C9, size: 0x8, addend: 0x0, symName: _dmGraphics_TextureImage_Image_DESCRIPTOR, symObjAddr: 0xF48, symBinAddr: 0x10049AFF0, symSize: 0x0 }
  - { offset: 0x2B34E, size: 0x8, addend: 0x0, symName: _dmGraphics_TextureImage_usage_flags_DEFAULT_VALUE, symObjAddr: 0xF98, symBinAddr: 0x10049B038, symSize: 0x0 }
  - { offset: 0x2B364, size: 0x8, addend: 0x0, symName: _dmGraphics_TextureImage_FIELDS_DESCRIPTOR, symObjAddr: 0xFA0, symBinAddr: 0x10049B040, symSize: 0x0 }
  - { offset: 0x2B387, size: 0x8, addend: 0x0, symName: _dmGraphics_TextureImage_DESCRIPTOR, symObjAddr: 0x1090, symBinAddr: 0x10049B130, symSize: 0x0 }
  - { offset: 0x2B397, size: 0x8, addend: 0x0, symName: __ZN10dmGraphics12TextureImage15m_DDFDescriptorE, symObjAddr: 0x10D8, symBinAddr: 0x10049B178, symSize: 0x0 }
  - { offset: 0x2B3B2, size: 0x8, addend: 0x0, symName: _dmGraphics_TextureFormatAlternative_compression_type_DEFAULT_VALUE, symObjAddr: 0x9AC8, symBinAddr: 0x10053BDE0, symSize: 0x0 }
  - { offset: 0x2B3C9, size: 0x8, addend: 0x0, symName: _dmGraphics_TextureFormatAlternative_compressor_DEFAULT_VALUE, symObjAddr: 0x9AD0, symBinAddr: 0x10053BDE8, symSize: 0x0 }
  - { offset: 0x2B3E0, size: 0x8, addend: 0x0, symName: _dmGraphics_TextureFormatAlternative_compressor_preset_DEFAULT_VALUE, symObjAddr: 0x9AD4, symBinAddr: 0x10053BDEC, symSize: 0x0 }
  - { offset: 0x2B3F6, size: 0x8, addend: 0x0, symName: _dmGraphics_TextureFormatAlternative_FIELDS_DESCRIPTOR, symObjAddr: 0x10E0, symBinAddr: 0x10049B180, symSize: 0x0 }
  - { offset: 0x2B40D, size: 0x8, addend: 0x0, symName: _dmGraphics_TextureFormatAlternative_DESCRIPTOR, symObjAddr: 0x11D0, symBinAddr: 0x10049B270, symSize: 0x0 }
  - { offset: 0x2B425, size: 0x8, addend: 0x0, symName: _dmGraphics_PathSettings_path_DEFAULT_VALUE, symObjAddr: 0x9AD8, symBinAddr: 0x10053BDF0, symSize: 0x0 }
  - { offset: 0x2B43D, size: 0x8, addend: 0x0, symName: _dmGraphics_PathSettings_profile_DEFAULT_VALUE, symObjAddr: 0x9ADC, symBinAddr: 0x10053BDF4, symSize: 0x0 }
  - { offset: 0x2B454, size: 0x8, addend: 0x0, symName: _dmGraphics_PathSettings_FIELDS_DESCRIPTOR, symObjAddr: 0x1220, symBinAddr: 0x10049B2B8, symSize: 0x0 }
  - { offset: 0x2B478, size: 0x8, addend: 0x0, symName: _dmGraphics_PathSettings_DESCRIPTOR, symObjAddr: 0x1280, symBinAddr: 0x10049B318, symSize: 0x0 }
  - { offset: 0x2B490, size: 0x8, addend: 0x0, symName: _dmGraphics_PlatformProfile_premultiply_alpha_DEFAULT_VALUE, symObjAddr: 0x12D0, symBinAddr: 0x10049B360, symSize: 0x0 }
  - { offset: 0x2B4A7, size: 0x8, addend: 0x0, symName: _dmGraphics_PlatformProfile_FIELDS_DESCRIPTOR, symObjAddr: 0x12D8, symBinAddr: 0x10049B368, symSize: 0x0 }
  - { offset: 0x2B4BE, size: 0x8, addend: 0x0, symName: _dmGraphics_PlatformProfile_DESCRIPTOR, symObjAddr: 0x13C8, symBinAddr: 0x10049B458, symSize: 0x0 }
  - { offset: 0x2B4D6, size: 0x8, addend: 0x0, symName: _dmGraphics_TextureProfile_name_DEFAULT_VALUE, symObjAddr: 0x9AE0, symBinAddr: 0x10053BDF8, symSize: 0x0 }
  - { offset: 0x2B4ED, size: 0x8, addend: 0x0, symName: _dmGraphics_TextureProfile_FIELDS_DESCRIPTOR, symObjAddr: 0x1418, symBinAddr: 0x10049B4A0, symSize: 0x0 }
  - { offset: 0x2B504, size: 0x8, addend: 0x0, symName: _dmGraphics_TextureProfile_DESCRIPTOR, symObjAddr: 0x1478, symBinAddr: 0x10049B500, symSize: 0x0 }
  - { offset: 0x2B51B, size: 0x8, addend: 0x0, symName: _dmGraphics_TextureProfiles_FIELDS_DESCRIPTOR, symObjAddr: 0x14C8, symBinAddr: 0x10049B548, symSize: 0x0 }
  - { offset: 0x2B532, size: 0x8, addend: 0x0, symName: _dmGraphics_TextureProfiles_DESCRIPTOR, symObjAddr: 0x1528, symBinAddr: 0x10049B5A8, symSize: 0x0 }
  - { offset: 0x2B549, size: 0x8, addend: 0x0, symName: _dmGraphics_ShaderDesc_ResourceType_FIELDS_DESCRIPTOR, symObjAddr: 0x1578, symBinAddr: 0x10049B5F0, symSize: 0x0 }
  - { offset: 0x2B56D, size: 0x8, addend: 0x0, symName: _dmGraphics_ShaderDesc_ResourceType_ONEOF_OFFSETS, symObjAddr: 0x1608, symBinAddr: 0x10049B680, symSize: 0x0 }
  - { offset: 0x2B584, size: 0x8, addend: 0x0, symName: _dmGraphics_ShaderDesc_ResourceType_DESCRIPTOR, symObjAddr: 0x1610, symBinAddr: 0x10049B688, symSize: 0x0 }
  - { offset: 0x2B59C, size: 0x8, addend: 0x0, symName: _dmGraphics_ShaderDesc_ResourceMember_name_DEFAULT_VALUE, symObjAddr: 0x9AE4, symBinAddr: 0x10053BDFC, symSize: 0x0 }
  - { offset: 0x2B5B3, size: 0x8, addend: 0x0, symName: _dmGraphics_ShaderDesc_ResourceMember_FIELDS_DESCRIPTOR, symObjAddr: 0x1660, symBinAddr: 0x10049B6D0, symSize: 0x0 }
  - { offset: 0x2B5CA, size: 0x8, addend: 0x0, symName: _dmGraphics_ShaderDesc_ResourceMember_DESCRIPTOR, symObjAddr: 0x1750, symBinAddr: 0x10049B7C0, symSize: 0x0 }
  - { offset: 0x2B5E2, size: 0x8, addend: 0x0, symName: _dmGraphics_ShaderDesc_ResourceTypeInfo_name_DEFAULT_VALUE, symObjAddr: 0x9AE8, symBinAddr: 0x10053BE00, symSize: 0x0 }
  - { offset: 0x2B5F9, size: 0x8, addend: 0x0, symName: _dmGraphics_ShaderDesc_ResourceTypeInfo_FIELDS_DESCRIPTOR, symObjAddr: 0x17A0, symBinAddr: 0x10049B808, symSize: 0x0 }
  - { offset: 0x2B610, size: 0x8, addend: 0x0, symName: _dmGraphics_ShaderDesc_ResourceTypeInfo_DESCRIPTOR, symObjAddr: 0x1830, symBinAddr: 0x10049B898, symSize: 0x0 }
  - { offset: 0x2B628, size: 0x8, addend: 0x0, symName: _dmGraphics_ShaderDesc_ResourceBinding_name_DEFAULT_VALUE, symObjAddr: 0x9AEC, symBinAddr: 0x10053BE04, symSize: 0x0 }
  - { offset: 0x2B640, size: 0x8, addend: 0x0, symName: _dmGraphics_ShaderDesc_ResourceBinding_instance_name_DEFAULT_VALUE, symObjAddr: 0x9AF0, symBinAddr: 0x10053BE08, symSize: 0x0 }
  - { offset: 0x2B657, size: 0x8, addend: 0x0, symName: _dmGraphics_ShaderDesc_ResourceBinding_FIELDS_DESCRIPTOR, symObjAddr: 0x1880, symBinAddr: 0x10049B8E0, symSize: 0x0 }
  - { offset: 0x2B66E, size: 0x8, addend: 0x0, symName: _dmGraphics_ShaderDesc_ResourceBinding_ONEOF_OFFSETS, symObjAddr: 0x1AC0, symBinAddr: 0x10049BB20, symSize: 0x0 }
  - { offset: 0x2B685, size: 0x8, addend: 0x0, symName: _dmGraphics_ShaderDesc_ResourceBinding_DESCRIPTOR, symObjAddr: 0x1AC8, symBinAddr: 0x10049BB28, symSize: 0x0 }
  - { offset: 0x2B69C, size: 0x8, addend: 0x0, symName: _dmGraphics_ShaderDesc_ShaderReflection_FIELDS_DESCRIPTOR, symObjAddr: 0x1B18, symBinAddr: 0x10049BB70, symSize: 0x0 }
  - { offset: 0x2B6B3, size: 0x8, addend: 0x0, symName: _dmGraphics_ShaderDesc_ShaderReflection_DESCRIPTOR, symObjAddr: 0x1C38, symBinAddr: 0x10049BC90, symSize: 0x0 }
  - { offset: 0x2B6CA, size: 0x8, addend: 0x0, symName: _dmGraphics_ShaderDesc_HLSLResourceMapping_FIELDS_DESCRIPTOR, symObjAddr: 0x1C88, symBinAddr: 0x10049BCD8, symSize: 0x0 }
  - { offset: 0x2B6E1, size: 0x8, addend: 0x0, symName: _dmGraphics_ShaderDesc_HLSLResourceMapping_DESCRIPTOR, symObjAddr: 0x1D18, symBinAddr: 0x10049BD68, symSize: 0x0 }
  - { offset: 0x2B6F9, size: 0x8, addend: 0x0, symName: _dmGraphics_ShaderDesc_Shader_variant_texture_array_DEFAULT_VALUE, symObjAddr: 0x9AF4, symBinAddr: 0x10053BE0C, symSize: 0x0 }
  - { offset: 0x2B710, size: 0x8, addend: 0x0, symName: _dmGraphics_ShaderDesc_Shader_FIELDS_DESCRIPTOR, symObjAddr: 0x1D68, symBinAddr: 0x10049BDB0, symSize: 0x0 }
  - { offset: 0x2B727, size: 0x8, addend: 0x0, symName: _dmGraphics_ShaderDesc_Shader_DESCRIPTOR, symObjAddr: 0x1E58, symBinAddr: 0x10049BEA0, symSize: 0x0 }
  - { offset: 0x2B73E, size: 0x8, addend: 0x0, symName: _dmGraphics_ShaderDesc_FIELDS_DESCRIPTOR, symObjAddr: 0x1EA8, symBinAddr: 0x10049BEE8, symSize: 0x0 }
  - { offset: 0x2B755, size: 0x8, addend: 0x0, symName: _dmGraphics_ShaderDesc_DESCRIPTOR, symObjAddr: 0x1F38, symBinAddr: 0x10049BF78, symSize: 0x0 }
  - { offset: 0x2B765, size: 0x8, addend: 0x0, symName: __ZN10dmGraphics10ShaderDesc15m_DDFDescriptorE, symObjAddr: 0x1F80, symBinAddr: 0x10049BFC0, symSize: 0x0 }
  - { offset: 0x2B780, size: 0x8, addend: 0x0, symName: __ZL23g_Register_graphics_ddf, symObjAddr: 0x9AF6, symBinAddr: 0x100527D98, symSize: 0x0 }
  - { offset: 0x2B7A5, size: 0x8, addend: 0x0, symName: __ZL35g_Register_graphics_ddf_DESCRIPTORS, symObjAddr: 0x1F88, symBinAddr: 0x10049BFC8, symSize: 0x0 }
  - { offset: 0x2B7C7, size: 0x8, addend: 0x0, symName: __GLOBAL__sub_I_graphics_ddf.cpp, symObjAddr: 0x4, symBinAddr: 0x100010A50, symSize: 0x18 }
  - { offset: 0x2B7DE, size: 0x8, addend: 0x0, symName: __GLOBAL__sub_I_graphics_ddf.cpp, symObjAddr: 0x4, symBinAddr: 0x100010A50, symSize: 0x18 }
  - { offset: 0x2B815, size: 0x8, addend: 0x0, symName: _WindowCreateParamsInitialize, symObjAddr: 0x0, symBinAddr: 0x100010A68, symSize: 0x3C }
  - { offset: 0x2B87B, size: 0x8, addend: 0x0, symName: _WindowCreateParamsInitialize, symObjAddr: 0x0, symBinAddr: 0x100010A68, symSize: 0x3C }
  - { offset: 0x2BA77, size: 0x8, addend: 0x0, symName: __ZN10dmPlatform9NewWindowEv, symObjAddr: 0x0, symBinAddr: 0x100010AA4, symSize: 0x88 }
  - { offset: 0x2BAAA, size: 0x8, addend: 0x0, symName: __ZN10dmPlatform18PLATFORM_KEY_STARTE, symObjAddr: 0xE6C, symBinAddr: 0x1003A0A28, symSize: 0x0 }
  - { offset: 0x2BAC5, size: 0x8, addend: 0x0, symName: __ZN10dmPlatform16PLATFORM_KEY_ESCE, symObjAddr: 0xE74, symBinAddr: 0x1003A0A2C, symSize: 0x0 }
  - { offset: 0x2BAE0, size: 0x8, addend: 0x0, symName: __ZN10dmPlatform15PLATFORM_KEY_F1E, symObjAddr: 0xE78, symBinAddr: 0x1003A0A30, symSize: 0x0 }
  - { offset: 0x2BAFB, size: 0x8, addend: 0x0, symName: __ZN10dmPlatform15PLATFORM_KEY_F2E, symObjAddr: 0xE7C, symBinAddr: 0x1003A0A34, symSize: 0x0 }
  - { offset: 0x2BB16, size: 0x8, addend: 0x0, symName: __ZN10dmPlatform15PLATFORM_KEY_F3E, symObjAddr: 0xE80, symBinAddr: 0x1003A0A38, symSize: 0x0 }
  - { offset: 0x2BB31, size: 0x8, addend: 0x0, symName: __ZN10dmPlatform15PLATFORM_KEY_F4E, symObjAddr: 0xE84, symBinAddr: 0x1003A0A3C, symSize: 0x0 }
  - { offset: 0x2BB4C, size: 0x8, addend: 0x0, symName: __ZN10dmPlatform15PLATFORM_KEY_F5E, symObjAddr: 0xE88, symBinAddr: 0x1003A0A40, symSize: 0x0 }
  - { offset: 0x2BB67, size: 0x8, addend: 0x0, symName: __ZN10dmPlatform15PLATFORM_KEY_F6E, symObjAddr: 0xE8C, symBinAddr: 0x1003A0A44, symSize: 0x0 }
  - { offset: 0x2BB82, size: 0x8, addend: 0x0, symName: __ZN10dmPlatform15PLATFORM_KEY_F7E, symObjAddr: 0xE90, symBinAddr: 0x1003A0A48, symSize: 0x0 }
  - { offset: 0x2BB9D, size: 0x8, addend: 0x0, symName: __ZN10dmPlatform15PLATFORM_KEY_F8E, symObjAddr: 0xE94, symBinAddr: 0x1003A0A4C, symSize: 0x0 }
  - { offset: 0x2BBB8, size: 0x8, addend: 0x0, symName: __ZN10dmPlatform15PLATFORM_KEY_F9E, symObjAddr: 0xE98, symBinAddr: 0x1003A0A50, symSize: 0x0 }
  - { offset: 0x2BBD3, size: 0x8, addend: 0x0, symName: __ZN10dmPlatform16PLATFORM_KEY_F10E, symObjAddr: 0xE9C, symBinAddr: 0x1003A0A54, symSize: 0x0 }
  - { offset: 0x2BBEE, size: 0x8, addend: 0x0, symName: __ZN10dmPlatform16PLATFORM_KEY_F11E, symObjAddr: 0xEA0, symBinAddr: 0x1003A0A58, symSize: 0x0 }
  - { offset: 0x2BC09, size: 0x8, addend: 0x0, symName: __ZN10dmPlatform16PLATFORM_KEY_F12E, symObjAddr: 0xEA4, symBinAddr: 0x1003A0A5C, symSize: 0x0 }
  - { offset: 0x2BC24, size: 0x8, addend: 0x0, symName: __ZN10dmPlatform15PLATFORM_KEY_UPE, symObjAddr: 0xEA8, symBinAddr: 0x1003A0A60, symSize: 0x0 }
  - { offset: 0x2BC3F, size: 0x8, addend: 0x0, symName: __ZN10dmPlatform17PLATFORM_KEY_DOWNE, symObjAddr: 0xEAC, symBinAddr: 0x1003A0A64, symSize: 0x0 }
  - { offset: 0x2BC5A, size: 0x8, addend: 0x0, symName: __ZN10dmPlatform17PLATFORM_KEY_LEFTE, symObjAddr: 0xEB0, symBinAddr: 0x1003A0A68, symSize: 0x0 }
  - { offset: 0x2BC75, size: 0x8, addend: 0x0, symName: __ZN10dmPlatform18PLATFORM_KEY_RIGHTE, symObjAddr: 0xEB4, symBinAddr: 0x1003A0A6C, symSize: 0x0 }
  - { offset: 0x2BC90, size: 0x8, addend: 0x0, symName: __ZN10dmPlatform19PLATFORM_KEY_LSHIFTE, symObjAddr: 0xEB8, symBinAddr: 0x1003A0A70, symSize: 0x0 }
  - { offset: 0x2BCAB, size: 0x8, addend: 0x0, symName: __ZN10dmPlatform19PLATFORM_KEY_RSHIFTE, symObjAddr: 0xEBC, symBinAddr: 0x1003A0A74, symSize: 0x0 }
  - { offset: 0x2BCC6, size: 0x8, addend: 0x0, symName: __ZN10dmPlatform18PLATFORM_KEY_LCTRLE, symObjAddr: 0xEC0, symBinAddr: 0x1003A0A78, symSize: 0x0 }
  - { offset: 0x2BCE1, size: 0x8, addend: 0x0, symName: __ZN10dmPlatform18PLATFORM_KEY_RCTRLE, symObjAddr: 0xEC4, symBinAddr: 0x1003A0A7C, symSize: 0x0 }
  - { offset: 0x2BCFC, size: 0x8, addend: 0x0, symName: __ZN10dmPlatform17PLATFORM_KEY_LALTE, symObjAddr: 0xEC8, symBinAddr: 0x1003A0A80, symSize: 0x0 }
  - { offset: 0x2BD17, size: 0x8, addend: 0x0, symName: __ZN10dmPlatform17PLATFORM_KEY_RALTE, symObjAddr: 0xECC, symBinAddr: 0x1003A0A84, symSize: 0x0 }
  - { offset: 0x2BD32, size: 0x8, addend: 0x0, symName: __ZN10dmPlatform16PLATFORM_KEY_TABE, symObjAddr: 0xED0, symBinAddr: 0x1003A0A88, symSize: 0x0 }
  - { offset: 0x2BD4D, size: 0x8, addend: 0x0, symName: __ZN10dmPlatform18PLATFORM_KEY_ENTERE, symObjAddr: 0xED4, symBinAddr: 0x1003A0A8C, symSize: 0x0 }
  - { offset: 0x2BD68, size: 0x8, addend: 0x0, symName: __ZN10dmPlatform22PLATFORM_KEY_BACKSPACEE, symObjAddr: 0xED8, symBinAddr: 0x1003A0A90, symSize: 0x0 }
  - { offset: 0x2BD83, size: 0x8, addend: 0x0, symName: __ZN10dmPlatform19PLATFORM_KEY_INSERTE, symObjAddr: 0xEDC, symBinAddr: 0x1003A0A94, symSize: 0x0 }
  - { offset: 0x2BD9E, size: 0x8, addend: 0x0, symName: __ZN10dmPlatform16PLATFORM_KEY_DELE, symObjAddr: 0xEE0, symBinAddr: 0x1003A0A98, symSize: 0x0 }
  - { offset: 0x2BDB9, size: 0x8, addend: 0x0, symName: __ZN10dmPlatform19PLATFORM_KEY_PAGEUPE, symObjAddr: 0xEE4, symBinAddr: 0x1003A0A9C, symSize: 0x0 }
  - { offset: 0x2BDD4, size: 0x8, addend: 0x0, symName: __ZN10dmPlatform21PLATFORM_KEY_PAGEDOWNE, symObjAddr: 0xEE8, symBinAddr: 0x1003A0AA0, symSize: 0x0 }
  - { offset: 0x2BDEF, size: 0x8, addend: 0x0, symName: __ZN10dmPlatform17PLATFORM_KEY_HOMEE, symObjAddr: 0xEEC, symBinAddr: 0x1003A0AA4, symSize: 0x0 }
  - { offset: 0x2BE0A, size: 0x8, addend: 0x0, symName: __ZN10dmPlatform16PLATFORM_KEY_ENDE, symObjAddr: 0xEF0, symBinAddr: 0x1003A0AA8, symSize: 0x0 }
  - { offset: 0x2BE25, size: 0x8, addend: 0x0, symName: __ZN10dmPlatform17PLATFORM_KEY_KP_0E, symObjAddr: 0xEF4, symBinAddr: 0x1003A0AAC, symSize: 0x0 }
  - { offset: 0x2BE40, size: 0x8, addend: 0x0, symName: __ZN10dmPlatform17PLATFORM_KEY_KP_1E, symObjAddr: 0xEF8, symBinAddr: 0x1003A0AB0, symSize: 0x0 }
  - { offset: 0x2BE5B, size: 0x8, addend: 0x0, symName: __ZN10dmPlatform17PLATFORM_KEY_KP_2E, symObjAddr: 0xEFC, symBinAddr: 0x1003A0AB4, symSize: 0x0 }
  - { offset: 0x2BE76, size: 0x8, addend: 0x0, symName: __ZN10dmPlatform17PLATFORM_KEY_KP_3E, symObjAddr: 0xF00, symBinAddr: 0x1003A0AB8, symSize: 0x0 }
  - { offset: 0x2BE91, size: 0x8, addend: 0x0, symName: __ZN10dmPlatform17PLATFORM_KEY_KP_4E, symObjAddr: 0xF04, symBinAddr: 0x1003A0ABC, symSize: 0x0 }
  - { offset: 0x2BEAC, size: 0x8, addend: 0x0, symName: __ZN10dmPlatform17PLATFORM_KEY_KP_5E, symObjAddr: 0xF08, symBinAddr: 0x1003A0AC0, symSize: 0x0 }
  - { offset: 0x2BEC7, size: 0x8, addend: 0x0, symName: __ZN10dmPlatform17PLATFORM_KEY_KP_6E, symObjAddr: 0xF0C, symBinAddr: 0x1003A0AC4, symSize: 0x0 }
  - { offset: 0x2BEE2, size: 0x8, addend: 0x0, symName: __ZN10dmPlatform17PLATFORM_KEY_KP_7E, symObjAddr: 0xF10, symBinAddr: 0x1003A0AC8, symSize: 0x0 }
  - { offset: 0x2BEFD, size: 0x8, addend: 0x0, symName: __ZN10dmPlatform17PLATFORM_KEY_KP_8E, symObjAddr: 0xF14, symBinAddr: 0x1003A0ACC, symSize: 0x0 }
  - { offset: 0x2BF18, size: 0x8, addend: 0x0, symName: __ZN10dmPlatform17PLATFORM_KEY_KP_9E, symObjAddr: 0xF18, symBinAddr: 0x1003A0AD0, symSize: 0x0 }
  - { offset: 0x2BF33, size: 0x8, addend: 0x0, symName: __ZN10dmPlatform22PLATFORM_KEY_KP_DIVIDEE, symObjAddr: 0xF1C, symBinAddr: 0x1003A0AD4, symSize: 0x0 }
  - { offset: 0x2BF4E, size: 0x8, addend: 0x0, symName: __ZN10dmPlatform24PLATFORM_KEY_KP_MULTIPLYE, symObjAddr: 0xF20, symBinAddr: 0x1003A0AD8, symSize: 0x0 }
  - { offset: 0x2BF69, size: 0x8, addend: 0x0, symName: __ZN10dmPlatform24PLATFORM_KEY_KP_SUBTRACTE, symObjAddr: 0xF24, symBinAddr: 0x1003A0ADC, symSize: 0x0 }
  - { offset: 0x2BF84, size: 0x8, addend: 0x0, symName: __ZN10dmPlatform19PLATFORM_KEY_KP_ADDE, symObjAddr: 0xF28, symBinAddr: 0x1003A0AE0, symSize: 0x0 }
  - { offset: 0x2BF9F, size: 0x8, addend: 0x0, symName: __ZN10dmPlatform23PLATFORM_KEY_KP_DECIMALE, symObjAddr: 0xF2C, symBinAddr: 0x1003A0AE4, symSize: 0x0 }
  - { offset: 0x2BFBA, size: 0x8, addend: 0x0, symName: __ZN10dmPlatform21PLATFORM_KEY_KP_EQUALE, symObjAddr: 0xF30, symBinAddr: 0x1003A0AE8, symSize: 0x0 }
  - { offset: 0x2BFD5, size: 0x8, addend: 0x0, symName: __ZN10dmPlatform21PLATFORM_KEY_KP_ENTERE, symObjAddr: 0xF34, symBinAddr: 0x1003A0AEC, symSize: 0x0 }
  - { offset: 0x2BFF0, size: 0x8, addend: 0x0, symName: __ZN10dmPlatform24PLATFORM_KEY_KP_NUM_LOCKE, symObjAddr: 0xF38, symBinAddr: 0x1003A0AF0, symSize: 0x0 }
  - { offset: 0x2C00B, size: 0x8, addend: 0x0, symName: __ZN10dmPlatform22PLATFORM_KEY_CAPS_LOCKE, symObjAddr: 0xF3C, symBinAddr: 0x1003A0AF4, symSize: 0x0 }
  - { offset: 0x2C026, size: 0x8, addend: 0x0, symName: __ZN10dmPlatform24PLATFORM_KEY_SCROLL_LOCKE, symObjAddr: 0xF40, symBinAddr: 0x1003A0AF8, symSize: 0x0 }
  - { offset: 0x2C041, size: 0x8, addend: 0x0, symName: __ZN10dmPlatform18PLATFORM_KEY_PAUSEE, symObjAddr: 0xF44, symBinAddr: 0x1003A0AFC, symSize: 0x0 }
  - { offset: 0x2C05C, size: 0x8, addend: 0x0, symName: __ZN10dmPlatform19PLATFORM_KEY_LSUPERE, symObjAddr: 0xF48, symBinAddr: 0x1003A0B00, symSize: 0x0 }
  - { offset: 0x2C077, size: 0x8, addend: 0x0, symName: __ZN10dmPlatform19PLATFORM_KEY_RSUPERE, symObjAddr: 0xF4C, symBinAddr: 0x1003A0B04, symSize: 0x0 }
  - { offset: 0x2C092, size: 0x8, addend: 0x0, symName: __ZN10dmPlatform17PLATFORM_KEY_MENUE, symObjAddr: 0xF50, symBinAddr: 0x1003A0B08, symSize: 0x0 }
  - { offset: 0x2C0AD, size: 0x8, addend: 0x0, symName: __ZN10dmPlatform17PLATFORM_KEY_BACKE, symObjAddr: 0xF54, symBinAddr: 0x1003A0B0C, symSize: 0x0 }
  - { offset: 0x2C0C8, size: 0x8, addend: 0x0, symName: __ZN10dmPlatform26PLATFORM_MOUSE_BUTTON_LEFTE, symObjAddr: 0xF58, symBinAddr: 0x1003A0B10, symSize: 0x0 }
  - { offset: 0x2C0E3, size: 0x8, addend: 0x0, symName: __ZN10dmPlatform28PLATFORM_MOUSE_BUTTON_MIDDLEE, symObjAddr: 0xF5C, symBinAddr: 0x1003A0B14, symSize: 0x0 }
  - { offset: 0x2C0FE, size: 0x8, addend: 0x0, symName: __ZN10dmPlatform27PLATFORM_MOUSE_BUTTON_RIGHTE, symObjAddr: 0xF60, symBinAddr: 0x1003A0B18, symSize: 0x0 }
  - { offset: 0x2C119, size: 0x8, addend: 0x0, symName: __ZN10dmPlatform23PLATFORM_MOUSE_BUTTON_4E, symObjAddr: 0xF70, symBinAddr: 0x1003A0B1C, symSize: 0x0 }
  - { offset: 0x2C134, size: 0x8, addend: 0x0, symName: __ZN10dmPlatform23PLATFORM_MOUSE_BUTTON_5E, symObjAddr: 0xF74, symBinAddr: 0x1003A0B20, symSize: 0x0 }
  - { offset: 0x2C14F, size: 0x8, addend: 0x0, symName: __ZN10dmPlatform23PLATFORM_MOUSE_BUTTON_6E, symObjAddr: 0xF78, symBinAddr: 0x1003A0B24, symSize: 0x0 }
  - { offset: 0x2C16A, size: 0x8, addend: 0x0, symName: __ZN10dmPlatform23PLATFORM_MOUSE_BUTTON_7E, symObjAddr: 0xF7C, symBinAddr: 0x1003A0B28, symSize: 0x0 }
  - { offset: 0x2C185, size: 0x8, addend: 0x0, symName: __ZN10dmPlatform23PLATFORM_MOUSE_BUTTON_8E, symObjAddr: 0xF80, symBinAddr: 0x1003A0B2C, symSize: 0x0 }
  - { offset: 0x2C19E, size: 0x8, addend: 0x0, symName: __ZN10dmPlatformL14g_GLFW3ContextE, symObjAddr: 0xDFA8, symBinAddr: 0x100527DA0, symSize: 0x0 }
  - { offset: 0x2C1CD, size: 0x8, addend: 0x0, symName: __ZN10dmPlatform9NewWindowEv, symObjAddr: 0x0, symBinAddr: 0x100010AA4, symSize: 0x88 }
  - { offset: 0x2C23C, size: 0x8, addend: 0x0, symName: __ZN10dmPlatformL7OnErrorEiPKc, symObjAddr: 0x88, symBinAddr: 0x100010B2C, symSize: 0x38 }
  - { offset: 0x2C284, size: 0x8, addend: 0x0, symName: __ZN10dmPlatform12DeleteWindowEP8dmWindow, symObjAddr: 0xC0, symBinAddr: 0x100010B64, symSize: 0x18 }
  - { offset: 0x2C2BB, size: 0x8, addend: 0x0, symName: __ZN10dmPlatform29OpenGLGetDefaultFramebufferIdEv, symObjAddr: 0xD8, symBinAddr: 0x100010B7C, symSize: 0x8 }
  - { offset: 0x2C402, size: 0x8, addend: 0x0, symName: __ZN10dmPlatform10OpenWindowEP8dmWindowRK18WindowCreateParams, symObjAddr: 0xE0, symBinAddr: 0x100010B84, symSize: 0x3FC }
  - { offset: 0x2C85E, size: 0x8, addend: 0x0, symName: __ZN10dmPlatformL14OnWindowResizeEP10GLFWwindowii, symObjAddr: 0x4DC, symBinAddr: 0x100010F80, symSize: 0x5C }
  - { offset: 0x2C8A0, size: 0x8, addend: 0x0, symName: __ZN10dmPlatformL14OnWindowResizeEP10GLFWwindowii, symObjAddr: 0x4DC, symBinAddr: 0x100010F80, symSize: 0x5C }
  - { offset: 0x2C947, size: 0x8, addend: 0x0, symName: __ZN10dmPlatformL13OnWindowCloseEP10GLFWwindow, symObjAddr: 0x538, symBinAddr: 0x100010FDC, symSize: 0x28 }
  - { offset: 0x2C9A1, size: 0x8, addend: 0x0, symName: __ZN10dmPlatformL13OnWindowFocusEP10GLFWwindowi, symObjAddr: 0x560, symBinAddr: 0x100011004, symSize: 0x3C }
  - { offset: 0x2CA0A, size: 0x8, addend: 0x0, symName: __ZN10dmPlatformL15OnWindowIconifyEP10GLFWwindowi, symObjAddr: 0x59C, symBinAddr: 0x100011040, symSize: 0x3C }
  - { offset: 0x2CA73, size: 0x8, addend: 0x0, symName: __ZN10dmPlatformL13OnMouseScrollEP10GLFWwindowdd, symObjAddr: 0x5D8, symBinAddr: 0x10001107C, symSize: 0x34 }
  - { offset: 0x2CAE0, size: 0x8, addend: 0x0, symName: __ZN10dmPlatformL22OnAddCharacterCallbackEP10GLFWwindowj, symObjAddr: 0x60C, symBinAddr: 0x1000110B0, symSize: 0x3C }
  - { offset: 0x2CB49, size: 0x8, addend: 0x0, symName: __ZN10dmPlatformL20OnMarkedTextCallbackEP10GLFWwindowPc, symObjAddr: 0x648, symBinAddr: 0x1000110EC, symSize: 0x3C }
  - { offset: 0x2CBEC, size: 0x8, addend: 0x0, symName: __ZN10dmPlatformL22OnContentScaleCallbackEP10GLFWwindowff, symObjAddr: 0x684, symBinAddr: 0x100011128, symSize: 0x8C }
  - { offset: 0x2CD33, size: 0x8, addend: 0x0, symName: __ZN10dmPlatformL10OnJoystickEii, symObjAddr: 0x710, symBinAddr: 0x1000111B4, symSize: 0x44 }
  - { offset: 0x2CD94, size: 0x8, addend: 0x0, symName: __ZN10dmPlatform15SetSwapIntervalEP8dmWindowj, symObjAddr: 0x754, symBinAddr: 0x1000111F8, symSize: 0x14 }
  - { offset: 0x2CDC5, size: 0x8, addend: 0x0, symName: __ZN10dmPlatform14GetProcAddressEP8dmWindowPKc, symObjAddr: 0x768, symBinAddr: 0x10001120C, symSize: 0x8 }
  - { offset: 0x2CE19, size: 0x8, addend: 0x0, symName: __ZN10dmPlatform11CloseWindowEP8dmWindow, symObjAddr: 0x770, symBinAddr: 0x100011214, symSize: 0x38 }
  - { offset: 0x2CE5E, size: 0x8, addend: 0x0, symName: __ZN10dmPlatform10PollEventsEP8dmWindow, symObjAddr: 0x7A8, symBinAddr: 0x10001124C, symSize: 0x4 }
  - { offset: 0x2CE8A, size: 0x8, addend: 0x0, symName: __ZN10dmPlatform10PollEventsEP8dmWindow, symObjAddr: 0x7A8, symBinAddr: 0x10001124C, symSize: 0x4 }
  - { offset: 0x2CE94, size: 0x8, addend: 0x0, symName: __ZN10dmPlatform10ShowWindowEP8dmWindow, symObjAddr: 0x7AC, symBinAddr: 0x100011250, symSize: 0x8 }
  - { offset: 0x2CECC, size: 0x8, addend: 0x0, symName: __ZN10dmPlatform11SwapBuffersEP8dmWindow, symObjAddr: 0x7BC, symBinAddr: 0x100011258, symSize: 0x8 }
  - { offset: 0x2CF04, size: 0x8, addend: 0x0, symName: __ZN10dmPlatform13IconifyWindowEP8dmWindow, symObjAddr: 0x7C4, symBinAddr: 0x100011260, symSize: 0x8 }
  - { offset: 0x2CF3C, size: 0x8, addend: 0x0, symName: __ZN10dmPlatform14GetWindowWidthEP8dmWindow, symObjAddr: 0x7CC, symBinAddr: 0x100011268, symSize: 0x8 }
  - { offset: 0x2CF59, size: 0x8, addend: 0x0, symName: __ZN10dmPlatform15GetWindowHeightEP8dmWindow, symObjAddr: 0x7D4, symBinAddr: 0x100011270, symSize: 0x8 }
  - { offset: 0x2CFE5, size: 0x8, addend: 0x0, symName: __ZN10dmPlatform11GetSafeAreaEP8dmWindowP14WindowSafeArea, symObjAddr: 0x7DC, symBinAddr: 0x100011278, symSize: 0x18 }
  - { offset: 0x2D025, size: 0x8, addend: 0x0, symName: __ZN10dmPlatform11GetSafeAreaEP8dmWindowP14WindowSafeArea, symObjAddr: 0x7DC, symBinAddr: 0x100011278, symSize: 0x18 }
  - { offset: 0x2D048, size: 0x8, addend: 0x0, symName: __ZN10dmPlatform11GetSafeAreaEP8dmWindowP14WindowSafeArea, symObjAddr: 0x7DC, symBinAddr: 0x100011278, symSize: 0x18 }
  - { offset: 0x2D063, size: 0x8, addend: 0x0, symName: __ZN10dmPlatform14SetWindowTitleEP8dmWindowPKc, symObjAddr: 0x7F4, symBinAddr: 0x100011290, symSize: 0x8 }
  - { offset: 0x2D0B1, size: 0x8, addend: 0x0, symName: __ZN10dmPlatform13SetWindowSizeEP8dmWindowjj, symObjAddr: 0x7FC, symBinAddr: 0x100011298, symSize: 0x60 }
  - { offset: 0x2D178, size: 0x8, addend: 0x0, symName: __ZN10dmPlatform17SetWindowPositionEP8dmWindowii, symObjAddr: 0x85C, symBinAddr: 0x1000112F8, symSize: 0x8 }
  - { offset: 0x2D1DB, size: 0x8, addend: 0x0, symName: __ZN10dmPlatform21GetDisplayScaleFactorEP8dmWindow, symObjAddr: 0x864, symBinAddr: 0x100011300, symSize: 0x10 }
  - { offset: 0x2D22E, size: 0x8, addend: 0x0, symName: __ZN10dmPlatform17AcquireAuxContextEP8dmWindow, symObjAddr: 0x874, symBinAddr: 0x100011310, symSize: 0x28 }
  - { offset: 0x2D26A, size: 0x8, addend: 0x0, symName: __ZN10dmPlatform19UnacquireAuxContextEP8dmWindowPv, symObjAddr: 0x89C, symBinAddr: 0x100011338, symSize: 0x8 }
  - { offset: 0x2D2D4, size: 0x8, addend: 0x0, symName: __ZN10dmPlatform19GetWindowStateParamEP8dmWindow11WindowState, symObjAddr: 0x8A4, symBinAddr: 0x100011340, symSize: 0x80 }
  - { offset: 0x2D34A, size: 0x8, addend: 0x0, symName: __ZN10dmPlatform6GetKeyEP8dmWindowi, symObjAddr: 0x934, symBinAddr: 0x1000113C0, symSize: 0x18 }
  - { offset: 0x2D394, size: 0x8, addend: 0x0, symName: __ZN10dmPlatform13GetMouseWheelEP8dmWindow, symObjAddr: 0x94C, symBinAddr: 0x1000113D8, symSize: 0xC }
  - { offset: 0x2D3C3, size: 0x8, addend: 0x0, symName: __ZN10dmPlatform14GetMouseButtonEP8dmWindowi, symObjAddr: 0x958, symBinAddr: 0x1000113E4, symSize: 0x8 }
  - { offset: 0x2D415, size: 0x8, addend: 0x0, symName: __ZN10dmPlatform16GetMousePositionEP8dmWindowPiS2_, symObjAddr: 0x960, symBinAddr: 0x1000113EC, symSize: 0x8C }
  - { offset: 0x2D4F0, size: 0x8, addend: 0x0, symName: __ZN10dmPlatform14GetDeviceStateEP8dmWindow17WindowDeviceState, symObjAddr: 0xB88, symBinAddr: 0x100011478, symSize: 0x60 }
  - { offset: 0x2D578, size: 0x8, addend: 0x0, symName: __ZN10dmPlatform14SetDeviceStateEP8dmWindow17WindowDeviceStateb, symObjAddr: 0xBE8, symBinAddr: 0x1000114D8, symSize: 0x7C }
  - { offset: 0x2D5C0, size: 0x8, addend: 0x0, symName: __ZN10dmPlatform14SetDeviceStateEP8dmWindow17WindowDeviceStateb, symObjAddr: 0xBE8, symBinAddr: 0x1000114D8, symSize: 0x7C }
  - { offset: 0x2D664, size: 0x8, addend: 0x0, symName: __ZN10dmPlatform23SetKeyboardCharCallbackEP8dmWindowPFvPviES2_, symObjAddr: 0xCE0, symBinAddr: 0x100011554, symSize: 0x8 }
  - { offset: 0x2D6A9, size: 0x8, addend: 0x0, symName: __ZN10dmPlatform29SetKeyboardMarkedTextCallbackEP8dmWindowPFvPvPcES2_, symObjAddr: 0xCE8, symBinAddr: 0x10001155C, symSize: 0x8 }
  - { offset: 0x2DD1E, size: 0x8, addend: 0x0, symName: __ZN10dmPlatform10OpenWindowEP8dmWindowRK18WindowCreateParams.cold.1, symObjAddr: 0xD20, symBinAddr: 0x10034C5BC, symSize: 0x28 }
  - { offset: 0x2DF2F, size: 0x8, addend: 0x0, symName: __ZN10dmPlatform14GetDeviceStateEP8dmWindow17WindowDeviceState.cold.1, symObjAddr: 0xD70, symBinAddr: 0x10034C5E4, symSize: 0x28 }
  - { offset: 0x2E177, size: 0x8, addend: 0x0, symName: __ZN10dmPlatform17FocusWindowNativeEP8dmWindow, symObjAddr: 0x18, symBinAddr: 0x100011564, symSize: 0x8 }
  - { offset: 0x2E1AD, size: 0x8, addend: 0x0, symName: __ZN10dmPlatform18CenterWindowNativeEP8dmWindowP11GLFWmonitor, symObjAddr: 0x20, symBinAddr: 0x10001156C, symSize: 0x4 }
  - { offset: 0x2E5B2, size: 0x8, addend: 0x0, symName: __ZN9Effekseer19CollisionsParameter4LoadERPhi, symObjAddr: 0x0, symBinAddr: 0x100011570, symSize: 0x90 }
  - { offset: 0x31722, size: 0x8, addend: 0x0, symName: __ZN9Effekseer19CollisionsParameter4LoadERPhi, symObjAddr: 0x0, symBinAddr: 0x100011570, symSize: 0x90 }
  - { offset: 0x317F9, size: 0x8, addend: 0x0, symName: __ZN9Effekseer19CollisionsFunctions10InitializeERNS_15CollisionsStateERKNS_19CollisionsParameterERNS_10RandObjectE, symObjAddr: 0x90, symBinAddr: 0x100011600, symSize: 0xB4 }
  - { offset: 0x31BE2, size: 0x8, addend: 0x0, symName: __ZN9Effekseer19CollisionsFunctions6UpdateERNS_15CollisionsStateERKNS_19CollisionsParameterERKNS_4SIMD5Vec3fES9_S9_S9_fRKNSt3__18functionIFbRKNS_8Vector3DESE_RSC_SF_EEE, symObjAddr: 0x144, symBinAddr: 0x1000116B4, symSize: 0x2D8 }
  - { offset: 0x35DA2, size: 0x8, addend: 0x0, symName: __ZN9Effekseer5ColorC1Ehhhh, symObjAddr: 0x14, symBinAddr: 0x10001198C, symSize: 0x14 }
  - { offset: 0x35E03, size: 0x8, addend: 0x0, symName: __ZN9Effekseer5ColorC1Ehhhh, symObjAddr: 0x14, symBinAddr: 0x10001198C, symSize: 0x14 }
  - { offset: 0x35E39, size: 0x8, addend: 0x0, symName: __ZN9Effekseer5Color3MulES0_S0_, symObjAddr: 0x28, symBinAddr: 0x1000119A0, symSize: 0x28 }
  - { offset: 0x35F4B, size: 0x8, addend: 0x0, symName: __ZN9Effekseer5Color4LerpES0_S0_f, symObjAddr: 0x74, symBinAddr: 0x1000119C8, symSize: 0xD4 }
  - { offset: 0x37F16, size: 0x8, addend: 0x0, symName: __ZNK9Effekseer16CompiledMaterial15GetOriginalDataEv, symObjAddr: 0x0, symBinAddr: 0x100011A9C, symSize: 0x8 }
  - { offset: 0x3F22B, size: 0x8, addend: 0x0, symName: __ZNSt3__127__tree_balance_after_insertB8nn200100IPNS_16__tree_node_baseIPvEEEEvT_S5_, symObjAddr: 0x1840, symBinAddr: 0x10001260C, symSize: 0x19C }
  - { offset: 0x41556, size: 0x8, addend: 0x0, symName: __ZNK9Effekseer16CompiledMaterial15GetOriginalDataEv, symObjAddr: 0x0, symBinAddr: 0x100011A9C, symSize: 0x8 }
  - { offset: 0x41FDF, size: 0x8, addend: 0x0, symName: __ZN9Effekseer16CompiledMaterial4LoadEPKhi, symObjAddr: 0x8, symBinAddr: 0x100011AA4, symSize: 0x738 }
  - { offset: 0x453AE, size: 0x8, addend: 0x0, symName: __ZNSt3__16vectorIhNS_9allocatorIhEEE18__assign_with_sizeB8nn200100IPhS5_EEvT_T0_l, symObjAddr: 0x1704, symBinAddr: 0x1000124DC, symSize: 0x124 }
  - { offset: 0x45D5C, size: 0x8, addend: 0x0, symName: __ZNSt3__16vectorIhNS_9allocatorIhEEE20__throw_length_errorB8nn200100Ev, symObjAddr: 0x1828, symBinAddr: 0x100012600, symSize: 0xC }
  - { offset: 0x45D79, size: 0x8, addend: 0x0, symName: __ZNSt3__16vectorIhNS_9allocatorIhEEE20__throw_length_errorB8nn200100Ev, symObjAddr: 0x1828, symBinAddr: 0x100012600, symSize: 0xC }
  - { offset: 0x45DC3, size: 0x8, addend: 0x0, symName: __ZNSt3__127__tree_balance_after_insertB8nn200100IPNS_16__tree_node_baseIPvEEEEvT_S5_, symObjAddr: 0x1840, symBinAddr: 0x10001260C, symSize: 0x19C }
  - { offset: 0x45ED3, size: 0x8, addend: 0x0, symName: __ZNK9Effekseer16CompiledMaterial11GetHasValueENS_28CompiledMaterialPlatformTypeE, symObjAddr: 0x11BC, symBinAddr: 0x1000121DC, symSize: 0x78 }
  - { offset: 0x45F1F, size: 0x8, addend: 0x0, symName: __ZNK9Effekseer16CompiledMaterial11GetHasValueENS_28CompiledMaterialPlatformTypeE, symObjAddr: 0x11BC, symBinAddr: 0x1000121DC, symSize: 0x78 }
  - { offset: 0x45F3D, size: 0x8, addend: 0x0, symName: __ZNK9Effekseer16CompiledMaterial11GetHasValueENS_28CompiledMaterialPlatformTypeE, symObjAddr: 0x11BC, symBinAddr: 0x1000121DC, symSize: 0x78 }
  - { offset: 0x45F64, size: 0x8, addend: 0x0, symName: __ZNK9Effekseer16CompiledMaterial11GetHasValueENS_28CompiledMaterialPlatformTypeE, symObjAddr: 0x11BC, symBinAddr: 0x1000121DC, symSize: 0x78 }
  - { offset: 0x46069, size: 0x8, addend: 0x0, symName: __ZNK9Effekseer16CompiledMaterial9GetBinaryENS_28CompiledMaterialPlatformTypeE, symObjAddr: 0x1234, symBinAddr: 0x100012254, symSize: 0x48 }
  - { offset: 0x460B3, size: 0x8, addend: 0x0, symName: __ZNK9Effekseer16CompiledMaterial9GetBinaryENS_28CompiledMaterialPlatformTypeE, symObjAddr: 0x1234, symBinAddr: 0x100012254, symSize: 0x48 }
  - { offset: 0x460D1, size: 0x8, addend: 0x0, symName: __ZNK9Effekseer16CompiledMaterial9GetBinaryENS_28CompiledMaterialPlatformTypeE, symObjAddr: 0x1234, symBinAddr: 0x100012254, symSize: 0x48 }
  - { offset: 0x460F8, size: 0x8, addend: 0x0, symName: __ZNK9Effekseer16CompiledMaterial9GetBinaryENS_28CompiledMaterialPlatformTypeE, symObjAddr: 0x1234, symBinAddr: 0x100012254, symSize: 0x48 }
  - { offset: 0x4625E, size: 0x8, addend: 0x0, symName: __ZN9Effekseer30CompiledMaterialBinaryInternal6AddRefEv, symObjAddr: 0x14C4, symBinAddr: 0x10001229C, symSize: 0x14 }
  - { offset: 0x46282, size: 0x8, addend: 0x0, symName: __ZN9Effekseer30CompiledMaterialBinaryInternal6AddRefEv, symObjAddr: 0x14C4, symBinAddr: 0x10001229C, symSize: 0x14 }
  - { offset: 0x4638F, size: 0x8, addend: 0x0, symName: __ZN9Effekseer30CompiledMaterialBinaryInternal6GetRefEv, symObjAddr: 0x14D8, symBinAddr: 0x1000122B0, symSize: 0xC }
  - { offset: 0x463B3, size: 0x8, addend: 0x0, symName: __ZN9Effekseer30CompiledMaterialBinaryInternal6GetRefEv, symObjAddr: 0x14D8, symBinAddr: 0x1000122B0, symSize: 0xC }
  - { offset: 0x4647E, size: 0x8, addend: 0x0, symName: __ZN9Effekseer30CompiledMaterialBinaryInternal7ReleaseEv, symObjAddr: 0x14E4, symBinAddr: 0x1000122BC, symSize: 0x3C }
  - { offset: 0x46587, size: 0x8, addend: 0x0, symName: __ZN9Effekseer30CompiledMaterialBinaryInternalD1Ev, symObjAddr: 0x1520, symBinAddr: 0x1000122F8, symSize: 0x4 }
  - { offset: 0x465A9, size: 0x8, addend: 0x0, symName: __ZN9Effekseer30CompiledMaterialBinaryInternalD1Ev, symObjAddr: 0x1520, symBinAddr: 0x1000122F8, symSize: 0x4 }
  - { offset: 0x465BC, size: 0x8, addend: 0x0, symName: __ZN9Effekseer30CompiledMaterialBinaryInternalD2Ev, symObjAddr: 0x1654, symBinAddr: 0x10001242C, symSize: 0xB0 }
  - { offset: 0x46875, size: 0x8, addend: 0x0, symName: __ZN9Effekseer30CompiledMaterialBinaryInternalD0Ev, symObjAddr: 0x1524, symBinAddr: 0x1000122FC, symSize: 0x14 }
  - { offset: 0x46903, size: 0x8, addend: 0x0, symName: __ZNK9Effekseer30CompiledMaterialBinaryInternal19GetVertexShaderDataENS_18MaterialShaderTypeE, symObjAddr: 0x1538, symBinAddr: 0x100012310, symSize: 0x24 }
  - { offset: 0x4698D, size: 0x8, addend: 0x0, symName: __ZNK9Effekseer30CompiledMaterialBinaryInternal19GetVertexShaderSizeENS_18MaterialShaderTypeE, symObjAddr: 0x155C, symBinAddr: 0x100012334, symSize: 0x2C }
  - { offset: 0x469A0, size: 0x8, addend: 0x0, symName: __ZNK9Effekseer30CompiledMaterialBinaryInternal19GetVertexShaderSizeENS_18MaterialShaderTypeE, symObjAddr: 0x155C, symBinAddr: 0x100012334, symSize: 0x2C }
  - { offset: 0x46A2A, size: 0x8, addend: 0x0, symName: __ZNK9Effekseer30CompiledMaterialBinaryInternal18GetPixelShaderDataENS_18MaterialShaderTypeE, symObjAddr: 0x1588, symBinAddr: 0x100012360, symSize: 0x24 }
  - { offset: 0x46A35, size: 0x8, addend: 0x0, symName: __ZNK9Effekseer30CompiledMaterialBinaryInternal18GetPixelShaderDataENS_18MaterialShaderTypeE, symObjAddr: 0x1588, symBinAddr: 0x100012360, symSize: 0x24 }
  - { offset: 0x46AC0, size: 0x8, addend: 0x0, symName: __ZNK9Effekseer30CompiledMaterialBinaryInternal18GetPixelShaderSizeENS_18MaterialShaderTypeE, symObjAddr: 0x15AC, symBinAddr: 0x100012384, symSize: 0x2C }
  - { offset: 0x46ACB, size: 0x8, addend: 0x0, symName: __ZNK9Effekseer30CompiledMaterialBinaryInternal18GetPixelShaderSizeENS_18MaterialShaderTypeE, symObjAddr: 0x15AC, symBinAddr: 0x100012384, symSize: 0x2C }
  - { offset: 0x46B55, size: 0x8, addend: 0x0, symName: __ZThn8_N9Effekseer30CompiledMaterialBinaryInternal6AddRefEv, symObjAddr: 0x15D8, symBinAddr: 0x1000123B0, symSize: 0x14 }
  - { offset: 0x46B76, size: 0x8, addend: 0x0, symName: __ZThn8_N9Effekseer30CompiledMaterialBinaryInternal6AddRefEv, symObjAddr: 0x15D8, symBinAddr: 0x1000123B0, symSize: 0x14 }
  - { offset: 0x46B90, size: 0x8, addend: 0x0, symName: __ZThn8_N9Effekseer30CompiledMaterialBinaryInternal6AddRefEv, symObjAddr: 0x15D8, symBinAddr: 0x1000123B0, symSize: 0x14 }
  - { offset: 0x46BAC, size: 0x8, addend: 0x0, symName: __ZThn8_N9Effekseer30CompiledMaterialBinaryInternal6AddRefEv, symObjAddr: 0x15D8, symBinAddr: 0x1000123B0, symSize: 0x14 }
  - { offset: 0x46CBC, size: 0x8, addend: 0x0, symName: __ZThn8_N9Effekseer30CompiledMaterialBinaryInternal6GetRefEv, symObjAddr: 0x15EC, symBinAddr: 0x1000123C4, symSize: 0xC }
  - { offset: 0x46CD6, size: 0x8, addend: 0x0, symName: __ZThn8_N9Effekseer30CompiledMaterialBinaryInternal6GetRefEv, symObjAddr: 0x15EC, symBinAddr: 0x1000123C4, symSize: 0xC }
  - { offset: 0x46CF2, size: 0x8, addend: 0x0, symName: __ZThn8_N9Effekseer30CompiledMaterialBinaryInternal6GetRefEv, symObjAddr: 0x15EC, symBinAddr: 0x1000123C4, symSize: 0xC }
  - { offset: 0x46D88, size: 0x8, addend: 0x0, symName: __ZThn8_N9Effekseer30CompiledMaterialBinaryInternal7ReleaseEv, symObjAddr: 0x15F8, symBinAddr: 0x1000123D0, symSize: 0x3C }
  - { offset: 0x46E9C, size: 0x8, addend: 0x0, symName: __ZThn8_N9Effekseer30CompiledMaterialBinaryInternalD1Ev, symObjAddr: 0x1634, symBinAddr: 0x10001240C, symSize: 0x8 }
  - { offset: 0x46EF6, size: 0x8, addend: 0x0, symName: __ZThn8_N9Effekseer30CompiledMaterialBinaryInternalD0Ev, symObjAddr: 0x163C, symBinAddr: 0x100012414, symSize: 0x18 }
  - { offset: 0x49015, size: 0x8, addend: 0x0, symName: __ZL9g_Manager, symObjAddr: 0xB6CC0, symBinAddr: 0x100527DB0, symSize: 0x0 }
  - { offset: 0x6DCC4, size: 0x8, addend: 0x0, symName: __ZNSt3__113__tree_removeB8nn200100IPNS_16__tree_node_baseIPvEEEEvT_S5_, symObjAddr: 0x23B4, symBinAddr: 0x100014B44, symSize: 0x384 }
  - { offset: 0x6F215, size: 0x8, addend: 0x0, symName: __ZNSt3__16__treeINS_12__value_typeIi16ActiveEffectInfoEENS_19__map_value_compareIiS3_NS_4lessIiEELb1EEENS_9allocatorIS3_EEE14__erase_uniqueIiEEmRKT_, symObjAddr: 0x22D8, symBinAddr: 0x100014A68, symSize: 0xDC }
  - { offset: 0x709E6, size: 0x8, addend: 0x0, symName: __ZL10g_Renderer, symObjAddr: 0xB6CC8, symBinAddr: 0x100527DB8, symSize: 0x0 }
  - { offset: 0x7150B, size: 0x8, addend: 0x0, symName: __ZL14g_cameraMatrix, symObjAddr: 0xB6CD0, symBinAddr: 0x100527DC0, symSize: 0x0 }
  - { offset: 0x71524, size: 0x8, addend: 0x0, symName: __ZL18g_projectionMatrix, symObjAddr: 0xB6D10, symBinAddr: 0x100527E00, symSize: 0x0 }
  - { offset: 0x7153E, size: 0x8, addend: 0x0, symName: _g_L, symObjAddr: 0xB6D90, symBinAddr: 0x10053BE10, symSize: 0x0 }
  - { offset: 0x71568, size: 0x8, addend: 0x0, symName: __ZL15g_ActiveEffects, symObjAddr: 0xB6D50, symBinAddr: 0x100527E40, symSize: 0x0 }
  - { offset: 0x71938, size: 0x8, addend: 0x0, symName: __ZL15g_LoadedEffects, symObjAddr: 0xB6D68, symBinAddr: 0x100527E58, symSize: 0x0 }
  - { offset: 0x71BD9, size: 0x8, addend: 0x0, symName: _effekseer594, symObjAddr: 0xB6DA0, symBinAddr: 0x10053BE20, symSize: 0x0 }
  - { offset: 0x71BFD, size: 0x8, addend: 0x0, symName: __ZL14Module_methods, symObjAddr: 0x2DA8, symBinAddr: 0x1004887F8, symSize: 0x0 }
  - { offset: 0x71C65, size: 0x8, addend: 0x0, symName: __ZL16Effekseer_UpdateP9lua_State, symObjAddr: 0x8F4, symBinAddr: 0x10001309C, symSize: 0x3B0 }
  - { offset: 0x71C8E, size: 0x8, addend: 0x0, symName: __ZZL16Effekseer_UpdateP9lua_StateE13frame_counter, symObjAddr: 0xB6D80, symBinAddr: 0x100527E70, symSize: 0x0 }
  - { offset: 0x724D9, size: 0x8, addend: 0x0, symName: __ZL14Effekseer_DrawP9lua_State, symObjAddr: 0xCA4, symBinAddr: 0x10001344C, symSize: 0x140 }
  - { offset: 0x724E4, size: 0x8, addend: 0x0, symName: __ZL14Effekseer_DrawP9lua_State, symObjAddr: 0xCA4, symBinAddr: 0x10001344C, symSize: 0x140 }
  - { offset: 0x7250D, size: 0x8, addend: 0x0, symName: __ZZL14Effekseer_DrawP9lua_StateE10printed_gl, symObjAddr: 0xB6D84, symBinAddr: 0x100527E74, symSize: 0x0 }
  - { offset: 0x7274D, size: 0x8, addend: 0x0, symName: __ZL14g_NextHandleId, symObjAddr: 0x2EC8, symBinAddr: 0x10049C060, symSize: 0x0 }
  - { offset: 0x7276B, size: 0x8, addend: 0x0, symName: __ZL14g_NextEffectId, symObjAddr: 0x2ECC, symBinAddr: 0x10049C064, symSize: 0x0 }
  - { offset: 0x72E91, size: 0x8, addend: 0x0, symName: __ZN9Effekseer6RefPtrINS_7ManagerEED1Ev, symObjAddr: 0x0, symBinAddr: 0x1000127A8, symSize: 0x3C }
  - { offset: 0x72EB5, size: 0x8, addend: 0x0, symName: __ZN9Effekseer6RefPtrINS_7ManagerEED1Ev, symObjAddr: 0x0, symBinAddr: 0x1000127A8, symSize: 0x3C }
  - { offset: 0x72ED3, size: 0x8, addend: 0x0, symName: __ZN9Effekseer6RefPtrINS_7ManagerEED1Ev, symObjAddr: 0x0, symBinAddr: 0x1000127A8, symSize: 0x3C }
  - { offset: 0x72F20, size: 0x8, addend: 0x0, symName: __ZN9Effekseer6RefPtrIN19EffekseerRendererGL8RendererEED1Ev, symObjAddr: 0x3C, symBinAddr: 0x1000127E4, symSize: 0x3C }
  - { offset: 0x72F44, size: 0x8, addend: 0x0, symName: __ZN9Effekseer6RefPtrIN19EffekseerRendererGL8RendererEED1Ev, symObjAddr: 0x3C, symBinAddr: 0x1000127E4, symSize: 0x3C }
  - { offset: 0x72F62, size: 0x8, addend: 0x0, symName: __ZN9Effekseer6RefPtrIN19EffekseerRendererGL8RendererEED1Ev, symObjAddr: 0x3C, symBinAddr: 0x1000127E4, symSize: 0x3C }
  - { offset: 0x73002, size: 0x8, addend: 0x0, symName: __ZNSt3__13mapIi16ActiveEffectInfoNS_4lessIiEENS_9allocatorINS_4pairIKiS1_EEEEED1B8nn200100Ev, symObjAddr: 0x78, symBinAddr: 0x100012820, symSize: 0x28 }
  - { offset: 0x730B6, size: 0x8, addend: 0x0, symName: __ZNSt3__16__treeINS_12__value_typeIi16ActiveEffectInfoEENS_19__map_value_compareIiS3_NS_4lessIiEELb1EEENS_9allocatorIS3_EEE7destroyEPNS_11__tree_nodeIS3_PvEE, symObjAddr: 0x28EC, symBinAddr: 0x100014EC8, symSize: 0x54 }
  - { offset: 0x7335B, size: 0x8, addend: 0x0, symName: __ZNSt3__13mapIiN9Effekseer6RefPtrINS1_6EffectEEENS_4lessIiEENS_9allocatorINS_4pairIKiS4_EEEEED1B8nn200100Ev, symObjAddr: 0xA0, symBinAddr: 0x100012848, symSize: 0x28 }
  - { offset: 0x7340F, size: 0x8, addend: 0x0, symName: __ZNSt3__16__treeINS_12__value_typeIiN9Effekseer6RefPtrINS2_6EffectEEEEENS_19__map_value_compareIiS6_NS_4lessIiEELb1EEENS_9allocatorIS6_EEE7destroyEPNS_11__tree_nodeIS6_PvEE, symObjAddr: 0x2940, symBinAddr: 0x100014F1C, symSize: 0x54 }
  - { offset: 0x73601, size: 0x8, addend: 0x0, symName: _effekseer, symObjAddr: 0xC8, symBinAddr: 0x100012870, symSize: 0x58 }
  - { offset: 0x73668, size: 0x8, addend: 0x0, symName: __ZL22AppInitializeEffekseerP18ExtensionAppParams, symObjAddr: 0x120, symBinAddr: 0x1000128C8, symSize: 0x24 }
  - { offset: 0x736A7, size: 0x8, addend: 0x0, symName: __ZL20AppFinalizeEffekseerP18ExtensionAppParams, symObjAddr: 0x144, symBinAddr: 0x1000128EC, symSize: 0x8 }
  - { offset: 0x736D2, size: 0x8, addend: 0x0, symName: __ZL19InitializeEffekseerP15ExtensionParams, symObjAddr: 0x14C, symBinAddr: 0x1000128F4, symSize: 0x4C }
  - { offset: 0x73887, size: 0x8, addend: 0x0, symName: __ZL17FinalizeEffekseerP15ExtensionParams, symObjAddr: 0x198, symBinAddr: 0x100012940, symSize: 0x134 }
  - { offset: 0x73BDB, size: 0x8, addend: 0x0, symName: __ZL20Effekseer_PostRenderP15ExtensionParams, symObjAddr: 0x2CC, symBinAddr: 0x100012A74, symSize: 0xBC }
  - { offset: 0x743C7, size: 0x8, addend: 0x0, symName: __ZL14Effekseer_InitP9lua_State, symObjAddr: 0x388, symBinAddr: 0x100012B30, symSize: 0x56C }
  - { offset: 0x75C5C, size: 0x8, addend: 0x0, symName: __ZNSt3__16__treeINS_12__value_typeIi16ActiveEffectInfoEENS_19__map_value_compareIiS3_NS_4lessIiEELb1EEENS_9allocatorIS3_EEE14__erase_uniqueIiEEmRKT_, symObjAddr: 0x22D8, symBinAddr: 0x100014A68, symSize: 0xDC }
  - { offset: 0x760B0, size: 0x8, addend: 0x0, symName: __ZL15Effekseer_ClearP9lua_State, symObjAddr: 0xDE4, symBinAddr: 0x10001358C, symSize: 0x3C }
  - { offset: 0x76DAB, size: 0x8, addend: 0x0, symName: __ZL20Effekseer_PlayEffectP9lua_State, symObjAddr: 0xE20, symBinAddr: 0x1000135C8, symSize: 0x5D0 }
  - { offset: 0x77DDF, size: 0x8, addend: 0x0, symName: __ZL20Effekseer_LoadEffectP9lua_State, symObjAddr: 0x13F0, symBinAddr: 0x100013B98, symSize: 0x3F4 }
  - { offset: 0x78315, size: 0x8, addend: 0x0, symName: __ZL20Effekseer_LoadEffectP9lua_State, symObjAddr: 0x13F0, symBinAddr: 0x100013B98, symSize: 0x3F4 }
  - { offset: 0x78FC8, size: 0x8, addend: 0x0, symName: __ZL14Effekseer_PlayP9lua_State, symObjAddr: 0x17E4, symBinAddr: 0x100013F8C, symSize: 0x398 }
  - { offset: 0x7909C, size: 0x8, addend: 0x0, symName: __ZL14Effekseer_PlayP9lua_State, symObjAddr: 0x17E4, symBinAddr: 0x100013F8C, symSize: 0x398 }
  - { offset: 0x7994B, size: 0x8, addend: 0x0, symName: __ZL21Effekseer_SetLocationP9lua_State, symObjAddr: 0x1B7C, symBinAddr: 0x100014324, symSize: 0xDC }
  - { offset: 0x79BA8, size: 0x8, addend: 0x0, symName: __ZL25Effekseer_SetRotationQuatP9lua_State, symObjAddr: 0x1C58, symBinAddr: 0x100014400, symSize: 0x168 }
  - { offset: 0x79E60, size: 0x8, addend: 0x0, symName: __ZL18Effekseer_SetScaleP9lua_State, symObjAddr: 0x1DC0, symBinAddr: 0x100014568, symSize: 0xDC }
  - { offset: 0x7A047, size: 0x8, addend: 0x0, symName: __ZL18Effekseer_SetSpeedP9lua_State, symObjAddr: 0x1E9C, symBinAddr: 0x100014644, symSize: 0xA0 }
  - { offset: 0x7A1DC, size: 0x8, addend: 0x0, symName: __ZL19Effekseer_SetPausedP9lua_State, symObjAddr: 0x1F3C, symBinAddr: 0x1000146E4, symSize: 0xA8 }
  - { offset: 0x7A4C3, size: 0x8, addend: 0x0, symName: __ZL20Effekseer_StopEffectP9lua_State, symObjAddr: 0x1FE4, symBinAddr: 0x10001478C, symSize: 0x124 }
  - { offset: 0x7A8DD, size: 0x8, addend: 0x0, symName: __ZL24Effekseer_StopAllEffectsP9lua_State, symObjAddr: 0x2108, symBinAddr: 0x1000148B0, symSize: 0xD4 }
  - { offset: 0x7AAC2, size: 0x8, addend: 0x0, symName: __ZL25Effekseer_SetCameraMatrixP9lua_State, symObjAddr: 0x21DC, symBinAddr: 0x100014984, symSize: 0x48 }
  - { offset: 0x7C7D2, size: 0x8, addend: 0x0, symName: __ZL29Effekseer_SetProjectionMatrixP9lua_State, symObjAddr: 0x2224, symBinAddr: 0x1000149CC, symSize: 0x48 }
  - { offset: 0x7C841, size: 0x8, addend: 0x0, symName: __ZL25Effekseer_GetPlayingCountP9lua_State, symObjAddr: 0x226C, symBinAddr: 0x100014A14, symSize: 0x54 }
  - { offset: 0x7CB72, size: 0x8, addend: 0x0, symName: __GLOBAL__sub_I_effekseer.cpp, symObjAddr: 0x29C8, symBinAddr: 0x100014F70, symSize: 0xBC }
  - { offset: 0x7EC46, size: 0x8, addend: 0x0, symName: __ZNK9Effekseer9CurlNoise3GetENS_4SIMD5Vec3fE, symObjAddr: 0x0, symBinAddr: 0x10001502C, symSize: 0x1F8 }
  - { offset: 0x81688, size: 0x8, addend: 0x0, symName: __ZNK9Effekseer9CurlNoise3GetENS_4SIMD5Vec3fE, symObjAddr: 0x0, symBinAddr: 0x10001502C, symSize: 0x1F8 }
  - { offset: 0x82174, size: 0x8, addend: 0x0, symName: __ZNK9Effekseer11PerlinNoise11OctaveNoiseEmNS_4SIMD5Vec3fE, symObjAddr: 0x9CC, symBinAddr: 0x1000159F8, symSize: 0x1E8 }
  - { offset: 0x821D5, size: 0x8, addend: 0x0, symName: __ZNK9Effekseer11PerlinNoise11OctaveNoiseEmNS_4SIMD5Vec3fE, symObjAddr: 0x9CC, symBinAddr: 0x1000159F8, symSize: 0x1E8 }
  - { offset: 0x82E0D, size: 0x8, addend: 0x0, symName: __ZN9Effekseer14LightCurlNoiseC2Eifi, symObjAddr: 0x1F8, symBinAddr: 0x100015224, symSize: 0x7D4 }
  - { offset: 0x84032, size: 0x8, addend: 0x0, symName: __ZN9Effekseer14LightCurlNoiseC1Eifi, symObjAddr: 0xC1C, symBinAddr: 0x100015BE0, symSize: 0x4 }
  - { offset: 0x84086, size: 0x8, addend: 0x0, symName: __ZN9Effekseer14LightCurlNoiseC1Eifi, symObjAddr: 0xC1C, symBinAddr: 0x100015BE0, symSize: 0x4 }
  - { offset: 0x840C8, size: 0x8, addend: 0x0, symName: __ZNK9Effekseer14LightCurlNoise3GetENS_4SIMD5Vec3fE, symObjAddr: 0xC5C, symBinAddr: 0x100015BE4, symSize: 0x260 }
  - { offset: 0x8723F, size: 0x8, addend: 0x0, symName: __ZN9Effekseer11CurveLoaderC2ENS_6RefPtrINS_13FileInterfaceEEE, symObjAddr: 0x0, symBinAddr: 0x100015E44, symSize: 0x98 }
  - { offset: 0x8C7DE, size: 0x8, addend: 0x0, symName: __ZN9Effekseer5CurveD2Ev, symObjAddr: 0x884, symBinAddr: 0x1000165F4, symSize: 0x104 }
  - { offset: 0x8E881, size: 0x8, addend: 0x0, symName: __ZN9Effekseer11CurveLoaderC2ENS_6RefPtrINS_13FileInterfaceEEE, symObjAddr: 0x0, symBinAddr: 0x100015E44, symSize: 0x98 }
  - { offset: 0x8EFD1, size: 0x8, addend: 0x0, symName: __ZN9Effekseer11CurveLoader4LoadEPKDs, symObjAddr: 0x130, symBinAddr: 0x100015EDC, symSize: 0xE0 }
  - { offset: 0x8F416, size: 0x8, addend: 0x0, symName: __ZN9Effekseer11CurveLoader4LoadEPKvi, symObjAddr: 0x210, symBinAddr: 0x100015FBC, symSize: 0x19C }
  - { offset: 0x8F434, size: 0x8, addend: 0x0, symName: __ZN9Effekseer5CurveD1Ev, symObjAddr: 0x6AC, symBinAddr: 0x100016428, symSize: 0x4 }
  - { offset: 0x8F6B3, size: 0x8, addend: 0x0, symName: __ZN9Effekseer11CurveLoader4LoadEPKvi, symObjAddr: 0x210, symBinAddr: 0x100015FBC, symSize: 0x19C }
  - { offset: 0x8FBE5, size: 0x8, addend: 0x0, symName: __ZNSt3__16vectorIN9Effekseer8dVector4ENS_9allocatorIS2_EEE9push_backB8nn200100ERKS2_, symObjAddr: 0x3AC, symBinAddr: 0x100016158, symSize: 0xF4 }
  - { offset: 0x8FFD1, size: 0x8, addend: 0x0, symName: __ZNSt3__16vectorIdNS_9allocatorIdEEE9push_backB8nn200100ERKd, symObjAddr: 0x4A0, symBinAddr: 0x10001624C, symSize: 0xEC }
  - { offset: 0x8FFDC, size: 0x8, addend: 0x0, symName: __ZNSt3__16vectorIdNS_9allocatorIdEEE9push_backB8nn200100ERKd, symObjAddr: 0x4A0, symBinAddr: 0x10001624C, symSize: 0xEC }
  - { offset: 0x903E9, size: 0x8, addend: 0x0, symName: __ZN9Effekseer11CurveLoader6UnloadENS_6RefPtrINS_5CurveEEE, symObjAddr: 0x58C, symBinAddr: 0x100016338, symSize: 0x4 }
  - { offset: 0x90AB8, size: 0x8, addend: 0x0, symName: __ZN9Effekseer11CurveLoader6UnloadENS_6RefPtrINS_5CurveEEE, symObjAddr: 0x58C, symBinAddr: 0x100016338, symSize: 0x4 }
  - { offset: 0x90B5A, size: 0x8, addend: 0x0, symName: __ZN9Effekseer15ReferenceObject6AddRefEv, symObjAddr: 0x590, symBinAddr: 0x10001633C, symSize: 0x14 }
  - { offset: 0x90C5C, size: 0x8, addend: 0x0, symName: __ZN9Effekseer15ReferenceObject6GetRefEv, symObjAddr: 0x5A4, symBinAddr: 0x100016350, symSize: 0xC }
  - { offset: 0x90D10, size: 0x8, addend: 0x0, symName: __ZN9Effekseer15ReferenceObject7ReleaseEv, symObjAddr: 0x5B0, symBinAddr: 0x10001635C, symSize: 0x40 }
  - { offset: 0x90E62, size: 0x8, addend: 0x0, symName: __ZN9Effekseer11CurveLoaderD1Ev, symObjAddr: 0x5F0, symBinAddr: 0x10001639C, symSize: 0x48 }
  - { offset: 0x90E86, size: 0x8, addend: 0x0, symName: __ZN9Effekseer11CurveLoaderD1Ev, symObjAddr: 0x5F0, symBinAddr: 0x10001639C, symSize: 0x48 }
  - { offset: 0x90F23, size: 0x8, addend: 0x0, symName: __ZN9Effekseer11CurveLoaderD0Ev, symObjAddr: 0x638, symBinAddr: 0x1000163E4, symSize: 0x44 }
  - { offset: 0x90F50, size: 0x8, addend: 0x0, symName: __ZN9Effekseer11CurveLoaderD0Ev, symObjAddr: 0x638, symBinAddr: 0x1000163E4, symSize: 0x44 }
  - { offset: 0x90F6D, size: 0x8, addend: 0x0, symName: __ZN9Effekseer11CurveLoaderD0Ev, symObjAddr: 0x638, symBinAddr: 0x1000163E4, symSize: 0x44 }
  - { offset: 0x90FFE, size: 0x8, addend: 0x0, symName: __ZN9Effekseer5CurveD1Ev, symObjAddr: 0x6AC, symBinAddr: 0x100016428, symSize: 0x4 }
  - { offset: 0x91020, size: 0x8, addend: 0x0, symName: __ZN9Effekseer5CurveD1Ev, symObjAddr: 0x6AC, symBinAddr: 0x100016428, symSize: 0x4 }
  - { offset: 0x91033, size: 0x8, addend: 0x0, symName: __ZN9Effekseer5CurveD2Ev, symObjAddr: 0x884, symBinAddr: 0x1000165F4, symSize: 0x104 }
  - { offset: 0x91491, size: 0x8, addend: 0x0, symName: __ZTVN9Effekseer11CurveLoaderE, symObjAddr: 0x988, symBinAddr: 0x100488918, symSize: 0x0 }
  - { offset: 0x914B6, size: 0x8, addend: 0x0, symName: __ZN9Effekseer5CurveD0Ev, symObjAddr: 0x6B0, symBinAddr: 0x10001642C, symSize: 0x14 }
  - { offset: 0x9176A, size: 0x8, addend: 0x0, symName: __ZN9Effekseer8ResourceD1Ev, symObjAddr: 0x6C4, symBinAddr: 0x100016440, symSize: 0xD8 }
  - { offset: 0x91971, size: 0x8, addend: 0x0, symName: __ZN9Effekseer8ResourceD0Ev, symObjAddr: 0x79C, symBinAddr: 0x100016518, symSize: 0xDC }
  - { offset: 0x91996, size: 0x8, addend: 0x0, symName: __ZN9Effekseer8ResourceD0Ev, symObjAddr: 0x79C, symBinAddr: 0x100016518, symSize: 0xDC }
  - { offset: 0x93BFB, size: 0x8, addend: 0x0, symName: __ZN9Effekseer11mallocFunc_E, symObjAddr: 0x1D8B0, symBinAddr: 0x10053BEA0, symSize: 0x0 }
  - { offset: 0x93C20, size: 0x8, addend: 0x0, symName: __ZN9Effekseer9freeFunc_E, symObjAddr: 0x1D8D0, symBinAddr: 0x10053BEC0, symSize: 0x0 }
  - { offset: 0x93C3A, size: 0x8, addend: 0x0, symName: __ZN9Effekseer18alignedMallocFunc_E, symObjAddr: 0x1D8F0, symBinAddr: 0x10053BEE0, symSize: 0x0 }
  - { offset: 0x93C5F, size: 0x8, addend: 0x0, symName: __ZN9Effekseer16alignedFreeFunc_E, symObjAddr: 0x1D910, symBinAddr: 0x10053BF00, symSize: 0x0 }
  - { offset: 0x93C77, size: 0x8, addend: 0x0, symName: __ZN9Effekseer14InternalMallocEj, symObjAddr: 0x0, symBinAddr: 0x1000166F8, symSize: 0x8 }
  - { offset: 0x93CA4, size: 0x8, addend: 0x0, symName: __ZN9Effekseer12InternalFreeEPvj, symObjAddr: 0x8, symBinAddr: 0x100016700, symSize: 0xC }
  - { offset: 0x93CE4, size: 0x8, addend: 0x0, symName: __ZN9Effekseer21InternalAlignedMallocEjj, symObjAddr: 0x14, symBinAddr: 0x10001670C, symSize: 0x30 }
  - { offset: 0x93D52, size: 0x8, addend: 0x0, symName: __ZN9Effekseer19InternalAlignedFreeEPvj, symObjAddr: 0x44, symBinAddr: 0x10001673C, symSize: 0x4 }
  - { offset: 0x93D87, size: 0x8, addend: 0x0, symName: __ZN9Effekseer19InternalAlignedFreeEPvj, symObjAddr: 0x44, symBinAddr: 0x10001673C, symSize: 0x4 }
  - { offset: 0x93D99, size: 0x8, addend: 0x0, symName: __ZN9Effekseer13GetMallocFuncEv, symObjAddr: 0x120, symBinAddr: 0x100016818, symSize: 0x70 }
  - { offset: 0x93E28, size: 0x8, addend: 0x0, symName: __ZN9Effekseer11GetFreeFuncEv, symObjAddr: 0x260, symBinAddr: 0x100016888, symSize: 0x70 }
  - { offset: 0x93EB7, size: 0x8, addend: 0x0, symName: __ZN9Effekseer20GetAlignedMallocFuncEv, symObjAddr: 0x3A0, symBinAddr: 0x1000168F8, symSize: 0x70 }
  - { offset: 0x93F46, size: 0x8, addend: 0x0, symName: __ZN9Effekseer18GetAlignedFreeFuncEv, symObjAddr: 0x4E0, symBinAddr: 0x100016968, symSize: 0x70 }
  - { offset: 0x97CCE, size: 0x8, addend: 0x0, symName: __ZNSt3__18functionIFPvjEED1Ev, symObjAddr: 0x48, symBinAddr: 0x100016740, symSize: 0x48 }
  - { offset: 0x97DAC, size: 0x8, addend: 0x0, symName: __ZNSt3__18functionIFvPvjEED1Ev, symObjAddr: 0x90, symBinAddr: 0x100016788, symSize: 0x48 }
  - { offset: 0x97E8A, size: 0x8, addend: 0x0, symName: __ZNSt3__18functionIFPvjjEED1Ev, symObjAddr: 0xD8, symBinAddr: 0x1000167D0, symSize: 0x48 }
  - { offset: 0x98136, size: 0x8, addend: 0x0, symName: __ZNSt3__110__function6__funcIPFPvjENS_9allocatorIS4_EES3_ED1Ev, symObjAddr: 0x620, symBinAddr: 0x1000169D8, symSize: 0x4 }
  - { offset: 0x98162, size: 0x8, addend: 0x0, symName: __ZNSt3__110__function6__funcIPFPvjENS_9allocatorIS4_EES3_ED0Ev, symObjAddr: 0x624, symBinAddr: 0x1000169DC, symSize: 0x4 }
  - { offset: 0x982A0, size: 0x8, addend: 0x0, symName: __ZNKSt3__110__function6__funcIPFPvjENS_9allocatorIS4_EES3_E7__cloneEv, symObjAddr: 0x628, symBinAddr: 0x1000169E0, symSize: 0x38 }
  - { offset: 0x9849B, size: 0x8, addend: 0x0, symName: __ZNKSt3__110__function6__funcIPFPvjENS_9allocatorIS4_EES3_E7__cloneEPNS0_6__baseIS3_EE, symObjAddr: 0x660, symBinAddr: 0x100016A18, symSize: 0x18 }
  - { offset: 0x984D0, size: 0x8, addend: 0x0, symName: __ZNKSt3__110__function6__funcIPFPvjENS_9allocatorIS4_EES3_E7__cloneEPNS0_6__baseIS3_EE, symObjAddr: 0x660, symBinAddr: 0x100016A18, symSize: 0x18 }
  - { offset: 0x984FE, size: 0x8, addend: 0x0, symName: __ZNKSt3__110__function6__funcIPFPvjENS_9allocatorIS4_EES3_E7__cloneEPNS0_6__baseIS3_EE, symObjAddr: 0x660, symBinAddr: 0x100016A18, symSize: 0x18 }
  - { offset: 0x98556, size: 0x8, addend: 0x0, symName: __ZNSt3__110__function6__funcIPFPvjENS_9allocatorIS4_EES3_E7destroyEv, symObjAddr: 0x678, symBinAddr: 0x100016A30, symSize: 0x4 }
  - { offset: 0x985AC, size: 0x8, addend: 0x0, symName: __ZNSt3__110__function6__funcIPFPvjENS_9allocatorIS4_EES3_E18destroy_deallocateEv, symObjAddr: 0x67C, symBinAddr: 0x100016A34, symSize: 0x4 }
  - { offset: 0x985DF, size: 0x8, addend: 0x0, symName: __ZNSt3__110__function6__funcIPFPvjENS_9allocatorIS4_EES3_E18destroy_deallocateEv, symObjAddr: 0x67C, symBinAddr: 0x100016A34, symSize: 0x4 }
  - { offset: 0x98601, size: 0x8, addend: 0x0, symName: __ZNSt3__110__function6__funcIPFPvjENS_9allocatorIS4_EES3_E18destroy_deallocateEv, symObjAddr: 0x67C, symBinAddr: 0x100016A34, symSize: 0x4 }
  - { offset: 0x98632, size: 0x8, addend: 0x0, symName: __ZNSt3__110__function6__funcIPFPvjENS_9allocatorIS4_EES3_E18destroy_deallocateEv, symObjAddr: 0x67C, symBinAddr: 0x100016A34, symSize: 0x4 }
  - { offset: 0x986AC, size: 0x8, addend: 0x0, symName: __ZNSt3__110__function6__funcIPFPvjENS_9allocatorIS4_EES3_EclEOj, symObjAddr: 0x680, symBinAddr: 0x100016A38, symSize: 0xC }
  - { offset: 0x986E3, size: 0x8, addend: 0x0, symName: __ZNSt3__110__function6__funcIPFPvjENS_9allocatorIS4_EES3_EclEOj, symObjAddr: 0x680, symBinAddr: 0x100016A38, symSize: 0xC }
  - { offset: 0x98708, size: 0x8, addend: 0x0, symName: __ZNSt3__110__function6__funcIPFPvjENS_9allocatorIS4_EES3_EclEOj, symObjAddr: 0x680, symBinAddr: 0x100016A38, symSize: 0xC }
  - { offset: 0x9872C, size: 0x8, addend: 0x0, symName: __ZNSt3__110__function6__funcIPFPvjENS_9allocatorIS4_EES3_EclEOj, symObjAddr: 0x680, symBinAddr: 0x100016A38, symSize: 0xC }
  - { offset: 0x98751, size: 0x8, addend: 0x0, symName: __ZNSt3__110__function6__funcIPFPvjENS_9allocatorIS4_EES3_EclEOj, symObjAddr: 0x680, symBinAddr: 0x100016A38, symSize: 0xC }
  - { offset: 0x987DA, size: 0x8, addend: 0x0, symName: __ZNKSt3__110__function6__funcIPFPvjENS_9allocatorIS4_EES3_E6targetERKSt9type_info, symObjAddr: 0x68C, symBinAddr: 0x100016A44, symSize: 0x74 }
  - { offset: 0x9889E, size: 0x8, addend: 0x0, symName: __ZNKSt3__110__function6__funcIPFPvjENS_9allocatorIS4_EES3_E11target_typeEv, symObjAddr: 0x700, symBinAddr: 0x100016AB8, symSize: 0xC }
  - { offset: 0x988C5, size: 0x8, addend: 0x0, symName: __ZNSt3__110__function6__funcIPFvPvjENS_9allocatorIS4_EES3_ED1Ev, symObjAddr: 0x70C, symBinAddr: 0x100016AC4, symSize: 0x4 }
  - { offset: 0x988F1, size: 0x8, addend: 0x0, symName: __ZNSt3__110__function6__funcIPFvPvjENS_9allocatorIS4_EES3_ED0Ev, symObjAddr: 0x710, symBinAddr: 0x100016AC8, symSize: 0x4 }
  - { offset: 0x98A2A, size: 0x8, addend: 0x0, symName: __ZNKSt3__110__function6__funcIPFvPvjENS_9allocatorIS4_EES3_E7__cloneEv, symObjAddr: 0x714, symBinAddr: 0x100016ACC, symSize: 0x38 }
  - { offset: 0x98C25, size: 0x8, addend: 0x0, symName: __ZNKSt3__110__function6__funcIPFvPvjENS_9allocatorIS4_EES3_E7__cloneEPNS0_6__baseIS3_EE, symObjAddr: 0x74C, symBinAddr: 0x100016B04, symSize: 0x18 }
  - { offset: 0x98C5A, size: 0x8, addend: 0x0, symName: __ZNKSt3__110__function6__funcIPFvPvjENS_9allocatorIS4_EES3_E7__cloneEPNS0_6__baseIS3_EE, symObjAddr: 0x74C, symBinAddr: 0x100016B04, symSize: 0x18 }
  - { offset: 0x98C88, size: 0x8, addend: 0x0, symName: __ZNKSt3__110__function6__funcIPFvPvjENS_9allocatorIS4_EES3_E7__cloneEPNS0_6__baseIS3_EE, symObjAddr: 0x74C, symBinAddr: 0x100016B04, symSize: 0x18 }
  - { offset: 0x98CE0, size: 0x8, addend: 0x0, symName: __ZNSt3__110__function6__funcIPFvPvjENS_9allocatorIS4_EES3_E7destroyEv, symObjAddr: 0x764, symBinAddr: 0x100016B1C, symSize: 0x4 }
  - { offset: 0x98D36, size: 0x8, addend: 0x0, symName: __ZNSt3__110__function6__funcIPFvPvjENS_9allocatorIS4_EES3_E18destroy_deallocateEv, symObjAddr: 0x768, symBinAddr: 0x100016B20, symSize: 0x4 }
  - { offset: 0x98D69, size: 0x8, addend: 0x0, symName: __ZNSt3__110__function6__funcIPFvPvjENS_9allocatorIS4_EES3_E18destroy_deallocateEv, symObjAddr: 0x768, symBinAddr: 0x100016B20, symSize: 0x4 }
  - { offset: 0x98D8B, size: 0x8, addend: 0x0, symName: __ZNSt3__110__function6__funcIPFvPvjENS_9allocatorIS4_EES3_E18destroy_deallocateEv, symObjAddr: 0x768, symBinAddr: 0x100016B20, symSize: 0x4 }
  - { offset: 0x98DBC, size: 0x8, addend: 0x0, symName: __ZNSt3__110__function6__funcIPFvPvjENS_9allocatorIS4_EES3_E18destroy_deallocateEv, symObjAddr: 0x768, symBinAddr: 0x100016B20, symSize: 0x4 }
  - { offset: 0x98E52, size: 0x8, addend: 0x0, symName: __ZNSt3__110__function6__funcIPFvPvjENS_9allocatorIS4_EES3_EclEOS2_Oj, symObjAddr: 0x76C, symBinAddr: 0x100016B24, symSize: 0x10 }
  - { offset: 0x98E99, size: 0x8, addend: 0x0, symName: __ZNSt3__110__function6__funcIPFvPvjENS_9allocatorIS4_EES3_EclEOS2_Oj, symObjAddr: 0x76C, symBinAddr: 0x100016B24, symSize: 0x10 }
  - { offset: 0x98EC7, size: 0x8, addend: 0x0, symName: __ZNSt3__110__function6__funcIPFvPvjENS_9allocatorIS4_EES3_EclEOS2_Oj, symObjAddr: 0x76C, symBinAddr: 0x100016B24, symSize: 0x10 }
  - { offset: 0x98EF4, size: 0x8, addend: 0x0, symName: __ZNSt3__110__function6__funcIPFvPvjENS_9allocatorIS4_EES3_EclEOS2_Oj, symObjAddr: 0x76C, symBinAddr: 0x100016B24, symSize: 0x10 }
  - { offset: 0x98F22, size: 0x8, addend: 0x0, symName: __ZNSt3__110__function6__funcIPFvPvjENS_9allocatorIS4_EES3_EclEOS2_Oj, symObjAddr: 0x76C, symBinAddr: 0x100016B24, symSize: 0x10 }
  - { offset: 0x98F5C, size: 0x8, addend: 0x0, symName: __ZNKSt3__110__function6__funcIPFvPvjENS_9allocatorIS4_EES3_E6targetERKSt9type_info, symObjAddr: 0x77C, symBinAddr: 0x100016B34, symSize: 0x74 }
  - { offset: 0x99009, size: 0x8, addend: 0x0, symName: __ZNKSt3__110__function6__funcIPFvPvjENS_9allocatorIS4_EES3_E11target_typeEv, symObjAddr: 0x7F0, symBinAddr: 0x100016BA8, symSize: 0xC }
  - { offset: 0x99030, size: 0x8, addend: 0x0, symName: __ZNSt3__110__function6__funcIPFPvjjENS_9allocatorIS4_EES3_ED1Ev, symObjAddr: 0x7FC, symBinAddr: 0x100016BB4, symSize: 0x4 }
  - { offset: 0x9905C, size: 0x8, addend: 0x0, symName: __ZNSt3__110__function6__funcIPFPvjjENS_9allocatorIS4_EES3_ED0Ev, symObjAddr: 0x800, symBinAddr: 0x100016BB8, symSize: 0x4 }
  - { offset: 0x99195, size: 0x8, addend: 0x0, symName: __ZNKSt3__110__function6__funcIPFPvjjENS_9allocatorIS4_EES3_E7__cloneEv, symObjAddr: 0x804, symBinAddr: 0x100016BBC, symSize: 0x38 }
  - { offset: 0x99390, size: 0x8, addend: 0x0, symName: __ZNKSt3__110__function6__funcIPFPvjjENS_9allocatorIS4_EES3_E7__cloneEPNS0_6__baseIS3_EE, symObjAddr: 0x83C, symBinAddr: 0x100016BF4, symSize: 0x18 }
  - { offset: 0x993C5, size: 0x8, addend: 0x0, symName: __ZNKSt3__110__function6__funcIPFPvjjENS_9allocatorIS4_EES3_E7__cloneEPNS0_6__baseIS3_EE, symObjAddr: 0x83C, symBinAddr: 0x100016BF4, symSize: 0x18 }
  - { offset: 0x993F3, size: 0x8, addend: 0x0, symName: __ZNKSt3__110__function6__funcIPFPvjjENS_9allocatorIS4_EES3_E7__cloneEPNS0_6__baseIS3_EE, symObjAddr: 0x83C, symBinAddr: 0x100016BF4, symSize: 0x18 }
  - { offset: 0x9944B, size: 0x8, addend: 0x0, symName: __ZNSt3__110__function6__funcIPFPvjjENS_9allocatorIS4_EES3_E7destroyEv, symObjAddr: 0x854, symBinAddr: 0x100016C0C, symSize: 0x4 }
  - { offset: 0x994A1, size: 0x8, addend: 0x0, symName: __ZNSt3__110__function6__funcIPFPvjjENS_9allocatorIS4_EES3_E18destroy_deallocateEv, symObjAddr: 0x858, symBinAddr: 0x100016C10, symSize: 0x4 }
  - { offset: 0x994D4, size: 0x8, addend: 0x0, symName: __ZNSt3__110__function6__funcIPFPvjjENS_9allocatorIS4_EES3_E18destroy_deallocateEv, symObjAddr: 0x858, symBinAddr: 0x100016C10, symSize: 0x4 }
  - { offset: 0x994F6, size: 0x8, addend: 0x0, symName: __ZNSt3__110__function6__funcIPFPvjjENS_9allocatorIS4_EES3_E18destroy_deallocateEv, symObjAddr: 0x858, symBinAddr: 0x100016C10, symSize: 0x4 }
  - { offset: 0x99527, size: 0x8, addend: 0x0, symName: __ZNSt3__110__function6__funcIPFPvjjENS_9allocatorIS4_EES3_E18destroy_deallocateEv, symObjAddr: 0x858, symBinAddr: 0x100016C10, symSize: 0x4 }
  - { offset: 0x995BD, size: 0x8, addend: 0x0, symName: __ZNSt3__110__function6__funcIPFPvjjENS_9allocatorIS4_EES3_EclEOjS8_, symObjAddr: 0x85C, symBinAddr: 0x100016C14, symSize: 0x10 }
  - { offset: 0x99604, size: 0x8, addend: 0x0, symName: __ZNSt3__110__function6__funcIPFPvjjENS_9allocatorIS4_EES3_EclEOjS8_, symObjAddr: 0x85C, symBinAddr: 0x100016C14, symSize: 0x10 }
  - { offset: 0x99632, size: 0x8, addend: 0x0, symName: __ZNSt3__110__function6__funcIPFPvjjENS_9allocatorIS4_EES3_EclEOjS8_, symObjAddr: 0x85C, symBinAddr: 0x100016C14, symSize: 0x10 }
  - { offset: 0x9965F, size: 0x8, addend: 0x0, symName: __ZNSt3__110__function6__funcIPFPvjjENS_9allocatorIS4_EES3_EclEOjS8_, symObjAddr: 0x85C, symBinAddr: 0x100016C14, symSize: 0x10 }
  - { offset: 0x9968D, size: 0x8, addend: 0x0, symName: __ZNSt3__110__function6__funcIPFPvjjENS_9allocatorIS4_EES3_EclEOjS8_, symObjAddr: 0x85C, symBinAddr: 0x100016C14, symSize: 0x10 }
  - { offset: 0x996C7, size: 0x8, addend: 0x0, symName: __ZNKSt3__110__function6__funcIPFPvjjENS_9allocatorIS4_EES3_E6targetERKSt9type_info, symObjAddr: 0x86C, symBinAddr: 0x100016C24, symSize: 0x74 }
  - { offset: 0x99774, size: 0x8, addend: 0x0, symName: __ZNKSt3__110__function6__funcIPFPvjjENS_9allocatorIS4_EES3_E11target_typeEv, symObjAddr: 0x8E0, symBinAddr: 0x100016C98, symSize: 0xC }
  - { offset: 0x99DC0, size: 0x8, addend: 0x0, symName: __GLOBAL__sub_I_Effekseer.CustomAllocator.cpp, symObjAddr: 0xD18, symBinAddr: 0x100016CA4, symSize: 0xE8 }
  - { offset: 0x9D613, size: 0x8, addend: 0x0, symName: __ZN9Effekseer19DefaultEffectLoaderC1ENS_6RefPtrINS_13FileInterfaceEEE, symObjAddr: 0x9C, symBinAddr: 0x100016D8C, symSize: 0x9C }
  - { offset: 0x9DA32, size: 0x8, addend: 0x0, symName: __ZN9Effekseer19DefaultEffectLoaderD1Ev, symObjAddr: 0x180, symBinAddr: 0x100016E28, symSize: 0x48 }
  - { offset: 0x9DA56, size: 0x8, addend: 0x0, symName: __ZN9Effekseer19DefaultEffectLoaderD1Ev, symObjAddr: 0x180, symBinAddr: 0x100016E28, symSize: 0x48 }
  - { offset: 0x9DAF5, size: 0x8, addend: 0x0, symName: __ZN9Effekseer19DefaultEffectLoaderD0Ev, symObjAddr: 0x1C8, symBinAddr: 0x100016E70, symSize: 0x44 }
  - { offset: 0x9DB24, size: 0x8, addend: 0x0, symName: __ZN9Effekseer19DefaultEffectLoaderD0Ev, symObjAddr: 0x1C8, symBinAddr: 0x100016E70, symSize: 0x44 }
  - { offset: 0x9DB41, size: 0x8, addend: 0x0, symName: __ZN9Effekseer19DefaultEffectLoaderD0Ev, symObjAddr: 0x1C8, symBinAddr: 0x100016E70, symSize: 0x44 }
  - { offset: 0x9DC6F, size: 0x8, addend: 0x0, symName: __ZN9Effekseer19DefaultEffectLoader4LoadEPKDsRPvRi, symObjAddr: 0x20C, symBinAddr: 0x100016EB4, symSize: 0xB4 }
  - { offset: 0x9DE22, size: 0x8, addend: 0x0, symName: __ZN9Effekseer19DefaultEffectLoader6UnloadEPvi, symObjAddr: 0x2C0, symBinAddr: 0x100016F68, symSize: 0x10 }
  - { offset: 0x9DE2D, size: 0x8, addend: 0x0, symName: __ZN9Effekseer19DefaultEffectLoader4LoadEPKDsRPvRi.cold.1, symObjAddr: 0x330, symBinAddr: 0x10034C60C, symSize: 0x28 }
  - { offset: 0x9DE45, size: 0x8, addend: 0x0, symName: __ZN9Effekseer19DefaultEffectLoader6UnloadEPvi, symObjAddr: 0x2C0, symBinAddr: 0x100016F68, symSize: 0x10 }
  - { offset: 0xA163E, size: 0x8, addend: 0x0, symName: __ZN9Effekseer17DefaultFileReaderD1Ev, symObjAddr: 0x8C, symBinAddr: 0x100016F78, symSize: 0x34 }
  - { offset: 0xA16A5, size: 0x8, addend: 0x0, symName: __ZN9Effekseer17DefaultFileReaderD0Ev, symObjAddr: 0xC0, symBinAddr: 0x100016FAC, symSize: 0x34 }
  - { offset: 0xA1717, size: 0x8, addend: 0x0, symName: __ZN9Effekseer17DefaultFileReader4ReadEPvm, symObjAddr: 0xF4, symBinAddr: 0x100016FE0, symSize: 0x10 }
  - { offset: 0xA179E, size: 0x8, addend: 0x0, symName: __ZN9Effekseer17DefaultFileReader4SeekEi, symObjAddr: 0x104, symBinAddr: 0x100016FF0, symSize: 0x10 }
  - { offset: 0xA180C, size: 0x8, addend: 0x0, symName: __ZNK9Effekseer17DefaultFileReader11GetPositionEv, symObjAddr: 0x114, symBinAddr: 0x100017000, symSize: 0x18 }
  - { offset: 0xA1854, size: 0x8, addend: 0x0, symName: __ZNK9Effekseer17DefaultFileReader9GetLengthEv, symObjAddr: 0x12C, symBinAddr: 0x100017018, symSize: 0x60 }
  - { offset: 0xA194A, size: 0x8, addend: 0x0, symName: __ZN9Effekseer17DefaultFileWriterD1Ev, symObjAddr: 0x218, symBinAddr: 0x100017078, symSize: 0x34 }
  - { offset: 0xA19B1, size: 0x8, addend: 0x0, symName: __ZN9Effekseer17DefaultFileWriterD0Ev, symObjAddr: 0x24C, symBinAddr: 0x1000170AC, symSize: 0x34 }
  - { offset: 0xA1A23, size: 0x8, addend: 0x0, symName: __ZN9Effekseer17DefaultFileWriter5WriteEPKvm, symObjAddr: 0x280, symBinAddr: 0x1000170E0, symSize: 0x10 }
  - { offset: 0xA1AAD, size: 0x8, addend: 0x0, symName: __ZN9Effekseer17DefaultFileWriter5FlushEv, symObjAddr: 0x290, symBinAddr: 0x1000170F0, symSize: 0x8 }
  - { offset: 0xA1AF5, size: 0x8, addend: 0x0, symName: __ZN9Effekseer17DefaultFileWriter4SeekEi, symObjAddr: 0x298, symBinAddr: 0x1000170F8, symSize: 0x10 }
  - { offset: 0xA1B40, size: 0x8, addend: 0x0, symName: __ZNK9Effekseer17DefaultFileWriter11GetPositionEv, symObjAddr: 0x2A8, symBinAddr: 0x100017108, symSize: 0x18 }
  - { offset: 0xA1B76, size: 0x8, addend: 0x0, symName: __ZNK9Effekseer17DefaultFileWriter9GetLengthEv, symObjAddr: 0x2C0, symBinAddr: 0x100017120, symSize: 0x60 }
  - { offset: 0xA1C6A, size: 0x8, addend: 0x0, symName: __ZN9Effekseer20DefaultFileInterface8OpenReadEPKDs, symObjAddr: 0x320, symBinAddr: 0x100017180, symSize: 0x11C }
  - { offset: 0xA1EF0, size: 0x8, addend: 0x0, symName: __ZN9Effekseer20DefaultFileInterface9OpenWriteEPKDs, symObjAddr: 0x43C, symBinAddr: 0x10001729C, symSize: 0x11C }
  - { offset: 0xA2135, size: 0x8, addend: 0x0, symName: __ZN9Effekseer20DefaultFileInterfaceD1Ev, symObjAddr: 0x5B8, symBinAddr: 0x1000173B8, symSize: 0x4 }
  - { offset: 0xA2160, size: 0x8, addend: 0x0, symName: __ZN9Effekseer20DefaultFileInterfaceD0Ev, symObjAddr: 0x5BC, symBinAddr: 0x1000173BC, symSize: 0x4 }
  - { offset: 0xA218B, size: 0x8, addend: 0x0, symName: __ZN9Effekseer13FileInterface11TryOpenReadEPKDs, symObjAddr: 0x5C0, symBinAddr: 0x1000173C0, symSize: 0xC }
  - { offset: 0xA3EA5, size: 0x8, addend: 0x0, symName: __ZNK9Effekseer20ParameterEasingFloat8GetValueERKNS_14InstanceEasingIfEEf, symObjAddr: 0x0, symBinAddr: 0x1000173CC, symSize: 0x84 }
  - { offset: 0xA7306, size: 0x8, addend: 0x0, symName: __ZNK9Effekseer20ParameterEasingFloat8GetValueERKNS_14InstanceEasingIfEEf, symObjAddr: 0x0, symBinAddr: 0x1000173CC, symSize: 0x84 }
  - { offset: 0xA73C9, size: 0x8, addend: 0x0, symName: __ZNK9Effekseer15ParameterEasingIfE12getEaseValueENS_11Easing3TypeEf, symObjAddr: 0x84, symBinAddr: 0x100017450, symSize: 0x684 }
  - { offset: 0xA7685, size: 0x8, addend: 0x0, symName: __ZNK9Effekseer15ParameterEasingIfE9get3PointERKNS_14InstanceEasingIfEEf, symObjAddr: 0x708, symBinAddr: 0x100017AD4, symSize: 0x158 }
  - { offset: 0xA7690, size: 0x8, addend: 0x0, symName: __ZNK9Effekseer15ParameterEasingIfE9get3PointERKNS_14InstanceEasingIfEEf, symObjAddr: 0x708, symBinAddr: 0x100017AD4, symSize: 0x158 }
  - { offset: 0xA7B1D, size: 0x8, addend: 0x0, symName: __ZNK9Effekseer15ParameterEasingIfE12getEaseValueENS_11Easing3TypeEf.cold.1, symObjAddr: 0x1704, symBinAddr: 0x10034C634, symSize: 0x28 }
  - { offset: 0xA7B77, size: 0x8, addend: 0x0, symName: __ZNK9Effekseer20ParameterEasingFloat4InitERNS_14InstanceEasingIfEEPKNS_6EffectEPKNS_14InstanceGlobalEPKNS_8InstanceEPNS_11IRandObjectE, symObjAddr: 0x860, symBinAddr: 0x100017C2C, symSize: 0x14C }
  - { offset: 0xA7FB8, size: 0x8, addend: 0x0, symName: __ZNK9Effekseer23ParameterEasingSIMDVec38GetValueERKNS_14InstanceEasingINS_4SIMD5Vec3fEEEf, symObjAddr: 0x9AC, symBinAddr: 0x100017D78, symSize: 0x15C }
  - { offset: 0xA8333, size: 0x8, addend: 0x0, symName: __ZNK9Effekseer15ParameterEasingINS_4SIMD5Vec3fEE12getEaseValueENS_11Easing3TypeEf, symObjAddr: 0xB08, symBinAddr: 0x100017ED4, symSize: 0x684 }
  - { offset: 0xA85EF, size: 0x8, addend: 0x0, symName: __ZNK9Effekseer15ParameterEasingINS_4SIMD5Vec3fEE9get3PointERKNS_14InstanceEasingIS2_EEf, symObjAddr: 0x118C, symBinAddr: 0x100018558, symSize: 0x1F8 }
  - { offset: 0xA85FA, size: 0x8, addend: 0x0, symName: __ZNK9Effekseer15ParameterEasingINS_4SIMD5Vec3fEE9get3PointERKNS_14InstanceEasingIS2_EEf, symObjAddr: 0x118C, symBinAddr: 0x100018558, symSize: 0x1F8 }
  - { offset: 0xA9045, size: 0x8, addend: 0x0, symName: __ZNK9Effekseer23ParameterEasingSIMDVec34InitERNS_14InstanceEasingINS_4SIMD5Vec3fEEEPKNS_6EffectEPKNS_14InstanceGlobalEPKNS_8InstanceEPNS_11IRandObjectERKNSt3__15arrayIfLm3EEESL_, symObjAddr: 0x1384, symBinAddr: 0x100018750, symSize: 0x380 }
  - { offset: 0xA9750, size: 0x8, addend: 0x0, symName: __ZNK9Effekseer15ParameterEasingIfE12getEaseValueENS_11Easing3TypeEf.cold.1, symObjAddr: 0x1704, symBinAddr: 0x10034C634, symSize: 0x28 }
  - { offset: 0xA9783, size: 0x8, addend: 0x0, symName: __ZNK9Effekseer23ParameterEasingSIMDVec34InitERNS_14InstanceEasingINS_4SIMD5Vec3fEEEPKNS_6EffectEPKNS_14InstanceGlobalEPKNS_8InstanceEPNS_11IRandObjectERKNSt3__15arrayIfLm3EEESL_.cold.1, symObjAddr: 0x1754, symBinAddr: 0x10034C65C, symSize: 0x24 }
  - { offset: 0xA97B0, size: 0x8, addend: 0x0, symName: _OUTLINED_FUNCTION_0, symObjAddr: 0x17C0, symBinAddr: 0x100018AD0, symSize: 0x8 }
  - { offset: 0xAB704, size: 0x8, addend: 0x0, symName: __ZN9Effekseer13EffectFactory8LoadBodyEPNS_6EffectEPKvifPKDs, symObjAddr: 0x0, symBinAddr: 0x100018AD8, symSize: 0x10 }
  - { offset: 0x108C6F, size: 0x8, addend: 0x0, symName: __ZNSt3__114__split_bufferIN9Effekseer6RefPtrINS1_5CurveEEERNS1_15CustomAllocatorIS4_EEED2Ev, symObjAddr: 0xADD8, symBinAddr: 0x100021630, symSize: 0x10C }
  - { offset: 0x10C7E0, size: 0x8, addend: 0x0, symName: __ZNSt3__16vectorINS_10unique_ptrIA_DsNS_14default_deleteIS2_EEEEN9Effekseer15CustomAllocatorIS5_EEE8__appendEm, symObjAddr: 0xBD64, symBinAddr: 0x100022598, symSize: 0x1B0 }
  - { offset: 0x111ADF, size: 0x8, addend: 0x0, symName: __ZNK9Effekseer13EffectFactory7GetNameEv, symObjAddr: 0x3390, symBinAddr: 0x10001BAD0, symSize: 0xC }
  - { offset: 0x111E04, size: 0x8, addend: 0x0, symName: __ZNK9Effekseer17EffectImplemented13CalculateTermEv, symObjAddr: 0xA95C, symBinAddr: 0x10002122C, symSize: 0x114 }
  - { offset: 0x1122E9, size: 0x8, addend: 0x0, symName: __ZN9Effekseer13EffectFactory8LoadBodyEPNS_6EffectEPKvifPKDs, symObjAddr: 0x0, symBinAddr: 0x100018AD8, symSize: 0x10 }
  - { offset: 0x112373, size: 0x8, addend: 0x0, symName: __ZN9Effekseer17EffectImplemented8LoadBodyEPKhif, symObjAddr: 0x10, symBinAddr: 0x100018AE8, symSize: 0x1108 }
  - { offset: 0x114BF4, size: 0x8, addend: 0x0, symName: __ZNSt3__16vectorINS_10unique_ptrIA_DsNS_14default_deleteIS2_EEEEN9Effekseer15CustomAllocatorIS5_EEE8__appendEm, symObjAddr: 0xBD64, symBinAddr: 0x100022598, symSize: 0x1B0 }
  - { offset: 0x116041, size: 0x8, addend: 0x0, symName: '__ZZN9Effekseer17EffectImplemented8LoadBodyEPKhifENK3$_0clEv', symObjAddr: 0x39E4, symBinAddr: 0x10001BCA8, symSize: 0x21C }
  - { offset: 0x116439, size: 0x8, addend: 0x0, symName: '__ZZN9Effekseer17EffectImplemented8LoadBodyEPKhifENK3$_1clEv', symObjAddr: 0x3C00, symBinAddr: 0x10001BEC4, symSize: 0x174 }
  - { offset: 0x1166CF, size: 0x8, addend: 0x0, symName: __ZNSt3__16vectorIN9Effekseer14InternalScriptENS_9allocatorIS2_EEE8__appendEm, symObjAddr: 0xCCE4, symBinAddr: 0x10002283C, symSize: 0x1DC }
  - { offset: 0x116D0C, size: 0x8, addend: 0x0, symName: __ZN9Effekseer13EffectFactory24OnCheckIsBinarySupportedEPKvi, symObjAddr: 0x14B0, symBinAddr: 0x100019BF0, symSize: 0x18 }
  - { offset: 0x116D56, size: 0x8, addend: 0x0, symName: __ZN9Effekseer13EffectFactory24OnCheckIsReloadSupportedEv, symObjAddr: 0x14C8, symBinAddr: 0x100019C08, symSize: 0x8 }
  - { offset: 0x116DE0, size: 0x8, addend: 0x0, symName: __ZN9Effekseer13EffectFactory9OnLoadingEPNS_6EffectEPKvifPKDs, symObjAddr: 0x14D0, symBinAddr: 0x100019C10, symSize: 0x10 }
  - { offset: 0x117507, size: 0x8, addend: 0x0, symName: __ZN9Effekseer13EffectFactory17OnLoadingResourceEPNS_6EffectEPKviPKDs, symObjAddr: 0x14E0, symBinAddr: 0x100019C20, symSize: 0x18F4 }
  - { offset: 0x1198FB, size: 0x8, addend: 0x0, symName: __ZN9Effekseer13EffectFactory19OnUnloadingResourceEPNS_6EffectE, symObjAddr: 0x2DD4, symBinAddr: 0x10001B514, symSize: 0x5BC }
  - { offset: 0x119906, size: 0x8, addend: 0x0, symName: __ZN9Effekseer13EffectFactory17OnLoadingResourceEPNS_6EffectEPKviPKDs.cold.1, symObjAddr: 0xF218, symBinAddr: 0x10034C680, symSize: 0x24 }
  - { offset: 0x119933, size: 0x8, addend: 0x0, symName: __ZN9Effekseer13EffectFactory17OnLoadingResourceEPNS_6EffectEPKviPKDs.cold.2, symObjAddr: 0xF23C, symBinAddr: 0x10034C6A4, symSize: 0x24 }
  - { offset: 0x119960, size: 0x8, addend: 0x0, symName: __ZN9Effekseer13EffectFactory17OnLoadingResourceEPNS_6EffectEPKviPKDs.cold.3, symObjAddr: 0xF260, symBinAddr: 0x10034C6C8, symSize: 0x24 }
  - { offset: 0x11998D, size: 0x8, addend: 0x0, symName: __ZN9Effekseer13EffectFactory17OnLoadingResourceEPNS_6EffectEPKviPKDs.cold.4, symObjAddr: 0xF284, symBinAddr: 0x10034C6EC, symSize: 0x24 }
  - { offset: 0x1199BA, size: 0x8, addend: 0x0, symName: __ZN9Effekseer13EffectFactory17OnLoadingResourceEPNS_6EffectEPKviPKDs.cold.5, symObjAddr: 0xF2A8, symBinAddr: 0x10034C710, symSize: 0x24 }
  - { offset: 0x1199E7, size: 0x8, addend: 0x0, symName: __ZN9Effekseer13EffectFactory17OnLoadingResourceEPNS_6EffectEPKviPKDs.cold.6, symObjAddr: 0xF2CC, symBinAddr: 0x10034C734, symSize: 0x24 }
  - { offset: 0x119A14, size: 0x8, addend: 0x0, symName: __ZN9Effekseer13EffectFactory17OnLoadingResourceEPNS_6EffectEPKviPKDs.cold.7, symObjAddr: 0xF2F0, symBinAddr: 0x10034C758, symSize: 0x24 }
  - { offset: 0x119A41, size: 0x8, addend: 0x0, symName: __ZN9Effekseer13EffectFactory17OnLoadingResourceEPNS_6EffectEPKviPKDs.cold.8, symObjAddr: 0xF314, symBinAddr: 0x10034C77C, symSize: 0x24 }
  - { offset: 0x119A6E, size: 0x8, addend: 0x0, symName: __ZN9Effekseer13EffectFactory19OnUnloadingResourceEPNS_6EffectE, symObjAddr: 0x2DD4, symBinAddr: 0x10001B514, symSize: 0x5BC }
  - { offset: 0x11A70C, size: 0x8, addend: 0x0, symName: __ZNK9Effekseer13EffectFactory7GetNameEv, symObjAddr: 0x3390, symBinAddr: 0x10001BAD0, symSize: 0xC }
  - { offset: 0x11A7B7, size: 0x8, addend: 0x0, symName: __ZNK9Effekseer13EffectFactory33GetIsResourcesLoadedAutomaticallyEv, symObjAddr: 0x339C, symBinAddr: 0x10001BADC, symSize: 0x8 }
  - { offset: 0x11A912, size: 0x8, addend: 0x0, symName: __ZN9Effekseer13EffectFactoryC2Ev, symObjAddr: 0x33A4, symBinAddr: 0x10001BAE4, symSize: 0x18 }
  - { offset: 0x11AA67, size: 0x8, addend: 0x0, symName: __ZN9Effekseer13EffectFactoryD1Ev, symObjAddr: 0x33D8, symBinAddr: 0x10001BAFC, symSize: 0x4 }
  - { offset: 0x11AA93, size: 0x8, addend: 0x0, symName: __ZN9Effekseer13EffectFactoryD0Ev, symObjAddr: 0x33DC, symBinAddr: 0x10001BB00, symSize: 0x4 }
  - { offset: 0x11AABF, size: 0x8, addend: 0x0, symName: __ZN9Effekseer6Effect6CreateERKNS_6RefPtrINS_7ManagerEEEPKvifPKDs, symObjAddr: 0x33E0, symBinAddr: 0x10001BB04, symSize: 0x4 }
  - { offset: 0x11AB20, size: 0x8, addend: 0x0, symName: __ZN9Effekseer6Effect6CreateERKNS_6RefPtrINS_7ManagerEEEPKvifPKDs, symObjAddr: 0x33E0, symBinAddr: 0x10001BB04, symSize: 0x4 }
  - { offset: 0x11AB57, size: 0x8, addend: 0x0, symName: __ZN9Effekseer17EffectImplemented6CreateERKNS_6RefPtrINS_7ManagerEEEPKvifPKDs, symObjAddr: 0x33E4, symBinAddr: 0x10001BB08, symSize: 0x1A0 }
  - { offset: 0x11B4DF, size: 0x8, addend: 0x0, symName: __ZN9Effekseer17EffectImplemented4LoadEPKvifPKDsNS_19ReloadingThreadTypeE, symObjAddr: 0x4544, symBinAddr: 0x10001C808, symSize: 0x1A4 }
  - { offset: 0x11BC7B, size: 0x8, addend: 0x0, symName: __ZNSt3__16vectorIN9Effekseer6RefPtrINS1_5CurveEEENS1_15CustomAllocatorIS4_EEE8__appendEm, symObjAddr: 0xABA4, symBinAddr: 0x100021414, symSize: 0x21C }
  - { offset: 0x11C36F, size: 0x8, addend: 0x0, symName: __ZNSt3__16vectorIN9Effekseer24ProceduralModelParameterENS1_15CustomAllocatorIS2_EEE8__appendEm, symObjAddr: 0xB9B4, symBinAddr: 0x10002220C, symSize: 0x308 }
  - { offset: 0x11C991, size: 0x8, addend: 0x0, symName: __ZN9Effekseer24ProceduralModelParameter4LoadILb1EEEbRNS_12BinaryReaderIXT_EEEi, symObjAddr: 0xAEE4, symBinAddr: 0x10002173C, symSize: 0xAD0 }
  - { offset: 0x11D108, size: 0x8, addend: 0x0, symName: __ZNSt3__16vectorIN9Effekseer24ProceduralModelParameterENS1_15CustomAllocatorIS2_EEE8__appendEm, symObjAddr: 0xB9B4, symBinAddr: 0x10002220C, symSize: 0x308 }
  - { offset: 0x11D7AF, size: 0x8, addend: 0x0, symName: __ZN9Effekseer17EffectImplemented20ResetReloadingBackupEv, symObjAddr: 0x3D74, symBinAddr: 0x10001C038, symSize: 0x748 }
  - { offset: 0x11D7FB, size: 0x8, addend: 0x0, symName: __ZN9Effekseer17EffectImplemented20ResetReloadingBackupEv, symObjAddr: 0x3D74, symBinAddr: 0x10001C038, symSize: 0x748 }
  - { offset: 0x11D816, size: 0x8, addend: 0x0, symName: __ZN9Effekseer17EffectImplemented20ResetReloadingBackupEv, symObjAddr: 0x3D74, symBinAddr: 0x10001C038, symSize: 0x748 }
  - { offset: 0x11F5B1, size: 0x8, addend: 0x0, symName: __ZNSt3__112basic_stringIDsNS_11char_traitsIDsEENS_9allocatorIDsEEE25__init_copy_ctor_externalEPKDsm, symObjAddr: 0xBCC8, symBinAddr: 0x100022514, symSize: 0x84 }
  - { offset: 0x11F79D, size: 0x8, addend: 0x0, symName: __ZNSt3__110unique_ptrIN9Effekseer21EffectReloadingBackupENS_14default_deleteIS2_EEE5resetB8nn200100EPS2_, symObjAddr: 0x44BC, symBinAddr: 0x10001C780, symSize: 0x88 }
  - { offset: 0x120042, size: 0x8, addend: 0x0, symName: __ZNSt3__16__treeINS_12__value_typeINS_12basic_stringIDsNS_11char_traitsIDsEENS_9allocatorIDsEEEEN9Effekseer21EffectReloadingBackup6HolderINS8_6RefPtrINS8_5CurveEEEEEEENS_19__map_value_compareIS7_SF_NS_4lessIS7_EELb1EEENS5_ISF_EEE7destroyEPNS_11__tree_nodeISF_PvEE, symObjAddr: 0xCFBC, symBinAddr: 0x100022AF0, symSize: 0x68 }
  - { offset: 0x120C4A, size: 0x8, addend: 0x0, symName: __ZNSt3__112basic_stringIDsNS_11char_traitsIDsEENS_9allocatorIDsEEE17__assign_externalEPKDs, symObjAddr: 0xD91C, symBinAddr: 0x100022E40, symSize: 0x2C }
  - { offset: 0x120C81, size: 0x8, addend: 0x0, symName: __ZNSt3__112basic_stringIDsNS_11char_traitsIDsEENS_9allocatorIDsEEE17__assign_externalEPKDs, symObjAddr: 0xD91C, symBinAddr: 0x100022E40, symSize: 0x2C }
  - { offset: 0x120DC3, size: 0x8, addend: 0x0, symName: __ZN9Effekseer6Effect18CreateEffectLoaderENS_6RefPtrINS_13FileInterfaceEEE, symObjAddr: 0x4DAC, symBinAddr: 0x10001C9AC, symSize: 0x84 }
  - { offset: 0x121519, size: 0x8, addend: 0x0, symName: __ZN9Effekseer17EffectImplementedD2Ev, symObjAddr: 0x5290, symBinAddr: 0x10001CA30, symSize: 0x2A4 }
  - { offset: 0x1224F9, size: 0x8, addend: 0x0, symName: __ZN9Effekseer17EffectImplemented5ResetEv, symObjAddr: 0x5534, symBinAddr: 0x10001CCD4, symSize: 0x2AC }
  - { offset: 0x122504, size: 0x8, addend: 0x0, symName: __ZN9Effekseer17EffectImplemented5ResetEv, symObjAddr: 0x5534, symBinAddr: 0x10001CCD4, symSize: 0x2AC }
  - { offset: 0x1239A1, size: 0x8, addend: 0x0, symName: __ZNSt3__112basic_stringIDsNS_11char_traitsIDsEENS_9allocatorIDsEEE17__assign_externalEPKDsm, symObjAddr: 0xD864, symBinAddr: 0x100022D88, symSize: 0xB8 }
  - { offset: 0x1239AC, size: 0x8, addend: 0x0, symName: __ZNSt3__16vectorINS_10unique_ptrIA_DsNS_14default_deleteIS2_EEEEN9Effekseer15CustomAllocatorIS5_EEE16__destroy_vectorclB8nn200100Ev, symObjAddr: 0xD1C4, symBinAddr: 0x100022B58, symSize: 0x114 }
  - { offset: 0x123C60, size: 0x8, addend: 0x0, symName: __ZNSt3__16vectorIN9Effekseer6RefPtrINS1_7TextureEEENS1_15CustomAllocatorIS4_EEE16__destroy_vectorclB8nn200100Ev, symObjAddr: 0xD2D8, symBinAddr: 0x100022C6C, symSize: 0x11C }
  - { offset: 0x12416F, size: 0x8, addend: 0x0, symName: __ZNSt3__16vectorIN9Effekseer6RefPtrINS1_7TextureEEENS1_15CustomAllocatorIS4_EEE16__destroy_vectorclB8nn200100Ev, symObjAddr: 0xD2D8, symBinAddr: 0x100022C6C, symSize: 0x11C }
  - { offset: 0x1244D0, size: 0x8, addend: 0x0, symName: __ZN9Effekseer17EffectImplementedD1Ev, symObjAddr: 0x57E0, symBinAddr: 0x10001CF80, symSize: 0x4 }
  - { offset: 0x1244F2, size: 0x8, addend: 0x0, symName: __ZN9Effekseer17EffectImplementedD1Ev, symObjAddr: 0x57E0, symBinAddr: 0x10001CF80, symSize: 0x4 }
  - { offset: 0x124522, size: 0x8, addend: 0x0, symName: __ZThn8_N9Effekseer17EffectImplementedD1Ev, symObjAddr: 0x57E4, symBinAddr: 0x10001CF84, symSize: 0x8 }
  - { offset: 0x124563, size: 0x8, addend: 0x0, symName: __ZN9Effekseer17EffectImplementedD0Ev, symObjAddr: 0x57EC, symBinAddr: 0x10001CF8C, symSize: 0x14 }
  - { offset: 0x1245D2, size: 0x8, addend: 0x0, symName: __ZThn8_N9Effekseer17EffectImplementedD0Ev, symObjAddr: 0x5800, symBinAddr: 0x10001CFA0, symSize: 0x18 }
  - { offset: 0x124630, size: 0x8, addend: 0x0, symName: __ZNK9Effekseer17EffectImplemented7GetRootEv, symObjAddr: 0x5818, symBinAddr: 0x10001CFB8, symSize: 0x8 }
  - { offset: 0x12465A, size: 0x8, addend: 0x0, symName: __ZNK9Effekseer17EffectImplemented17GetMaginificationEv, symObjAddr: 0x5820, symBinAddr: 0x10001CFC0, symSize: 0x8 }
  - { offset: 0x124682, size: 0x8, addend: 0x0, symName: __ZNK9Effekseer17EffectImplemented28IsDyanamicMagnificationValidEv, symObjAddr: 0x5828, symBinAddr: 0x10001CFC8, symSize: 0x50 }
  - { offset: 0x1246D1, size: 0x8, addend: 0x0, symName: __ZNK9Effekseer17EffectImplemented19GetLoadingParameterEv, symObjAddr: 0x5878, symBinAddr: 0x10001D018, symSize: 0x8 }
  - { offset: 0x12473D, size: 0x8, addend: 0x0, symName: __ZNK9Effekseer17EffectImplemented7GetNameEv, symObjAddr: 0x5880, symBinAddr: 0x10001D020, symSize: 0x1C }
  - { offset: 0x1247E6, size: 0x8, addend: 0x0, symName: __ZN9Effekseer17EffectImplemented7SetNameEPKDs, symObjAddr: 0x589C, symBinAddr: 0x10001D03C, symSize: 0x8 }
  - { offset: 0x12486D, size: 0x8, addend: 0x0, symName: __ZNK9Effekseer17EffectImplemented10GetSettingEv, symObjAddr: 0x58A4, symBinAddr: 0x10001D044, symSize: 0x8 }
  - { offset: 0x124897, size: 0x8, addend: 0x0, symName: __ZNK9Effekseer17EffectImplemented10GetVersionEv, symObjAddr: 0x58AC, symBinAddr: 0x10001D04C, symSize: 0x8 }
  - { offset: 0x1248E3, size: 0x8, addend: 0x0, symName: __ZNK9Effekseer17EffectImplemented13GetColorImageEi, symObjAddr: 0x58B4, symBinAddr: 0x10001D054, symSize: 0x6C }
  - { offset: 0x1249AA, size: 0x8, addend: 0x0, symName: __ZNK9Effekseer17EffectImplemented18GetColorImageCountEv, symObjAddr: 0x5920, symBinAddr: 0x10001D0C0, symSize: 0x10 }
  - { offset: 0x1249D6, size: 0x8, addend: 0x0, symName: __ZNK9Effekseer17EffectImplemented18GetColorImageCountEv, symObjAddr: 0x5920, symBinAddr: 0x10001D0C0, symSize: 0x10 }
  - { offset: 0x124A16, size: 0x8, addend: 0x0, symName: __ZNK9Effekseer17EffectImplemented17GetColorImagePathEi, symObjAddr: 0x5930, symBinAddr: 0x10001D0D0, symSize: 0x50 }
  - { offset: 0x124AD5, size: 0x8, addend: 0x0, symName: __ZNK9Effekseer17EffectImplemented14GetNormalImageEi, symObjAddr: 0x5980, symBinAddr: 0x10001D120, symSize: 0x9C }
  - { offset: 0x124BE3, size: 0x8, addend: 0x0, symName: __ZNK9Effekseer17EffectImplemented19GetNormalImageCountEv, symObjAddr: 0x5A1C, symBinAddr: 0x10001D1BC, symSize: 0x10 }
  - { offset: 0x124C0F, size: 0x8, addend: 0x0, symName: __ZNK9Effekseer17EffectImplemented19GetNormalImageCountEv, symObjAddr: 0x5A1C, symBinAddr: 0x10001D1BC, symSize: 0x10 }
  - { offset: 0x124C2D, size: 0x8, addend: 0x0, symName: __ZNK9Effekseer17EffectImplemented18GetNormalImagePathEi, symObjAddr: 0x5A2C, symBinAddr: 0x10001D1CC, symSize: 0x50 }
  - { offset: 0x124CA7, size: 0x8, addend: 0x0, symName: __ZNK9Effekseer17EffectImplemented18GetDistortionImageEi, symObjAddr: 0x5A7C, symBinAddr: 0x10001D21C, symSize: 0x9C }
  - { offset: 0x124DB5, size: 0x8, addend: 0x0, symName: __ZNK9Effekseer17EffectImplemented23GetDistortionImageCountEv, symObjAddr: 0x5B18, symBinAddr: 0x10001D2B8, symSize: 0x10 }
  - { offset: 0x124DE1, size: 0x8, addend: 0x0, symName: __ZNK9Effekseer17EffectImplemented23GetDistortionImageCountEv, symObjAddr: 0x5B18, symBinAddr: 0x10001D2B8, symSize: 0x10 }
  - { offset: 0x124DFF, size: 0x8, addend: 0x0, symName: __ZNK9Effekseer17EffectImplemented22GetDistortionImagePathEi, symObjAddr: 0x5B28, symBinAddr: 0x10001D2C8, symSize: 0x50 }
  - { offset: 0x124E9B, size: 0x8, addend: 0x0, symName: __ZNK9Effekseer17EffectImplemented7GetWaveEi, symObjAddr: 0x5B78, symBinAddr: 0x10001D318, symSize: 0x6C }
  - { offset: 0x124F62, size: 0x8, addend: 0x0, symName: __ZNK9Effekseer17EffectImplemented12GetWaveCountEv, symObjAddr: 0x5BE4, symBinAddr: 0x10001D384, symSize: 0x10 }
  - { offset: 0x124F8E, size: 0x8, addend: 0x0, symName: __ZNK9Effekseer17EffectImplemented12GetWaveCountEv, symObjAddr: 0x5BE4, symBinAddr: 0x10001D384, symSize: 0x10 }
  - { offset: 0x124FAC, size: 0x8, addend: 0x0, symName: __ZNK9Effekseer17EffectImplemented11GetWavePathEi, symObjAddr: 0x5BF4, symBinAddr: 0x10001D394, symSize: 0x50 }
  - { offset: 0x125048, size: 0x8, addend: 0x0, symName: __ZNK9Effekseer17EffectImplemented8GetModelEi, symObjAddr: 0x5C44, symBinAddr: 0x10001D3E4, symSize: 0x6C }
  - { offset: 0x12510F, size: 0x8, addend: 0x0, symName: __ZNK9Effekseer17EffectImplemented13GetModelCountEv, symObjAddr: 0x5CB0, symBinAddr: 0x10001D450, symSize: 0x10 }
  - { offset: 0x12513B, size: 0x8, addend: 0x0, symName: __ZNK9Effekseer17EffectImplemented13GetModelCountEv, symObjAddr: 0x5CB0, symBinAddr: 0x10001D450, symSize: 0x10 }
  - { offset: 0x125159, size: 0x8, addend: 0x0, symName: __ZNK9Effekseer17EffectImplemented12GetModelPathEi, symObjAddr: 0x5CC0, symBinAddr: 0x10001D460, symSize: 0x50 }
  - { offset: 0x1251F5, size: 0x8, addend: 0x0, symName: __ZNK9Effekseer17EffectImplemented11GetMaterialEi, symObjAddr: 0x5D10, symBinAddr: 0x10001D4B0, symSize: 0x6C }
  - { offset: 0x1252BC, size: 0x8, addend: 0x0, symName: __ZNK9Effekseer17EffectImplemented16GetMaterialCountEv, symObjAddr: 0x5D7C, symBinAddr: 0x10001D51C, symSize: 0x10 }
  - { offset: 0x1252E8, size: 0x8, addend: 0x0, symName: __ZNK9Effekseer17EffectImplemented16GetMaterialCountEv, symObjAddr: 0x5D7C, symBinAddr: 0x10001D51C, symSize: 0x10 }
  - { offset: 0x125306, size: 0x8, addend: 0x0, symName: __ZNK9Effekseer17EffectImplemented15GetMaterialPathEi, symObjAddr: 0x5D8C, symBinAddr: 0x10001D52C, symSize: 0x50 }
  - { offset: 0x1253A2, size: 0x8, addend: 0x0, symName: __ZNK9Effekseer17EffectImplemented8GetCurveEi, symObjAddr: 0x5DDC, symBinAddr: 0x10001D57C, symSize: 0x6C }
  - { offset: 0x125469, size: 0x8, addend: 0x0, symName: __ZNK9Effekseer17EffectImplemented13GetCurveCountEv, symObjAddr: 0x5E48, symBinAddr: 0x10001D5E8, symSize: 0x10 }
  - { offset: 0x125495, size: 0x8, addend: 0x0, symName: __ZNK9Effekseer17EffectImplemented13GetCurveCountEv, symObjAddr: 0x5E48, symBinAddr: 0x10001D5E8, symSize: 0x10 }
  - { offset: 0x1254B3, size: 0x8, addend: 0x0, symName: __ZNK9Effekseer17EffectImplemented12GetCurvePathEi, symObjAddr: 0x5E58, symBinAddr: 0x10001D5F8, symSize: 0x50 }
  - { offset: 0x12552D, size: 0x8, addend: 0x0, symName: __ZNK9Effekseer17EffectImplemented18GetProceduralModelEi, symObjAddr: 0x5EA8, symBinAddr: 0x10001D648, symSize: 0x6C }
  - { offset: 0x1255F4, size: 0x8, addend: 0x0, symName: __ZNK9Effekseer17EffectImplemented23GetProceduralModelCountEv, symObjAddr: 0x5F14, symBinAddr: 0x10001D6B4, symSize: 0x1C }
  - { offset: 0x125620, size: 0x8, addend: 0x0, symName: __ZNK9Effekseer17EffectImplemented23GetProceduralModelCountEv, symObjAddr: 0x5F14, symBinAddr: 0x10001D6B4, symSize: 0x1C }
  - { offset: 0x125660, size: 0x8, addend: 0x0, symName: __ZNK9Effekseer17EffectImplemented27GetProceduralModelParameterEi, symObjAddr: 0x5F30, symBinAddr: 0x10001D6D0, symSize: 0x54 }
  - { offset: 0x1256DB, size: 0x8, addend: 0x0, symName: __ZN9Effekseer17EffectImplemented10SetTextureEiNS_11TextureTypeENS_6RefPtrINS_7TextureEEE, symObjAddr: 0x5F84, symBinAddr: 0x10001D724, symSize: 0x204 }
  - { offset: 0x125C8B, size: 0x8, addend: 0x0, symName: __ZN9Effekseer17EffectImplemented8SetSoundEiNS_6RefPtrINS_9SoundDataEEE, symObjAddr: 0x6188, symBinAddr: 0x10001D928, symSize: 0x128 }
  - { offset: 0x125C96, size: 0x8, addend: 0x0, symName: __ZN9Effekseer17EffectImplemented10SetTextureEiNS_11TextureTypeENS_6RefPtrINS_7TextureEEE.cold.2, symObjAddr: 0xF480, symBinAddr: 0x10034C7C8, symSize: 0x28 }
  - { offset: 0x125CAE, size: 0x8, addend: 0x0, symName: __ZN9Effekseer17EffectImplemented10SetTextureEiNS_11TextureTypeENS_6RefPtrINS_7TextureEEE.cold.1, symObjAddr: 0xF458, symBinAddr: 0x10034C7A0, symSize: 0x28 }
  - { offset: 0x125CC6, size: 0x8, addend: 0x0, symName: __ZN9Effekseer17EffectImplemented10SetTextureEiNS_11TextureTypeENS_6RefPtrINS_7TextureEEE.cold.3, symObjAddr: 0xF4A8, symBinAddr: 0x10034C7F0, symSize: 0x28 }
  - { offset: 0x125CDE, size: 0x8, addend: 0x0, symName: __ZN9Effekseer17EffectImplemented8SetSoundEiNS_6RefPtrINS_9SoundDataEEE, symObjAddr: 0x6188, symBinAddr: 0x10001D928, symSize: 0x128 }
  - { offset: 0x125FD3, size: 0x8, addend: 0x0, symName: __ZN9Effekseer17EffectImplemented8SetModelEiNS_6RefPtrINS_5ModelEEE, symObjAddr: 0x62B0, symBinAddr: 0x10001DA50, symSize: 0x128 }
  - { offset: 0x125FDE, size: 0x8, addend: 0x0, symName: __ZN9Effekseer17EffectImplemented8SetSoundEiNS_6RefPtrINS_9SoundDataEEE.cold.1, symObjAddr: 0xF4D0, symBinAddr: 0x10034C818, symSize: 0x28 }
  - { offset: 0x125FF6, size: 0x8, addend: 0x0, symName: __ZN9Effekseer17EffectImplemented8SetModelEiNS_6RefPtrINS_5ModelEEE, symObjAddr: 0x62B0, symBinAddr: 0x10001DA50, symSize: 0x128 }
  - { offset: 0x1262EB, size: 0x8, addend: 0x0, symName: __ZN9Effekseer17EffectImplemented11SetMaterialEiNS_6RefPtrINS_8MaterialEEE, symObjAddr: 0x63D8, symBinAddr: 0x10001DB78, symSize: 0x128 }
  - { offset: 0x1262F6, size: 0x8, addend: 0x0, symName: __ZN9Effekseer17EffectImplemented8SetModelEiNS_6RefPtrINS_5ModelEEE.cold.1, symObjAddr: 0xF4F8, symBinAddr: 0x10034C840, symSize: 0x28 }
  - { offset: 0x12630E, size: 0x8, addend: 0x0, symName: __ZN9Effekseer17EffectImplemented11SetMaterialEiNS_6RefPtrINS_8MaterialEEE, symObjAddr: 0x63D8, symBinAddr: 0x10001DB78, symSize: 0x128 }
  - { offset: 0x126603, size: 0x8, addend: 0x0, symName: __ZN9Effekseer17EffectImplemented8SetCurveEiNS_6RefPtrINS_5CurveEEE, symObjAddr: 0x6500, symBinAddr: 0x10001DCA0, symSize: 0x128 }
  - { offset: 0x12660E, size: 0x8, addend: 0x0, symName: __ZN9Effekseer17EffectImplemented11SetMaterialEiNS_6RefPtrINS_8MaterialEEE.cold.1, symObjAddr: 0xF520, symBinAddr: 0x10034C868, symSize: 0x28 }
  - { offset: 0x126626, size: 0x8, addend: 0x0, symName: __ZN9Effekseer17EffectImplemented8SetCurveEiNS_6RefPtrINS_5CurveEEE, symObjAddr: 0x6500, symBinAddr: 0x10001DCA0, symSize: 0x128 }
  - { offset: 0x12691B, size: 0x8, addend: 0x0, symName: __ZN9Effekseer17EffectImplemented18SetProceduralModelEiNS_6RefPtrINS_5ModelEEE, symObjAddr: 0x6628, symBinAddr: 0x10001DDC8, symSize: 0x128 }
  - { offset: 0x126926, size: 0x8, addend: 0x0, symName: __ZN9Effekseer17EffectImplemented8SetCurveEiNS_6RefPtrINS_5CurveEEE.cold.1, symObjAddr: 0xF548, symBinAddr: 0x10034C890, symSize: 0x28 }
  - { offset: 0x12693E, size: 0x8, addend: 0x0, symName: __ZN9Effekseer17EffectImplemented18SetProceduralModelEiNS_6RefPtrINS_5ModelEEE, symObjAddr: 0x6628, symBinAddr: 0x10001DDC8, symSize: 0x128 }
  - { offset: 0x126C33, size: 0x8, addend: 0x0, symName: __ZN9Effekseer17EffectImplemented6ReloadEPNS_6RefPtrINS_7ManagerEEEiPKviPKDsNS_19ReloadingThreadTypeE, symObjAddr: 0x6750, symBinAddr: 0x10001DEF0, symSize: 0x1C8 }
  - { offset: 0x126C3E, size: 0x8, addend: 0x0, symName: __ZN9Effekseer17EffectImplemented18SetProceduralModelEiNS_6RefPtrINS_5ModelEEE.cold.1, symObjAddr: 0xF570, symBinAddr: 0x10034C8B8, symSize: 0x28 }
  - { offset: 0x126CFB, size: 0x8, addend: 0x0, symName: __ZN9Effekseer17EffectImplemented6ReloadEPNS_6RefPtrINS_7ManagerEEEiPKviPKDsNS_19ReloadingThreadTypeE, symObjAddr: 0x6750, symBinAddr: 0x10001DEF0, symSize: 0x1C8 }
  - { offset: 0x1271E7, size: 0x8, addend: 0x0, symName: __ZN9Effekseer17EffectImplemented6ReloadEPNS_6RefPtrINS_7ManagerEEEiPKDsS6_NS_19ReloadingThreadTypeE, symObjAddr: 0x6918, symBinAddr: 0x10001E0B8, symSize: 0x328 }
  - { offset: 0x127B25, size: 0x8, addend: 0x0, symName: __ZN9Effekseer17EffectImplemented15ReloadResourcesEPKviPKDs, symObjAddr: 0x6C40, symBinAddr: 0x10001E3E0, symSize: 0x14F0 }
  - { offset: 0x129B83, size: 0x8, addend: 0x0, symName: __ZN9Effekseer21EffectReloadingBackup16HolderCollectionINS_6RefPtrINS_7TextureEEEE3PopEPKDsRS4_, symObjAddr: 0x8130, symBinAddr: 0x10001F8D0, symSize: 0x1F8 }
  - { offset: 0x129B8E, size: 0x8, addend: 0x0, symName: __ZN9Effekseer21EffectReloadingBackup16HolderCollectionINS_6RefPtrINS_7TextureEEEE3PopEPKDsRS4_, symObjAddr: 0x8130, symBinAddr: 0x10001F8D0, symSize: 0x1F8 }
  - { offset: 0x12B8D9, size: 0x8, addend: 0x0, symName: __ZN9Effekseer17EffectImplemented15UnloadResourcesEPKDs, symObjAddr: 0x8B08, symBinAddr: 0x10001FAC8, symSize: 0x15A0 }
  - { offset: 0x12B8E4, size: 0x8, addend: 0x0, symName: __ZN9Effekseer17EffectImplemented15ReloadResourcesEPKviPKDs.cold.1, symObjAddr: 0xF598, symBinAddr: 0x10034C8E0, symSize: 0x28 }
  - { offset: 0x12BC00, size: 0x8, addend: 0x0, symName: __ZNSt3__16__treeINS_12__value_typeINS_12basic_stringIDsNS_11char_traitsIDsEENS_9allocatorIDsEEEEN9Effekseer21EffectReloadingBackup6HolderINS8_6RefPtrINS8_7TextureEEEEEEENS_19__map_value_compareIS7_SF_NS_4lessIS7_EELb1EEENS5_ISF_EEE4findIS7_EENS_15__tree_iteratorISF_PNS_11__tree_nodeISF_PvEElEERKT_, symObjAddr: 0xDA98, symBinAddr: 0x100022FBC, symSize: 0x124 }
  - { offset: 0x12BC47, size: 0x8, addend: 0x0, symName: __ZNSt3__16__treeINS_12__value_typeINS_12basic_stringIDsNS_11char_traitsIDsEENS_9allocatorIDsEEEEN9Effekseer21EffectReloadingBackup6HolderINS8_6RefPtrINS8_7TextureEEEEEEENS_19__map_value_compareIS7_SF_NS_4lessIS7_EELb1EEENS5_ISF_EEE4findIS7_EENS_15__tree_iteratorISF_PNS_11__tree_nodeISF_PvEElEERKT_, symObjAddr: 0xDA98, symBinAddr: 0x100022FBC, symSize: 0x124 }
  - { offset: 0x12D16B, size: 0x8, addend: 0x0, symName: __ZN9Effekseer17EffectImplemented15UnloadResourcesEPKDs, symObjAddr: 0x8B08, symBinAddr: 0x10001FAC8, symSize: 0x15A0 }
  - { offset: 0x12F5B6, size: 0x8, addend: 0x0, symName: __ZN9Effekseer21EffectReloadingBackup16HolderCollectionINS_6RefPtrINS_7TextureEEEE4PushEPKDsS4_, symObjAddr: 0xA0A8, symBinAddr: 0x100021068, symSize: 0x1BC }
  - { offset: 0x1309F2, size: 0x8, addend: 0x0, symName: __ZN9Effekseer17EffectImplemented15UnloadResourcesEv, symObjAddr: 0xA954, symBinAddr: 0x100021224, symSize: 0x8 }
  - { offset: 0x130A31, size: 0x8, addend: 0x0, symName: __ZNSt3__16__treeINS_12__value_typeINS_12basic_stringIDsNS_11char_traitsIDsEENS_9allocatorIDsEEEEN9Effekseer21EffectReloadingBackup6HolderINS8_6RefPtrINS8_7TextureEEEEEEENS_19__map_value_compareIS7_SF_NS_4lessIS7_EELb1EEENS5_ISF_EEE25__emplace_unique_key_argsIS7_JRKNS_21piecewise_construct_tENS_5tupleIJRKS7_EEENSQ_IJEEEEEENS_4pairINS_15__tree_iteratorISF_PNS_11__tree_nodeISF_PvEElEEbEERKT_DpOT0_, symObjAddr: 0xE3D0, symBinAddr: 0x1000230E0, symSize: 0x1B0 }
  - { offset: 0x130FC2, size: 0x8, addend: 0x0, symName: __ZN9Effekseer21EffectReloadingBackup16HolderCollectionINS_6RefPtrINS_7TextureEEEE4PushEPKDsS4_.cold.1, symObjAddr: 0xF5C0, symBinAddr: 0x10034C908, symSize: 0x24 }
  - { offset: 0x131FBA, size: 0x8, addend: 0x0, symName: __ZN9Effekseer17EffectImplemented15UnloadResourcesEv, symObjAddr: 0xA954, symBinAddr: 0x100021224, symSize: 0x8 }
  - { offset: 0x1323FB, size: 0x8, addend: 0x0, symName: __ZNSt3__110__function12__value_funcIFvPN9Effekseer10EffectNodeERNS2_18EffectInstanceTermEEE4swapB8nn200100ERS8_, symObjAddr: 0xEF94, symBinAddr: 0x100023448, symSize: 0x164 }
  - { offset: 0x1325D7, size: 0x8, addend: 0x0, symName: __ZN9Effekseer17EffectImplemented6AddRefEv, symObjAddr: 0xAAD0, symBinAddr: 0x100021340, symSize: 0x14 }
  - { offset: 0x1325FB, size: 0x8, addend: 0x0, symName: __ZN9Effekseer17EffectImplemented6AddRefEv, symObjAddr: 0xAAD0, symBinAddr: 0x100021340, symSize: 0x14 }
  - { offset: 0x132709, size: 0x8, addend: 0x0, symName: __ZN9Effekseer17EffectImplemented6GetRefEv, symObjAddr: 0xAAE4, symBinAddr: 0x100021354, symSize: 0xC }
  - { offset: 0x13272D, size: 0x8, addend: 0x0, symName: __ZN9Effekseer17EffectImplemented6GetRefEv, symObjAddr: 0xAAE4, symBinAddr: 0x100021354, symSize: 0xC }
  - { offset: 0x1327CD, size: 0x8, addend: 0x0, symName: __ZN9Effekseer17EffectImplemented7ReleaseEv, symObjAddr: 0xAAF0, symBinAddr: 0x100021360, symSize: 0x3C }
  - { offset: 0x1328D7, size: 0x8, addend: 0x0, symName: __ZNK9Effekseer17EffectImplemented23GetDefaultDynamicInputsEv, symObjAddr: 0xAB2C, symBinAddr: 0x10002139C, symSize: 0x14 }
  - { offset: 0x1328FC, size: 0x8, addend: 0x0, symName: __ZN9Effekseer17EffectImplemented14GetImplementedEv, symObjAddr: 0xAB40, symBinAddr: 0x1000213B0, symSize: 0x4 }
  - { offset: 0x132921, size: 0x8, addend: 0x0, symName: __ZNK9Effekseer17EffectImplemented14GetImplementedEv, symObjAddr: 0xAB44, symBinAddr: 0x1000213B4, symSize: 0x4 }
  - { offset: 0x13295C, size: 0x8, addend: 0x0, symName: __ZThn8_N9Effekseer17EffectImplemented6AddRefEv, symObjAddr: 0xAB48, symBinAddr: 0x1000213B8, symSize: 0x14 }
  - { offset: 0x132977, size: 0x8, addend: 0x0, symName: __ZThn8_N9Effekseer17EffectImplemented6AddRefEv, symObjAddr: 0xAB48, symBinAddr: 0x1000213B8, symSize: 0x14 }
  - { offset: 0x132993, size: 0x8, addend: 0x0, symName: __ZThn8_N9Effekseer17EffectImplemented6AddRefEv, symObjAddr: 0xAB48, symBinAddr: 0x1000213B8, symSize: 0x14 }
  - { offset: 0x132AA4, size: 0x8, addend: 0x0, symName: __ZThn8_N9Effekseer17EffectImplemented6GetRefEv, symObjAddr: 0xAB5C, symBinAddr: 0x1000213CC, symSize: 0xC }
  - { offset: 0x132ABF, size: 0x8, addend: 0x0, symName: __ZThn8_N9Effekseer17EffectImplemented6GetRefEv, symObjAddr: 0xAB5C, symBinAddr: 0x1000213CC, symSize: 0xC }
  - { offset: 0x132ADB, size: 0x8, addend: 0x0, symName: __ZThn8_N9Effekseer17EffectImplemented6GetRefEv, symObjAddr: 0xAB5C, symBinAddr: 0x1000213CC, symSize: 0xC }
  - { offset: 0x132B72, size: 0x8, addend: 0x0, symName: __ZThn8_N9Effekseer17EffectImplemented7ReleaseEv, symObjAddr: 0xAB68, symBinAddr: 0x1000213D8, symSize: 0x3C }
  - { offset: 0x1330C8, size: 0x8, addend: 0x0, symName: __ZNSt3__114__split_bufferIN9Effekseer6RefPtrINS1_5CurveEEERNS1_15CustomAllocatorIS4_EEED2Ev, symObjAddr: 0xADD8, symBinAddr: 0x100021630, symSize: 0x10C }
  - { offset: 0x1332F1, size: 0x8, addend: 0x0, symName: __ZN9Effekseer24ProceduralModelParameter4LoadILb1EEEbRNS_12BinaryReaderIXT_EEEi, symObjAddr: 0xAEE4, symBinAddr: 0x10002173C, symSize: 0xAD0 }
  - { offset: 0x133581, size: 0x8, addend: 0x0, symName: __ZN9Effekseer24ProceduralModelParameter4LoadILb1EEEbRNS_12BinaryReaderIXT_EEEi.cold.1, symObjAddr: 0xF674, symBinAddr: 0x10034C92C, symSize: 0x28 }
  - { offset: 0x1338CD, size: 0x8, addend: 0x0, symName: __ZNSt3__112basic_stringIDsNS_11char_traitsIDsEENS_9allocatorIDsEEE25__init_copy_ctor_externalEPKDsm, symObjAddr: 0xBCC8, symBinAddr: 0x100022514, symSize: 0x84 }
  - { offset: 0x133B8E, size: 0x8, addend: 0x0, symName: __ZNSt3__114__split_bufferINS_10unique_ptrIA_DsNS_14default_deleteIS2_EEEERN9Effekseer15CustomAllocatorIS5_EEED2Ev, symObjAddr: 0xBF20, symBinAddr: 0x100022748, symSize: 0xF4 }
  - { offset: 0x133E2A, size: 0x8, addend: 0x0, symName: __ZNSt3__114__split_bufferINS_10unique_ptrIA_DsNS_14default_deleteIS2_EEEERN9Effekseer15CustomAllocatorIS5_EEED2Ev, symObjAddr: 0xBF20, symBinAddr: 0x100022748, symSize: 0xF4 }
  - { offset: 0x135508, size: 0x8, addend: 0x0, symName: __ZNSt3__16vectorIN9Effekseer14InternalScriptENS_9allocatorIS2_EEE8__appendEm, symObjAddr: 0xCCE4, symBinAddr: 0x10002283C, symSize: 0x1DC }
  - { offset: 0x135965, size: 0x8, addend: 0x0, symName: __ZNSt3__19allocatorIN9Effekseer14InternalScriptEE9constructB8nn200100IS2_JS2_EEEvPT_DpOT0_, symObjAddr: 0xCECC, symBinAddr: 0x100022A18, symSize: 0xD8 }
  - { offset: 0x13604B, size: 0x8, addend: 0x0, symName: __ZNSt3__19allocatorIN9Effekseer14InternalScriptEE9constructB8nn200100IS2_JS2_EEEvPT_DpOT0_, symObjAddr: 0xCECC, symBinAddr: 0x100022A18, symSize: 0xD8 }
  - { offset: 0x136520, size: 0x8, addend: 0x0, symName: __ZNSt3__16__treeINS_12__value_typeINS_12basic_stringIDsNS_11char_traitsIDsEENS_9allocatorIDsEEEEN9Effekseer21EffectReloadingBackup6HolderINS8_6RefPtrINS8_5CurveEEEEEEENS_19__map_value_compareIS7_SF_NS_4lessIS7_EELb1EEENS5_ISF_EEE7destroyEPNS_11__tree_nodeISF_PvEE, symObjAddr: 0xCFBC, symBinAddr: 0x100022AF0, symSize: 0x68 }
  - { offset: 0x136643, size: 0x8, addend: 0x0, symName: __ZNSt3__112basic_stringIDsNS_11char_traitsIDsEENS_9allocatorIDsEEE17__assign_externalEPKDsm, symObjAddr: 0xD864, symBinAddr: 0x100022D88, symSize: 0xB8 }
  - { offset: 0x1368F2, size: 0x8, addend: 0x0, symName: __ZNSt3__112basic_stringIDsNS_11char_traitsIDsEENS_9allocatorIDsEEE21__grow_by_and_replaceEmmmmmmPKDs, symObjAddr: 0xD948, symBinAddr: 0x100022E6C, symSize: 0x150 }
  - { offset: 0x136CFB, size: 0x8, addend: 0x0, symName: __ZNSt3__16__treeINS_12__value_typeINS_12basic_stringIDsNS_11char_traitsIDsEENS_9allocatorIDsEEEEN9Effekseer21EffectReloadingBackup6HolderINS8_6RefPtrINS8_7TextureEEEEEEENS_19__map_value_compareIS7_SF_NS_4lessIS7_EELb1EEENS5_ISF_EEE4findIS7_EENS_15__tree_iteratorISF_PNS_11__tree_nodeISF_PvEElEERKT_, symObjAddr: 0xDA98, symBinAddr: 0x100022FBC, symSize: 0x124 }
  - { offset: 0x1382C2, size: 0x8, addend: 0x0, symName: '__ZNSt3__110__function6__funcIZNK9Effekseer17EffectImplemented13CalculateTermEvE3$_0NS_9allocatorIS4_EEFvPNS2_10EffectNodeERNS2_18EffectInstanceTermEEED1Ev', symObjAddr: 0xEDDC, symBinAddr: 0x100023290, symSize: 0x4 }
  - { offset: 0x1382EE, size: 0x8, addend: 0x0, symName: '__ZNSt3__110__function6__funcIZNK9Effekseer17EffectImplemented13CalculateTermEvE3$_0NS_9allocatorIS4_EEFvPNS2_10EffectNodeERNS2_18EffectInstanceTermEEED0Ev', symObjAddr: 0xEDE0, symBinAddr: 0x100023294, symSize: 0x4 }
  - { offset: 0x138404, size: 0x8, addend: 0x0, symName: '__ZNKSt3__110__function6__funcIZNK9Effekseer17EffectImplemented13CalculateTermEvE3$_0NS_9allocatorIS4_EEFvPNS2_10EffectNodeERNS2_18EffectInstanceTermEEE7__cloneEv', symObjAddr: 0xEDE4, symBinAddr: 0x100023298, symSize: 0x38 }
  - { offset: 0x138611, size: 0x8, addend: 0x0, symName: '__ZNKSt3__110__function6__funcIZNK9Effekseer17EffectImplemented13CalculateTermEvE3$_0NS_9allocatorIS4_EEFvPNS2_10EffectNodeERNS2_18EffectInstanceTermEEE7__cloneEPNS0_6__baseISB_EE', symObjAddr: 0xEE1C, symBinAddr: 0x1000232D0, symSize: 0x18 }
  - { offset: 0x138646, size: 0x8, addend: 0x0, symName: '__ZNKSt3__110__function6__funcIZNK9Effekseer17EffectImplemented13CalculateTermEvE3$_0NS_9allocatorIS4_EEFvPNS2_10EffectNodeERNS2_18EffectInstanceTermEEE7__cloneEPNS0_6__baseISB_EE', symObjAddr: 0xEE1C, symBinAddr: 0x1000232D0, symSize: 0x18 }
  - { offset: 0x138674, size: 0x8, addend: 0x0, symName: '__ZNKSt3__110__function6__funcIZNK9Effekseer17EffectImplemented13CalculateTermEvE3$_0NS_9allocatorIS4_EEFvPNS2_10EffectNodeERNS2_18EffectInstanceTermEEE7__cloneEPNS0_6__baseISB_EE', symObjAddr: 0xEE1C, symBinAddr: 0x1000232D0, symSize: 0x18 }
  - { offset: 0x138703, size: 0x8, addend: 0x0, symName: '__ZNSt3__110__function6__funcIZNK9Effekseer17EffectImplemented13CalculateTermEvE3$_0NS_9allocatorIS4_EEFvPNS2_10EffectNodeERNS2_18EffectInstanceTermEEE7destroyEv', symObjAddr: 0xEE34, symBinAddr: 0x1000232E8, symSize: 0x4 }
  - { offset: 0x138757, size: 0x8, addend: 0x0, symName: '__ZNSt3__110__function6__funcIZNK9Effekseer17EffectImplemented13CalculateTermEvE3$_0NS_9allocatorIS4_EEFvPNS2_10EffectNodeERNS2_18EffectInstanceTermEEE18destroy_deallocateEv', symObjAddr: 0xEE38, symBinAddr: 0x1000232EC, symSize: 0x4 }
  - { offset: 0x13878A, size: 0x8, addend: 0x0, symName: '__ZNSt3__110__function6__funcIZNK9Effekseer17EffectImplemented13CalculateTermEvE3$_0NS_9allocatorIS4_EEFvPNS2_10EffectNodeERNS2_18EffectInstanceTermEEE18destroy_deallocateEv', symObjAddr: 0xEE38, symBinAddr: 0x1000232EC, symSize: 0x4 }
  - { offset: 0x1387AC, size: 0x8, addend: 0x0, symName: '__ZNSt3__110__function6__funcIZNK9Effekseer17EffectImplemented13CalculateTermEvE3$_0NS_9allocatorIS4_EEFvPNS2_10EffectNodeERNS2_18EffectInstanceTermEEE18destroy_deallocateEv', symObjAddr: 0xEE38, symBinAddr: 0x1000232EC, symSize: 0x4 }
  - { offset: 0x1387DD, size: 0x8, addend: 0x0, symName: '__ZNSt3__110__function6__funcIZNK9Effekseer17EffectImplemented13CalculateTermEvE3$_0NS_9allocatorIS4_EEFvPNS2_10EffectNodeERNS2_18EffectInstanceTermEEE18destroy_deallocateEv', symObjAddr: 0xEE38, symBinAddr: 0x1000232EC, symSize: 0x4 }
  - { offset: 0x1388C1, size: 0x8, addend: 0x0, symName: '__ZNSt3__110__function6__funcIZNK9Effekseer17EffectImplemented13CalculateTermEvE3$_0NS_9allocatorIS4_EEFvPNS2_10EffectNodeERNS2_18EffectInstanceTermEEEclEOS8_SA_', symObjAddr: 0xEE3C, symBinAddr: 0x1000232F0, symSize: 0xE8 }
  - { offset: 0x138A82, size: 0x8, addend: 0x0, symName: '__ZNKSt3__110__function6__funcIZNK9Effekseer17EffectImplemented13CalculateTermEvE3$_0NS_9allocatorIS4_EEFvPNS2_10EffectNodeERNS2_18EffectInstanceTermEEE6targetERKSt9type_info', symObjAddr: 0xEF24, symBinAddr: 0x1000233D8, symSize: 0x64 }
  - { offset: 0x138AE5, size: 0x8, addend: 0x0, symName: '__ZNKSt3__110__function6__funcIZNK9Effekseer17EffectImplemented13CalculateTermEvE3$_0NS_9allocatorIS4_EEFvPNS2_10EffectNodeERNS2_18EffectInstanceTermEEE6targetERKSt9type_info', symObjAddr: 0xEF24, symBinAddr: 0x1000233D8, symSize: 0x64 }
  - { offset: 0x138BAF, size: 0x8, addend: 0x0, symName: '__ZNKSt3__110__function6__funcIZNK9Effekseer17EffectImplemented13CalculateTermEvE3$_0NS_9allocatorIS4_EEFvPNS2_10EffectNodeERNS2_18EffectInstanceTermEEE11target_typeEv', symObjAddr: 0xEF88, symBinAddr: 0x10002343C, symSize: 0xC }
  - { offset: 0x138BD7, size: 0x8, addend: 0x0, symName: _OUTLINED_FUNCTION_0, symObjAddr: 0xF69C, symBinAddr: 0x1000235AC, symSize: 0x8 }
  - { offset: 0x138BEF, size: 0x8, addend: 0x0, symName: _OUTLINED_FUNCTION_1, symObjAddr: 0xF6A4, symBinAddr: 0x1000235B4, symSize: 0x8 }
  - { offset: 0x138C07, size: 0x8, addend: 0x0, symName: _OUTLINED_FUNCTION_2, symObjAddr: 0xF6AC, symBinAddr: 0x1000235BC, symSize: 0x8 }
  - { offset: 0x138C1F, size: 0x8, addend: 0x0, symName: _OUTLINED_FUNCTION_3, symObjAddr: 0xF6B4, symBinAddr: 0x1000235C4, symSize: 0x8 }
  - { offset: 0x138C37, size: 0x8, addend: 0x0, symName: _OUTLINED_FUNCTION_4, symObjAddr: 0xF6BC, symBinAddr: 0x1000235CC, symSize: 0x8 }
  - { offset: 0x138C4F, size: 0x8, addend: 0x0, symName: _OUTLINED_FUNCTION_5, symObjAddr: 0xF6C4, symBinAddr: 0x1000235D4, symSize: 0x8 }
  - { offset: 0x138C67, size: 0x8, addend: 0x0, symName: _OUTLINED_FUNCTION_6, symObjAddr: 0xF6CC, symBinAddr: 0x1000235DC, symSize: 0x8 }
  - { offset: 0x138C7F, size: 0x8, addend: 0x0, symName: _OUTLINED_FUNCTION_7, symObjAddr: 0xF6D4, symBinAddr: 0x1000235E4, symSize: 0x8 }
  - { offset: 0x138C97, size: 0x8, addend: 0x0, symName: _OUTLINED_FUNCTION_8, symObjAddr: 0xF6DC, symBinAddr: 0x1000235EC, symSize: 0x8 }
  - { offset: 0x13ABC1, size: 0x8, addend: 0x0, symName: __ZN9Effekseer21EffectNodeImplementedC2EPNS_6EffectERPh, symObjAddr: 0x0, symBinAddr: 0x1000235F4, symSize: 0x450 }
  - { offset: 0x165E64, size: 0x8, addend: 0x0, symName: __ZNSt3__16vectorINS_5arrayIfLm4EEENS_9allocatorIS2_EEE8__appendEm, symObjAddr: 0x4324, symBinAddr: 0x100027874, symSize: 0x120 }
  - { offset: 0x168CF7, size: 0x8, addend: 0x0, symName: __ZN9Effekseer21EffectNodeImplementedC2EPNS_6EffectERPh, symObjAddr: 0x0, symBinAddr: 0x1000235F4, symSize: 0x450 }
  - { offset: 0x169F50, size: 0x8, addend: 0x0, symName: __ZN9Effekseer21EffectNodeImplemented14AdjustSettingsERKNS_6RefPtrINS_7SettingEEE, symObjAddr: 0x454, symBinAddr: 0x100023A44, symSize: 0x438 }
  - { offset: 0x16A22E, size: 0x8, addend: 0x0, symName: __ZN9Effekseer20TranslationParameter7MagnifyEfRNS_22DynamicFactorParameterE, symObjAddr: 0x88C, symBinAddr: 0x100023E7C, symSize: 0x118 }
  - { offset: 0x16A3FE, size: 0x8, addend: 0x0, symName: __ZN9Effekseer27ParameterGenerationLocation22MakeCoordinateSystemLHEv, symObjAddr: 0x9A4, symBinAddr: 0x100023F94, symSize: 0xF0 }
  - { offset: 0x16A6A0, size: 0x8, addend: 0x0, symName: __ZN9Effekseer21EffectNodeImplemented13LoadParameterERPhPNS_10EffectNodeERKNS_6RefPtrINS_7SettingEEE, symObjAddr: 0xA94, symBinAddr: 0x100024084, symSize: 0x7EC }
  - { offset: 0x16ADE6, size: 0x8, addend: 0x0, symName: __ZN9Effekseer21ParameterCommonValues4LoadERPhPKNS_17EffectImplementedE, symObjAddr: 0x1280, symBinAddr: 0x100024870, symSize: 0x30C }
  - { offset: 0x16AF19, size: 0x8, addend: 0x0, symName: __ZN9Effekseer20TranslationParameter4LoadERPhi, symObjAddr: 0x158C, symBinAddr: 0x100024B7C, symSize: 0x250 }
  - { offset: 0x16AF43, size: 0x8, addend: 0x0, symName: __ZN9Effekseer20TranslationParameter4LoadERPhi, symObjAddr: 0x158C, symBinAddr: 0x100024B7C, symSize: 0x250 }
  - { offset: 0x16B509, size: 0x8, addend: 0x0, symName: __ZN9Effekseer16ScalingParameter4LoadERPhi, symObjAddr: 0x17DC, symBinAddr: 0x100024DCC, symSize: 0x340 }
  - { offset: 0x16B514, size: 0x8, addend: 0x0, symName: __ZN9Effekseer16ScalingParameter4LoadERPhi, symObjAddr: 0x17DC, symBinAddr: 0x100024DCC, symSize: 0x340 }
  - { offset: 0x16BE61, size: 0x8, addend: 0x0, symName: __ZN9Effekseer27ParameterGenerationLocation4loadERPhi, symObjAddr: 0x1B1C, symBinAddr: 0x10002510C, symSize: 0x158 }
  - { offset: 0x16BE6C, size: 0x8, addend: 0x0, symName: __ZN9Effekseer27ParameterGenerationLocation4loadERPhi, symObjAddr: 0x1B1C, symBinAddr: 0x10002510C, symSize: 0x158 }
  - { offset: 0x16BEAB, size: 0x8, addend: 0x0, symName: __ZN9Effekseer23ParameterRendererCommon4loadERPhi, symObjAddr: 0x1C74, symBinAddr: 0x100025264, symSize: 0x890 }
  - { offset: 0x16C8AB, size: 0x8, addend: 0x0, symName: __ZN9Effekseer20ParameterAlphaCutoff4loadERPhi, symObjAddr: 0x2504, symBinAddr: 0x100025AF4, symSize: 0x16C }
  - { offset: 0x16CE0E, size: 0x8, addend: 0x0, symName: __ZN9Effekseer21EffectNodeImplemented6CreateEPNS_6EffectEPNS_10EffectNodeERPh, symObjAddr: 0x2670, symBinAddr: 0x100025C60, symSize: 0x514 }
  - { offset: 0x16E412, size: 0x8, addend: 0x0, symName: __ZN9Effekseer21EffectNodeImplementedD2Ev, symObjAddr: 0x2B84, symBinAddr: 0x100026174, symSize: 0x1F0 }
  - { offset: 0x16E41D, size: 0x8, addend: 0x0, symName: __ZN9Effekseer21ParameterCommonValues4LoadERPhPKNS_17EffectImplementedE.cold.2, symObjAddr: 0x4A84, symBinAddr: 0x10034C97C, symSize: 0x28 }
  - { offset: 0x16E435, size: 0x8, addend: 0x0, symName: __ZN9Effekseer21ParameterCommonValues4LoadERPhPKNS_17EffectImplementedE.cold.1, symObjAddr: 0x4A5C, symBinAddr: 0x10034C954, symSize: 0x28 }
  - { offset: 0x16E67A, size: 0x8, addend: 0x0, symName: __ZN9Effekseer15ParameterEasingINS_4SIMD5Vec3fEE4LoadEPhii, symObjAddr: 0x38E4, symBinAddr: 0x100026E4C, symSize: 0x2CC }
  - { offset: 0x16E945, size: 0x8, addend: 0x0, symName: __ZN9Effekseer20TranslationParameter4LoadERPhi.cold.1, symObjAddr: 0x4AAC, symBinAddr: 0x10034C9A4, symSize: 0x28 }
  - { offset: 0x16EA7E, size: 0x8, addend: 0x0, symName: __ZN9Effekseer15ParameterEasingIfE4LoadEPhii, symObjAddr: 0x3BB0, symBinAddr: 0x100027118, symSize: 0x264 }
  - { offset: 0x16ED33, size: 0x8, addend: 0x0, symName: __ZN9Effekseer16ScalingParameter4LoadERPhi.cold.1, symObjAddr: 0x4AD4, symBinAddr: 0x10034C9CC, symSize: 0x28 }
  - { offset: 0x16ED4B, size: 0x8, addend: 0x0, symName: __ZN9Effekseer16ScalingParameter4LoadERPhi.cold.3, symObjAddr: 0x4B24, symBinAddr: 0x10034CA1C, symSize: 0x28 }
  - { offset: 0x16ED63, size: 0x8, addend: 0x0, symName: __ZN9Effekseer16ScalingParameter4LoadERPhi.cold.2, symObjAddr: 0x4AFC, symBinAddr: 0x10034C9F4, symSize: 0x28 }
  - { offset: 0x16F3E8, size: 0x8, addend: 0x0, symName: __ZN9Effekseer11UVParameter4LoadERPhii, symObjAddr: 0x3E14, symBinAddr: 0x10002737C, symSize: 0x1F8 }
  - { offset: 0x16F4A0, size: 0x8, addend: 0x0, symName: __ZN9Effekseer19ParameterCustomData4loadERPhi, symObjAddr: 0x400C, symBinAddr: 0x100027574, symSize: 0x1E0 }
  - { offset: 0x16F562, size: 0x8, addend: 0x0, symName: __ZNSt3__16vectorIN9Effekseer24MaterialTextureParameterENS_9allocatorIS2_EEE8__appendEm, symObjAddr: 0x41EC, symBinAddr: 0x100027754, symSize: 0x120 }
  - { offset: 0x16F99C, size: 0x8, addend: 0x0, symName: __ZNSt3__16vectorINS_5arrayIfLm4EEENS_9allocatorIS2_EEE8__appendEm, symObjAddr: 0x4324, symBinAddr: 0x100027874, symSize: 0x120 }
  - { offset: 0x1706B5, size: 0x8, addend: 0x0, symName: __ZN9Effekseer21EffectNodeImplemented6CreateEPNS_6EffectEPNS_10EffectNodeERPh.cold.1, symObjAddr: 0x4B4C, symBinAddr: 0x10034CA44, symSize: 0x28 }
  - { offset: 0x170A04, size: 0x8, addend: 0x0, symName: __ZN9Effekseer21EffectNodeImplementedD2Ev, symObjAddr: 0x2B84, symBinAddr: 0x100026174, symSize: 0x1F0 }
  - { offset: 0x1721DC, size: 0x8, addend: 0x0, symName: __ZN9Effekseer23ParameterRendererCommonD2Ev, symObjAddr: 0x45B4, symBinAddr: 0x1000279CC, symSize: 0xF8 }
  - { offset: 0x172797, size: 0x8, addend: 0x0, symName: __ZN9Effekseer31LocalForceFieldElementParameterD2Ev, symObjAddr: 0x4810, symBinAddr: 0x100027C28, symSize: 0xF4 }
  - { offset: 0x172F91, size: 0x8, addend: 0x0, symName: __ZN9Effekseer21EffectNodeImplementedD1Ev, symObjAddr: 0x2D74, symBinAddr: 0x100026364, symSize: 0x4 }
  - { offset: 0x172FB3, size: 0x8, addend: 0x0, symName: __ZN9Effekseer21EffectNodeImplementedD1Ev, symObjAddr: 0x2D74, symBinAddr: 0x100026364, symSize: 0x4 }
  - { offset: 0x172FF6, size: 0x8, addend: 0x0, symName: __ZN9Effekseer21EffectNodeImplementedD0Ev, symObjAddr: 0x2D78, symBinAddr: 0x100026368, symSize: 0x14 }
  - { offset: 0x1730FA, size: 0x8, addend: 0x0, symName: __ZN9Effekseer21EffectNodeImplemented14CalcCustomDataEPKNS_8InstanceERNSt3__15arrayIfLm4EEES7_, symObjAddr: 0x2D8C, symBinAddr: 0x10002637C, symSize: 0xB8 }
  - { offset: 0x173275, size: 0x8, addend: 0x0, symName: __ZNK9Effekseer21EffectNodeImplemented35ApplyRendererCommonUVHorizontalFlipERNS_8InstanceERNS_11IRandObjectE, symObjAddr: 0x2E44, symBinAddr: 0x100026434, symSize: 0x64 }
  - { offset: 0x173325, size: 0x8, addend: 0x0, symName: __ZN9Effekseer21EffectNodeImplemented31InitializeTrailUVAnimationCacheERNS_21TrailUVAnimationCacheE, symObjAddr: 0x2EA8, symBinAddr: 0x100026498, symSize: 0x14 }
  - { offset: 0x173349, size: 0x8, addend: 0x0, symName: __ZN9Effekseer21EffectNodeImplemented31InitializeTrailUVAnimationCacheERNS_21TrailUVAnimationCacheE, symObjAddr: 0x2EA8, symBinAddr: 0x100026498, symSize: 0x14 }
  - { offset: 0x173369, size: 0x8, addend: 0x0, symName: __ZN9Effekseer21EffectNodeImplemented10GetTrailUVERNS_21TrailUVAnimationCacheEPNS_8InstanceERKNS_23ParameterRendererCommonEiff, symObjAddr: 0x2EBC, symBinAddr: 0x1000264AC, symSize: 0x9C }
  - { offset: 0x17341F, size: 0x8, addend: 0x0, symName: __ZN9Effekseer21EffectNodeImplemented32GetTrailFlipbookIndexAndNextRateERNS_21TrailUVAnimationCacheEPNS_8InstanceERKNS_23ParameterRendererCommonE, symObjAddr: 0x2F58, symBinAddr: 0x100026548, symSize: 0x68 }
  - { offset: 0x173469, size: 0x8, addend: 0x0, symName: __ZN9Effekseer21EffectNodeImplemented32GetTrailFlipbookIndexAndNextRateERNS_21TrailUVAnimationCacheEPNS_8InstanceERKNS_23ParameterRendererCommonE, symObjAddr: 0x2F58, symBinAddr: 0x100026548, symSize: 0x68 }
  - { offset: 0x173487, size: 0x8, addend: 0x0, symName: __ZNK9Effekseer21EffectNodeImplemented9GetEffectEv, symObjAddr: 0x3048, symBinAddr: 0x1000265B0, symSize: 0x8 }
  - { offset: 0x1734B1, size: 0x8, addend: 0x0, symName: __ZNK9Effekseer21EffectNodeImplemented13GetGenerationEv, symObjAddr: 0x3050, symBinAddr: 0x1000265B8, symSize: 0x8 }
  - { offset: 0x1734DB, size: 0x8, addend: 0x0, symName: __ZNK9Effekseer21EffectNodeImplemented16GetChildrenCountEv, symObjAddr: 0x3058, symBinAddr: 0x1000265C0, symSize: 0x10 }
  - { offset: 0x173507, size: 0x8, addend: 0x0, symName: __ZNK9Effekseer21EffectNodeImplemented16GetChildrenCountEv, symObjAddr: 0x3058, symBinAddr: 0x1000265C0, symSize: 0x10 }
  - { offset: 0x173546, size: 0x8, addend: 0x0, symName: __ZNK9Effekseer21EffectNodeImplemented8GetChildEi, symObjAddr: 0x3068, symBinAddr: 0x1000265D0, symSize: 0x44 }
  - { offset: 0x17363A, size: 0x8, addend: 0x0, symName: __ZNK9Effekseer21EffectNodeImplemented23GetBasicRenderParameterEv, symObjAddr: 0x30AC, symBinAddr: 0x100026614, symSize: 0x1C0 }
  - { offset: 0x17376F, size: 0x8, addend: 0x0, symName: __ZN9Effekseer21EffectNodeImplemented23SetBasicRenderParameterENS_26EffectBasicRenderParameterE, symObjAddr: 0x326C, symBinAddr: 0x1000267D4, symSize: 0xB0 }
  - { offset: 0x1737A6, size: 0x8, addend: 0x0, symName: __ZN9Effekseer21EffectNodeImplemented23GetEffectModelParameterEv, symObjAddr: 0x331C, symBinAddr: 0x100026884, symSize: 0x8 }
  - { offset: 0x1737CC, size: 0x8, addend: 0x0, symName: __ZN9Effekseer21EffectNodeImplemented21LoadRendererParameterERPhRKNS_6RefPtrINS_7SettingEEE, symObjAddr: 0x3324, symBinAddr: 0x10002688C, symSize: 0x3C }
  - { offset: 0x173837, size: 0x8, addend: 0x0, symName: __ZN9Effekseer21EffectNodeImplemented14BeginRenderingEiPNS_7ManagerEPKNS_14InstanceGlobalEPv, symObjAddr: 0x3360, symBinAddr: 0x1000268C8, symSize: 0x4 }
  - { offset: 0x173842, size: 0x8, addend: 0x0, symName: __ZN9Effekseer21EffectNodeImplemented21LoadRendererParameterERPhRKNS_6RefPtrINS_7SettingEEE.cold.1, symObjAddr: 0x4B74, symBinAddr: 0x10034CA6C, symSize: 0x28 }
  - { offset: 0x17385A, size: 0x8, addend: 0x0, symName: __ZN9Effekseer21EffectNodeImplemented14BeginRenderingEiPNS_7ManagerEPKNS_14InstanceGlobalEPv, symObjAddr: 0x3360, symBinAddr: 0x1000268C8, symSize: 0x4 }
  - { offset: 0x1738B0, size: 0x8, addend: 0x0, symName: __ZN9Effekseer21EffectNodeImplemented19BeginRenderingGroupEPNS_13InstanceGroupEPNS_7ManagerEPv, symObjAddr: 0x3364, symBinAddr: 0x1000268CC, symSize: 0x4 }
  - { offset: 0x1738FA, size: 0x8, addend: 0x0, symName: __ZN9Effekseer21EffectNodeImplemented17EndRenderingGroupEPNS_13InstanceGroupEPNS_7ManagerEPv, symObjAddr: 0x3368, symBinAddr: 0x1000268D0, symSize: 0x4 }
  - { offset: 0x173944, size: 0x8, addend: 0x0, symName: __ZN9Effekseer21EffectNodeImplemented9RenderingERKNS_8InstanceEPS2_iPNS_7ManagerEPv, symObjAddr: 0x336C, symBinAddr: 0x1000268D4, symSize: 0x4 }
  - { offset: 0x1739A6, size: 0x8, addend: 0x0, symName: __ZN9Effekseer21EffectNodeImplemented12EndRenderingEPNS_7ManagerEPv, symObjAddr: 0x3370, symBinAddr: 0x1000268D8, symSize: 0x4 }
  - { offset: 0x1739E4, size: 0x8, addend: 0x0, symName: __ZN9Effekseer21EffectNodeImplemented31InitializeRenderedInstanceGroupERNS_13InstanceGroupEPNS_7ManagerE, symObjAddr: 0x3374, symBinAddr: 0x1000268DC, symSize: 0x4 }
  - { offset: 0x173A22, size: 0x8, addend: 0x0, symName: __ZN9Effekseer21EffectNodeImplemented26InitializeRenderedInstanceERNS_8InstanceERNS_13InstanceGroupEPNS_7ManagerE, symObjAddr: 0x3378, symBinAddr: 0x1000268E0, symSize: 0x4 }
  - { offset: 0x173A6C, size: 0x8, addend: 0x0, symName: __ZN9Effekseer21EffectNodeImplemented22UpdateRenderedInstanceERNS_8InstanceERNS_13InstanceGroupEPNS_7ManagerE, symObjAddr: 0x337C, symBinAddr: 0x1000268E4, symSize: 0x4 }
  - { offset: 0x173B29, size: 0x8, addend: 0x0, symName: __ZNK9Effekseer21EffectNodeImplemented12GetFadeAlphaERKNS_8InstanceE, symObjAddr: 0x3380, symBinAddr: 0x1000268E8, symSize: 0x140 }
  - { offset: 0x173DB4, size: 0x8, addend: 0x0, symName: __ZNK9Effekseer21EffectNodeImplemented21CalculateInstanceTermERNS_18EffectInstanceTermE, symObjAddr: 0x34C0, symBinAddr: 0x100026A28, symSize: 0x384 }
  - { offset: 0x174520, size: 0x8, addend: 0x0, symName: __ZNK9Effekseer21EffectNodeImplemented7GetTypeEv, symObjAddr: 0x3844, symBinAddr: 0x100026DAC, symSize: 0x8 }
  - { offset: 0x174593, size: 0x8, addend: 0x0, symName: __ZN9Effekseer21EffectNodeImplemented20GetRenderingUserDataEv, symObjAddr: 0x384C, symBinAddr: 0x100026DB4, symSize: 0x44 }
  - { offset: 0x174642, size: 0x8, addend: 0x0, symName: __ZN9Effekseer21EffectNodeImplemented20SetRenderingUserDataERKNS_6RefPtrINS_17RenderingUserDataEEE, symObjAddr: 0x3890, symBinAddr: 0x100026DF8, symSize: 0x54 }
  - { offset: 0x174885, size: 0x8, addend: 0x0, symName: __ZN9Effekseer19ParameterCustomData4loadERPhi.cold.1, symObjAddr: 0x4B9C, symBinAddr: 0x10034CA94, symSize: 0x28 }
  - { offset: 0x175298, size: 0x8, addend: 0x0, symName: __ZNSt3__120__shared_ptr_emplaceIN9Effekseer8GradientENS_9allocatorIS2_EEED1Ev, symObjAddr: 0x457C, symBinAddr: 0x100027994, symSize: 0x10 }
  - { offset: 0x1752BF, size: 0x8, addend: 0x0, symName: __ZNSt3__120__shared_ptr_emplaceIN9Effekseer8GradientENS_9allocatorIS2_EEED1Ev, symObjAddr: 0x457C, symBinAddr: 0x100027994, symSize: 0x10 }
  - { offset: 0x1752E1, size: 0x8, addend: 0x0, symName: __ZNSt3__120__shared_ptr_emplaceIN9Effekseer8GradientENS_9allocatorIS2_EEED1Ev, symObjAddr: 0x457C, symBinAddr: 0x100027994, symSize: 0x10 }
  - { offset: 0x175317, size: 0x8, addend: 0x0, symName: __ZNSt3__120__shared_ptr_emplaceIN9Effekseer8GradientENS_9allocatorIS2_EEED0Ev, symObjAddr: 0x458C, symBinAddr: 0x1000279A4, symSize: 0x20 }
  - { offset: 0x17537A, size: 0x8, addend: 0x0, symName: __ZNSt3__120__shared_ptr_emplaceIN9Effekseer8GradientENS_9allocatorIS2_EEE16__on_zero_sharedEv, symObjAddr: 0x45AC, symBinAddr: 0x1000279C4, symSize: 0x4 }
  - { offset: 0x1753FC, size: 0x8, addend: 0x0, symName: __ZNSt3__120__shared_ptr_emplaceIN9Effekseer8GradientENS_9allocatorIS2_EEE21__on_zero_shared_weakEv, symObjAddr: 0x45B0, symBinAddr: 0x1000279C8, symSize: 0x4 }
  - { offset: 0x17542E, size: 0x8, addend: 0x0, symName: __ZNSt3__120__shared_ptr_emplaceIN9Effekseer8GradientENS_9allocatorIS2_EEE21__on_zero_shared_weakEv, symObjAddr: 0x45B0, symBinAddr: 0x1000279C8, symSize: 0x4 }
  - { offset: 0x17544F, size: 0x8, addend: 0x0, symName: __ZNSt3__120__shared_ptr_emplaceIN9Effekseer8GradientENS_9allocatorIS2_EEE21__on_zero_shared_weakEv, symObjAddr: 0x45B0, symBinAddr: 0x1000279C8, symSize: 0x4 }
  - { offset: 0x175471, size: 0x8, addend: 0x0, symName: __ZNSt3__120__shared_ptr_emplaceIN9Effekseer8GradientENS_9allocatorIS2_EEE21__on_zero_shared_weakEv, symObjAddr: 0x45B0, symBinAddr: 0x1000279C8, symSize: 0x4 }
  - { offset: 0x1754A4, size: 0x8, addend: 0x0, symName: __ZNSt3__120__shared_ptr_emplaceIN9Effekseer8GradientENS_9allocatorIS2_EEE21__on_zero_shared_weakEv, symObjAddr: 0x45B0, symBinAddr: 0x1000279C8, symSize: 0x4 }
  - { offset: 0x1756C5, size: 0x8, addend: 0x0, symName: __ZN9Effekseer11UVParameterD2Ev, symObjAddr: 0x46AC, symBinAddr: 0x100027AC4, symSize: 0x9C }
  - { offset: 0x175CF0, size: 0x8, addend: 0x0, symName: __ZN9Effekseer19ParameterCustomDataD2Ev, symObjAddr: 0x4748, symBinAddr: 0x100027B60, symSize: 0xC8 }
  - { offset: 0x176DD1, size: 0x8, addend: 0x0, symName: __ZN9Effekseer14EffectNodeRootD1Ev, symObjAddr: 0x4904, symBinAddr: 0x100027D1C, symSize: 0x4 }
  - { offset: 0x176DF3, size: 0x8, addend: 0x0, symName: __ZN9Effekseer14EffectNodeRootD1Ev, symObjAddr: 0x4904, symBinAddr: 0x100027D1C, symSize: 0x4 }
  - { offset: 0x176E0F, size: 0x8, addend: 0x0, symName: __ZN9Effekseer14EffectNodeRootD1Ev, symObjAddr: 0x4904, symBinAddr: 0x100027D1C, symSize: 0x4 }
  - { offset: 0x176E3C, size: 0x8, addend: 0x0, symName: __ZN9Effekseer14EffectNodeRootD0Ev, symObjAddr: 0x4908, symBinAddr: 0x100027D20, symSize: 0x14 }
  - { offset: 0x176EDB, size: 0x8, addend: 0x0, symName: __ZNK9Effekseer14EffectNodeRoot7GetTypeEv, symObjAddr: 0x491C, symBinAddr: 0x100027D34, symSize: 0x8 }
  - { offset: 0x1790A3, size: 0x8, addend: 0x0, symName: __ZN9Effekseer15EffectNodeModel21LoadRendererParameterERPhRKNS_6RefPtrINS_7SettingEEE, symObjAddr: 0x0, symBinAddr: 0x100027D3C, symSize: 0x268 }
  - { offset: 0x18E54A, size: 0x8, addend: 0x0, symName: __ZN9Effekseer15EffectNodeModel21LoadRendererParameterERPhRKNS_6RefPtrINS_7SettingEEE, symObjAddr: 0x0, symBinAddr: 0x100027D3C, symSize: 0x268 }
  - { offset: 0x18E6A7, size: 0x8, addend: 0x0, symName: __ZN9Effekseer21AllTypeColorParameter4loadERPhi, symObjAddr: 0x268, symBinAddr: 0x100027FA4, symSize: 0x2CC }
  - { offset: 0x18E6B2, size: 0x8, addend: 0x0, symName: __ZN9Effekseer21AllTypeColorParameter4loadERPhi, symObjAddr: 0x268, symBinAddr: 0x100027FA4, symSize: 0x2CC }
  - { offset: 0x18EB91, size: 0x8, addend: 0x0, symName: __ZN9Effekseer15EffectNodeModel21LoadRendererParameterERPhRKNS_6RefPtrINS_7SettingEEE.cold.1, symObjAddr: 0x1484, symBinAddr: 0x10034CABC, symSize: 0x28 }
  - { offset: 0x18EF05, size: 0x8, addend: 0x0, symName: __ZN9Effekseer15EffectNodeModel14BeginRenderingEiPNS_7ManagerEPKNS_14InstanceGlobalEPv, symObjAddr: 0x534, symBinAddr: 0x100028270, symSize: 0x148 }
  - { offset: 0x18F1A6, size: 0x8, addend: 0x0, symName: __ZN9Effekseer15EffectNodeModel16GetNodeParameterEPKNS_7ManagerEPKNS_14InstanceGlobalE, symObjAddr: 0x67C, symBinAddr: 0x1000283B8, symSize: 0x244 }
  - { offset: 0x18F62D, size: 0x8, addend: 0x0, symName: __ZN9Effekseer15EffectNodeModel9RenderingERKNS_8InstanceEPS2_iPNS_7ManagerEPv, symObjAddr: 0x8C0, symBinAddr: 0x1000285FC, symSize: 0x228 }
  - { offset: 0x18F842, size: 0x8, addend: 0x0, symName: __ZN9Effekseer15EffectNodeModel12EndRenderingEPNS_7ManagerEPv, symObjAddr: 0xAE8, symBinAddr: 0x100028824, symSize: 0x6C }
  - { offset: 0x18F984, size: 0x8, addend: 0x0, symName: __ZN9Effekseer15EffectNodeModel26InitializeRenderedInstanceERNS_8InstanceERNS_13InstanceGroupEPNS_7ManagerE, symObjAddr: 0xB54, symBinAddr: 0x100028890, symSize: 0x88 }
  - { offset: 0x18FA2D, size: 0x8, addend: 0x0, symName: __ZN9Effekseer21AllTypeColorFunctions4InitERNS_25InstanceAllTypeColorStateERNS_11IRandObjectERKNS_21AllTypeColorParameterE, symObjAddr: 0xBDC, symBinAddr: 0x100028918, symSize: 0x1DC }
  - { offset: 0x18FBBB, size: 0x8, addend: 0x0, symName: __ZN9Effekseer21AllTypeColorFunctions9CalculateERNS_25InstanceAllTypeColorStateERKNS_21AllTypeColorParameterEff, symObjAddr: 0xDB8, symBinAddr: 0x100028AF4, symSize: 0x114 }
  - { offset: 0x18FDB2, size: 0x8, addend: 0x0, symName: __ZNK9Effekseer12random_color8getValueERNS_11IRandObjectE, symObjAddr: 0x10DC, symBinAddr: 0x100028D80, symSize: 0x1C0 }
  - { offset: 0x18FF19, size: 0x8, addend: 0x0, symName: __ZNK9Effekseer12easing_color13setValueToArgERNS_5ColorERKS1_S4_f, symObjAddr: 0x129C, symBinAddr: 0x100028F40, symSize: 0x158 }
  - { offset: 0x190026, size: 0x8, addend: 0x0, symName: __ZN9Effekseer21AllTypeColorParameterD2Ev, symObjAddr: 0x13F4, symBinAddr: 0x100029098, symSize: 0x90 }
  - { offset: 0x190031, size: 0x8, addend: 0x0, symName: __ZN9Effekseer15EffectNodeModel22UpdateRenderedInstanceERNS_8InstanceERNS_13InstanceGroupEPNS_7ManagerE, symObjAddr: 0xECC, symBinAddr: 0x100028C08, symSize: 0x8C }
  - { offset: 0x1900AC, size: 0x8, addend: 0x0, symName: __ZN9Effekseer15EffectNodeModel23GetEffectModelParameterEv, symObjAddr: 0xF58, symBinAddr: 0x100028C94, symSize: 0x10 }
  - { offset: 0x1901C3, size: 0x8, addend: 0x0, symName: __ZN9Effekseer15EffectNodeModelD1Ev, symObjAddr: 0xF68, symBinAddr: 0x100028CA4, symSize: 0x68 }
  - { offset: 0x190336, size: 0x8, addend: 0x0, symName: __ZN9Effekseer21AllTypeColorParameterD2Ev, symObjAddr: 0x13F4, symBinAddr: 0x100029098, symSize: 0x90 }
  - { offset: 0x1909EF, size: 0x8, addend: 0x0, symName: __ZN9Effekseer15EffectNodeModelD0Ev, symObjAddr: 0xFD0, symBinAddr: 0x100028D0C, symSize: 0x6C }
  - { offset: 0x190BBD, size: 0x8, addend: 0x0, symName: __ZNK9Effekseer15EffectNodeModel7GetTypeEv, symObjAddr: 0x103C, symBinAddr: 0x100028D78, symSize: 0x8 }
  - { offset: 0x190BE4, size: 0x8, addend: 0x0, symName: __ZNK9Effekseer12easing_color13setValueToArgERNS_5ColorERKS1_S4_f.cold.1, symObjAddr: 0x14AC, symBinAddr: 0x10034CAE4, symSize: 0x28 }
  - { offset: 0x192C86, size: 0x8, addend: 0x0, symName: __ZN9Effekseer16EffectNodeRibbon21LoadRendererParameterERPhRKNS_6RefPtrINS_7SettingEEE, symObjAddr: 0x0, symBinAddr: 0x100029128, symSize: 0x278 }
  - { offset: 0x1A8CA3, size: 0x8, addend: 0x0, symName: __ZN9Effekseer16EffectNodeRibbon21LoadRendererParameterERPhRKNS_6RefPtrINS_7SettingEEE, symObjAddr: 0x0, symBinAddr: 0x100029128, symSize: 0x278 }
  - { offset: 0x1A90E9, size: 0x8, addend: 0x0, symName: __ZN9Effekseer16EffectNodeRibbon21LoadRendererParameterERPhRKNS_6RefPtrINS_7SettingEEE.cold.1, symObjAddr: 0x1554, symBinAddr: 0x10034CB0C, symSize: 0x28 }
  - { offset: 0x1A9455, size: 0x8, addend: 0x0, symName: __ZN9Effekseer16EffectNodeRibbon14BeginRenderingEiPNS_7ManagerEPKNS_14InstanceGlobalEPv, symObjAddr: 0x544, symBinAddr: 0x1000293A0, symSize: 0x1BC }
  - { offset: 0x1A975C, size: 0x8, addend: 0x0, symName: __ZN9Effekseer16EffectNodeRibbon19BeginRenderingGroupEPNS_13InstanceGroupEPNS_7ManagerEPv, symObjAddr: 0x700, symBinAddr: 0x10002955C, symSize: 0x24C }
  - { offset: 0x1A9944, size: 0x8, addend: 0x0, symName: __ZN9Effekseer16EffectNodeRibbon17EndRenderingGroupEPNS_13InstanceGroupEPNS_7ManagerEPv, symObjAddr: 0x94C, symBinAddr: 0x1000297A8, symSize: 0x70 }
  - { offset: 0x1A994F, size: 0x8, addend: 0x0, symName: __ZN9Effekseer16EffectNodeRibbon19BeginRenderingGroupEPNS_13InstanceGroupEPNS_7ManagerEPv.cold.1, symObjAddr: 0x157C, symBinAddr: 0x10034CB34, symSize: 0x28 }
  - { offset: 0x1A9967, size: 0x8, addend: 0x0, symName: __ZN9Effekseer16EffectNodeRibbon17EndRenderingGroupEPNS_13InstanceGroupEPNS_7ManagerEPv, symObjAddr: 0x94C, symBinAddr: 0x1000297A8, symSize: 0x70 }
  - { offset: 0x1A9AB4, size: 0x8, addend: 0x0, symName: __ZN9Effekseer16EffectNodeRibbon9RenderingERKNS_8InstanceEPS2_iPNS_7ManagerEPv, symObjAddr: 0x9BC, symBinAddr: 0x100029818, symSize: 0x234 }
  - { offset: 0x1A9D30, size: 0x8, addend: 0x0, symName: __ZN9Effekseer16EffectNodeRibbon12EndRenderingEPNS_7ManagerEPv, symObjAddr: 0xBF0, symBinAddr: 0x100029A4C, symSize: 0x6C }
  - { offset: 0x1A9E61, size: 0x8, addend: 0x0, symName: __ZN9Effekseer16EffectNodeRibbon31InitializeRenderedInstanceGroupERNS_13InstanceGroupEPNS_7ManagerE, symObjAddr: 0xC5C, symBinAddr: 0x100029AB8, symSize: 0x8 }
  - { offset: 0x1A9EC3, size: 0x8, addend: 0x0, symName: __ZN9Effekseer16EffectNodeRibbon26InitializeRenderedInstanceERNS_8InstanceERNS_13InstanceGroupEPNS_7ManagerE, symObjAddr: 0xC64, symBinAddr: 0x100029AC0, symSize: 0x88 }
  - { offset: 0x1AA3BF, size: 0x8, addend: 0x0, symName: __ZN9Effekseer16EffectNodeRibbon22UpdateRenderedInstanceERNS_8InstanceERNS_13InstanceGroupEPNS_7ManagerE, symObjAddr: 0xFDC, symBinAddr: 0x100029B48, symSize: 0x8C }
  - { offset: 0x1AA4BE, size: 0x8, addend: 0x0, symName: __ZN9Effekseer16EffectNodeRibbonD1Ev, symObjAddr: 0x1068, symBinAddr: 0x100029BD4, symSize: 0x50 }
  - { offset: 0x1AA99A, size: 0x8, addend: 0x0, symName: __ZN9Effekseer16EffectNodeRibbonD0Ev, symObjAddr: 0x10B8, symBinAddr: 0x100029C24, symSize: 0x54 }
  - { offset: 0x1AAAFE, size: 0x8, addend: 0x0, symName: __ZNK9Effekseer16EffectNodeRibbon7GetTypeEv, symObjAddr: 0x110C, symBinAddr: 0x100029C78, symSize: 0x8 }
  - { offset: 0x1ACBBE, size: 0x8, addend: 0x0, symName: __ZN9Effekseer14EffectNodeRing21LoadRendererParameterERPhRKNS_6RefPtrINS_7SettingEEE, symObjAddr: 0x0, symBinAddr: 0x100029C80, symSize: 0xB34 }
  - { offset: 0x1C2DE0, size: 0x8, addend: 0x0, symName: __ZN9Effekseer14EffectNodeRing21LoadRendererParameterERPhRKNS_6RefPtrINS_7SettingEEE, symObjAddr: 0x0, symBinAddr: 0x100029C80, symSize: 0xB34 }
  - { offset: 0x1C3BB6, size: 0x8, addend: 0x0, symName: __ZN9Effekseer14EffectNodeRing21LoadRendererParameterERPhRKNS_6RefPtrINS_7SettingEEE.cold.1, symObjAddr: 0x27F4, symBinAddr: 0x10034CB5C, symSize: 0x28 }
  - { offset: 0x1C3ED4, size: 0x8, addend: 0x0, symName: __ZN9Effekseer14EffectNodeRing14BeginRenderingEiPNS_7ManagerEPKNS_14InstanceGlobalEPv, symObjAddr: 0xF48, symBinAddr: 0x10002A7B4, symSize: 0x1A4 }
  - { offset: 0x1C4203, size: 0x8, addend: 0x0, symName: __ZN9Effekseer14EffectNodeRing9RenderingERKNS_8InstanceEPS2_iPNS_7ManagerEPv, symObjAddr: 0x10EC, symBinAddr: 0x10002A958, symSize: 0x2D8 }
  - { offset: 0x1C455F, size: 0x8, addend: 0x0, symName: __ZN9Effekseer14EffectNodeRing12EndRenderingEPNS_7ManagerEPv, symObjAddr: 0x13C4, symBinAddr: 0x10002AC30, symSize: 0x70 }
  - { offset: 0x1C470E, size: 0x8, addend: 0x0, symName: __ZN9Effekseer14EffectNodeRing26InitializeRenderedInstanceERNS_8InstanceERNS_13InstanceGroupEPNS_7ManagerE, symObjAddr: 0x1434, symBinAddr: 0x10002ACA0, symSize: 0x2B4 }
  - { offset: 0x1C4A7E, size: 0x8, addend: 0x0, symName: __ZN9Effekseer14EffectNodeRing24InitializeLocationValuesERKNS_21RingLocationParameterERNS_18RingLocationValuesEPNS_7ManagerEPNS_11IRandObjectE, symObjAddr: 0x1784, symBinAddr: 0x10002AF54, symSize: 0x1DC }
  - { offset: 0x1C56B7, size: 0x8, addend: 0x0, symName: __ZN9Effekseer14EffectNodeRing22UpdateRenderedInstanceERNS_8InstanceERNS_13InstanceGroupEPNS_7ManagerE, symObjAddr: 0x1C50, symBinAddr: 0x10002B130, symSize: 0x328 }
  - { offset: 0x1C5F3B, size: 0x8, addend: 0x0, symName: __ZN9Effekseer14EffectNodeRingD1Ev, symObjAddr: 0x2074, symBinAddr: 0x10002B458, symSize: 0x68 }
  - { offset: 0x1C6459, size: 0x8, addend: 0x0, symName: __ZN9Effekseer14EffectNodeRingD0Ev, symObjAddr: 0x20DC, symBinAddr: 0x10002B4C0, symSize: 0x6C }
  - { offset: 0x1C65FF, size: 0x8, addend: 0x0, symName: __ZNK9Effekseer14EffectNodeRing7GetTypeEv, symObjAddr: 0x2148, symBinAddr: 0x10002B52C, symSize: 0x8 }
  - { offset: 0x1C87A0, size: 0x8, addend: 0x0, symName: __ZN9Effekseer16EffectNodeSprite21LoadRendererParameterERPhRKNS_6RefPtrINS_7SettingEEE, symObjAddr: 0x0, symBinAddr: 0x10002B534, symSize: 0x338 }
  - { offset: 0x1EED71, size: 0x8, addend: 0x0, symName: __ZN9Effekseer16EffectNodeSprite21LoadRendererParameterERPhRKNS_6RefPtrINS_7SettingEEE, symObjAddr: 0x0, symBinAddr: 0x10002B534, symSize: 0x338 }
  - { offset: 0x1EF43A, size: 0x8, addend: 0x0, symName: __ZN9Effekseer16EffectNodeSprite21LoadRendererParameterERPhRKNS_6RefPtrINS_7SettingEEE.cold.1, symObjAddr: 0x152C, symBinAddr: 0x10034CB84, symSize: 0x28 }
  - { offset: 0x1EF798, size: 0x8, addend: 0x0, symName: __ZN9Effekseer16EffectNodeSprite14BeginRenderingEiPNS_7ManagerEPKNS_14InstanceGlobalEPv, symObjAddr: 0x604, symBinAddr: 0x10002B86C, symSize: 0x18C }
  - { offset: 0x1EFAE6, size: 0x8, addend: 0x0, symName: __ZN9Effekseer16EffectNodeSprite9RenderingERKNS_8InstanceEPS2_iPNS_7ManagerEPv, symObjAddr: 0x884, symBinAddr: 0x10002B9F8, symSize: 0x360 }
  - { offset: 0x1EFDF7, size: 0x8, addend: 0x0, symName: __ZN9Effekseer16EffectNodeSprite12EndRenderingEPNS_7ManagerEPv, symObjAddr: 0xBE4, symBinAddr: 0x10002BD58, symSize: 0x6C }
  - { offset: 0x1EFF39, size: 0x8, addend: 0x0, symName: __ZN9Effekseer16EffectNodeSprite26InitializeRenderedInstanceERNS_8InstanceERNS_13InstanceGroupEPNS_7ManagerE, symObjAddr: 0xC50, symBinAddr: 0x10002BDC4, symSize: 0x80 }
  - { offset: 0x1F0442, size: 0x8, addend: 0x0, symName: __ZN9Effekseer16EffectNodeSprite22UpdateRenderedInstanceERNS_8InstanceERNS_13InstanceGroupEPNS_7ManagerE, symObjAddr: 0xFC0, symBinAddr: 0x10002BE44, symSize: 0x88 }
  - { offset: 0x1F0570, size: 0x8, addend: 0x0, symName: __ZN9Effekseer16EffectNodeSpriteD1Ev, symObjAddr: 0x1048, symBinAddr: 0x10002BECC, symSize: 0x4C }
  - { offset: 0x1F0A4E, size: 0x8, addend: 0x0, symName: __ZN9Effekseer16EffectNodeSpriteD0Ev, symObjAddr: 0x1094, symBinAddr: 0x10002BF18, symSize: 0x50 }
  - { offset: 0x1F0BB4, size: 0x8, addend: 0x0, symName: __ZNK9Effekseer16EffectNodeSprite7GetTypeEv, symObjAddr: 0x10E4, symBinAddr: 0x10002BF68, symSize: 0x8 }
  - { offset: 0x1F2C6F, size: 0x8, addend: 0x0, symName: __ZN9Effekseer15EffectNodeTrack21LoadRendererParameterERPhRKNS_6RefPtrINS_7SettingEEE, symObjAddr: 0x0, symBinAddr: 0x10002BF70, symSize: 0x2D4 }
  - { offset: 0x208CA2, size: 0x8, addend: 0x0, symName: __ZN9Effekseer15EffectNodeTrack21LoadRendererParameterERPhRKNS_6RefPtrINS_7SettingEEE, symObjAddr: 0x0, symBinAddr: 0x10002BF70, symSize: 0x2D4 }
  - { offset: 0x2091BD, size: 0x8, addend: 0x0, symName: __ZN9Effekseer15EffectNodeTrack21LoadRendererParameterERPhRKNS_6RefPtrINS_7SettingEEE.cold.1, symObjAddr: 0x1810, symBinAddr: 0x10034CBAC, symSize: 0x28 }
  - { offset: 0x209529, size: 0x8, addend: 0x0, symName: __ZN9Effekseer15EffectNodeTrack14BeginRenderingEiPNS_7ManagerEPKNS_14InstanceGlobalEPv, symObjAddr: 0x5D8, symBinAddr: 0x10002C244, symSize: 0x1B4 }
  - { offset: 0x209830, size: 0x8, addend: 0x0, symName: __ZN9Effekseer15EffectNodeTrack19BeginRenderingGroupEPNS_13InstanceGroupEPNS_7ManagerEPv, symObjAddr: 0x78C, symBinAddr: 0x10002C3F8, symSize: 0x2BC }
  - { offset: 0x209A33, size: 0x8, addend: 0x0, symName: __ZN9Effekseer15EffectNodeTrack17EndRenderingGroupEPNS_13InstanceGroupEPNS_7ManagerEPv, symObjAddr: 0xA48, symBinAddr: 0x10002C6B4, symSize: 0x88 }
  - { offset: 0x209A3E, size: 0x8, addend: 0x0, symName: __ZN9Effekseer15EffectNodeTrack19BeginRenderingGroupEPNS_13InstanceGroupEPNS_7ManagerEPv.cold.1, symObjAddr: 0x1838, symBinAddr: 0x10034CBD4, symSize: 0x28 }
  - { offset: 0x209A56, size: 0x8, addend: 0x0, symName: __ZN9Effekseer15EffectNodeTrack17EndRenderingGroupEPNS_13InstanceGroupEPNS_7ManagerEPv, symObjAddr: 0xA48, symBinAddr: 0x10002C6B4, symSize: 0x88 }
  - { offset: 0x209BF6, size: 0x8, addend: 0x0, symName: __ZN9Effekseer15EffectNodeTrack9RenderingERKNS_8InstanceEPS2_iPNS_7ManagerEPv, symObjAddr: 0xAD0, symBinAddr: 0x10002C73C, symSize: 0x240 }
  - { offset: 0x209FA8, size: 0x8, addend: 0x0, symName: __ZN9Effekseer15EffectNodeTrack9SetValuesERNS_5ColorERKNS_8InstanceERNS_25InstanceAllTypeColorStateERNS_21AllTypeColorParameterEii, symObjAddr: 0xD10, symBinAddr: 0x10002C97C, symSize: 0xC0 }
  - { offset: 0x20A14F, size: 0x8, addend: 0x0, symName: __ZN9Effekseer15EffectNodeTrack12EndRenderingEPNS_7ManagerEPv, symObjAddr: 0xDE8, symBinAddr: 0x10002CA3C, symSize: 0x6C }
  - { offset: 0x20A2E4, size: 0x8, addend: 0x0, symName: __ZN9Effekseer15EffectNodeTrack31InitializeRenderedInstanceGroupERNS_13InstanceGroupEPNS_7ManagerE, symObjAddr: 0xE54, symBinAddr: 0x10002CAA8, symSize: 0xEC }
  - { offset: 0x20A739, size: 0x8, addend: 0x0, symName: __ZN9Effekseer15EffectNodeTrack26InitializeRenderedInstanceERNS_8InstanceERNS_13InstanceGroupEPNS_7ManagerE, symObjAddr: 0x1134, symBinAddr: 0x10002CB94, symSize: 0x88 }
  - { offset: 0x20A818, size: 0x8, addend: 0x0, symName: __ZN9Effekseer15EffectNodeTrack22UpdateRenderedInstanceERNS_8InstanceERNS_13InstanceGroupEPNS_7ManagerE, symObjAddr: 0x11BC, symBinAddr: 0x10002CC1C, symSize: 0x54 }
  - { offset: 0x20A996, size: 0x8, addend: 0x0, symName: __ZN9Effekseer15EffectNodeTrackD2Ev, symObjAddr: 0x16F4, symBinAddr: 0x10002CC90, symSize: 0x8C }
  - { offset: 0x20A9A1, size: 0x8, addend: 0x0, symName: __ZN9Effekseer15EffectNodeTrackD1Ev, symObjAddr: 0x1324, symBinAddr: 0x10002CC70, symSize: 0x4 }
  - { offset: 0x20A9C3, size: 0x8, addend: 0x0, symName: __ZN9Effekseer15EffectNodeTrackD1Ev, symObjAddr: 0x1324, symBinAddr: 0x10002CC70, symSize: 0x4 }
  - { offset: 0x20A9D6, size: 0x8, addend: 0x0, symName: __ZN9Effekseer15EffectNodeTrackD2Ev, symObjAddr: 0x16F4, symBinAddr: 0x10002CC90, symSize: 0x8C }
  - { offset: 0x20AB9C, size: 0x8, addend: 0x0, symName: __ZN9Effekseer15EffectNodeTrackD0Ev, symObjAddr: 0x1328, symBinAddr: 0x10002CC74, symSize: 0x14 }
  - { offset: 0x20AC2C, size: 0x8, addend: 0x0, symName: __ZNK9Effekseer15EffectNodeTrack7GetTypeEv, symObjAddr: 0x133C, symBinAddr: 0x10002CC88, symSize: 0x8 }
  - { offset: 0x20E15F, size: 0x8, addend: 0x0, symName: __ZN9Effekseer13EfkEfcFactory9OnLoadingEPNS_6EffectEPKvifPKDs, symObjAddr: 0x328, symBinAddr: 0x10002CD1C, symSize: 0xA8 }
  - { offset: 0x20E1F0, size: 0x8, addend: 0x0, symName: __ZN9Effekseer13EfkEfcFactory9OnLoadingEPNS_6EffectEPKvifPKDs, symObjAddr: 0x328, symBinAddr: 0x10002CD1C, symSize: 0xA8 }
  - { offset: 0x20E212, size: 0x8, addend: 0x0, symName: __ZN9Effekseer13EfkEfcFactory9OnLoadingEPNS_6EffectEPKvifPKDs, symObjAddr: 0x328, symBinAddr: 0x10002CD1C, symSize: 0xA8 }
  - { offset: 0x20E230, size: 0x8, addend: 0x0, symName: __ZN9Effekseer13EfkEfcFactory9OnLoadingEPNS_6EffectEPKvifPKDs, symObjAddr: 0x328, symBinAddr: 0x10002CD1C, symSize: 0xA8 }
  - { offset: 0x20E251, size: 0x8, addend: 0x0, symName: __ZN9Effekseer13EfkEfcFactory9OnLoadingEPNS_6EffectEPKvifPKDs, symObjAddr: 0x328, symBinAddr: 0x10002CD1C, symSize: 0xA8 }
  - { offset: 0x20E2F2, size: 0x8, addend: 0x0, symName: __ZN9Effekseer13EfkEfcFactory24OnCheckIsBinarySupportedEPKvi, symObjAddr: 0x3D0, symBinAddr: 0x10002CDC4, symSize: 0x2C }
  - { offset: 0x20E3C4, size: 0x8, addend: 0x0, symName: __ZN9Effekseer13EfkEfcFactoryD1Ev, symObjAddr: 0x810, symBinAddr: 0x10002CDF0, symSize: 0x4 }
  - { offset: 0x20E3E6, size: 0x8, addend: 0x0, symName: __ZN9Effekseer13EfkEfcFactoryD1Ev, symObjAddr: 0x810, symBinAddr: 0x10002CDF0, symSize: 0x4 }
  - { offset: 0x20E41C, size: 0x8, addend: 0x0, symName: __ZN9Effekseer13EfkEfcFactoryD0Ev, symObjAddr: 0x814, symBinAddr: 0x10002CDF4, symSize: 0x14 }
  - { offset: 0x2129DF, size: 0x8, addend: 0x0, symName: __ZNK9Effekseer6FCurve8GetValueEffNS_18FCurveTimelineTypeE.cold.1, symObjAddr: 0xECC, symBinAddr: 0x10034CBFC, symSize: 0x28 }
  - { offset: 0x212B90, size: 0x8, addend: 0x0, symName: __ZN9Effekseer6FCurveC1Ef, symObjAddr: 0x1C, symBinAddr: 0x10002CE08, symSize: 0x1C }
  - { offset: 0x212BCB, size: 0x8, addend: 0x0, symName: __ZN9Effekseer6FCurveC1Ef, symObjAddr: 0x1C, symBinAddr: 0x10002CE08, symSize: 0x1C }
  - { offset: 0x212BEE, size: 0x8, addend: 0x0, symName: __ZN9Effekseer6FCurveC1Ef, symObjAddr: 0x1C, symBinAddr: 0x10002CE08, symSize: 0x1C }
  - { offset: 0x212C0B, size: 0x8, addend: 0x0, symName: __ZN9Effekseer6FCurveC1Ef, symObjAddr: 0x1C, symBinAddr: 0x10002CE08, symSize: 0x1C }
  - { offset: 0x212C29, size: 0x8, addend: 0x0, symName: __ZNSt3__16vectorIfNS_9allocatorIfEEE9push_backB8nn200100ERKf, symObjAddr: 0xD8, symBinAddr: 0x10002CE24, symSize: 0xEC }
  - { offset: 0x213036, size: 0x8, addend: 0x0, symName: __ZNK9Effekseer6FCurve8GetValueEffNS_18FCurveTimelineTypeE, symObjAddr: 0x1C4, symBinAddr: 0x10002CF10, symSize: 0x1B4 }
  - { offset: 0x2133E6, size: 0x8, addend: 0x0, symName: __ZNK9Effekseer6FCurve8GetValueEffNS_18FCurveTimelineTypeE, symObjAddr: 0x1C4, symBinAddr: 0x10002CF10, symSize: 0x1B4 }
  - { offset: 0x21351F, size: 0x8, addend: 0x0, symName: __ZNK9Effekseer6FCurve9GetOffsetERNS_11IRandObjectE, symObjAddr: 0x378, symBinAddr: 0x10002D0C4, symSize: 0x14 }
  - { offset: 0x21352A, size: 0x8, addend: 0x0, symName: __ZNK9Effekseer6FCurve8GetValueEffNS_18FCurveTimelineTypeE.cold.1, symObjAddr: 0xECC, symBinAddr: 0x10034CBFC, symSize: 0x28 }
  - { offset: 0x213542, size: 0x8, addend: 0x0, symName: __ZNK9Effekseer6FCurve9GetOffsetERNS_11IRandObjectE, symObjAddr: 0x378, symBinAddr: 0x10002D0C4, symSize: 0x14 }
  - { offset: 0x21357E, size: 0x8, addend: 0x0, symName: __ZN9Effekseer6FCurve16ChangeCoordinateEv, symObjAddr: 0x38C, symBinAddr: 0x10002D0D8, symSize: 0xD4 }
  - { offset: 0x2135C3, size: 0x8, addend: 0x0, symName: __ZN9Effekseer6FCurve8MaginifyEf, symObjAddr: 0x460, symBinAddr: 0x10002D1AC, symSize: 0xD4 }
  - { offset: 0x21368E, size: 0x8, addend: 0x0, symName: __ZN9Effekseer12FCurveScalar4LoadEPKvi, symObjAddr: 0x534, symBinAddr: 0x10002D280, symSize: 0xCC }
  - { offset: 0x213786, size: 0x8, addend: 0x0, symName: __ZNK9Effekseer12FCurveScalar9GetValuesEff, symObjAddr: 0x600, symBinAddr: 0x10002D34C, symSize: 0x8 }
  - { offset: 0x213813, size: 0x8, addend: 0x0, symName: __ZNK9Effekseer12FCurveScalar10GetOffsetsERNS_11IRandObjectE, symObjAddr: 0x608, symBinAddr: 0x10002D354, symSize: 0x14 }
  - { offset: 0x21384B, size: 0x8, addend: 0x0, symName: __ZNK9Effekseer12FCurveScalar10GetOffsetsERNS_11IRandObjectE, symObjAddr: 0x608, symBinAddr: 0x10002D354, symSize: 0x14 }
  - { offset: 0x213890, size: 0x8, addend: 0x0, symName: __ZN9Effekseer14FCurveVector2D4LoadEPKvi, symObjAddr: 0x61C, symBinAddr: 0x10002D368, symSize: 0x150 }
  - { offset: 0x213B36, size: 0x8, addend: 0x0, symName: __ZNK9Effekseer14FCurveVector2D9GetValuesEff, symObjAddr: 0x76C, symBinAddr: 0x10002D4B8, symSize: 0x6C }
  - { offset: 0x213CA4, size: 0x8, addend: 0x0, symName: __ZNK9Effekseer14FCurveVector2D10GetOffsetsERNS_11IRandObjectE, symObjAddr: 0x7D8, symBinAddr: 0x10002D524, symSize: 0x6C }
  - { offset: 0x213E4E, size: 0x8, addend: 0x0, symName: __ZN9Effekseer14FCurveVector3D4LoadEPKvi, symObjAddr: 0x844, symBinAddr: 0x10002D590, symSize: 0x1D8 }
  - { offset: 0x2140E4, size: 0x8, addend: 0x0, symName: __ZNK9Effekseer14FCurveVector3D9GetValuesEff, symObjAddr: 0xA1C, symBinAddr: 0x10002D768, symSize: 0x84 }
  - { offset: 0x214287, size: 0x8, addend: 0x0, symName: __ZNK9Effekseer14FCurveVector3D10GetOffsetsERNS_11IRandObjectE, symObjAddr: 0xAA0, symBinAddr: 0x10002D7EC, symSize: 0x84 }
  - { offset: 0x214493, size: 0x8, addend: 0x0, symName: __ZN9Effekseer17FCurveVectorColor4LoadEPKvi, symObjAddr: 0xB24, symBinAddr: 0x10002D870, symSize: 0x258 }
  - { offset: 0x214745, size: 0x8, addend: 0x0, symName: __ZNK9Effekseer17FCurveVectorColor9GetValuesEff, symObjAddr: 0xD7C, symBinAddr: 0x10002DAC8, symSize: 0x9C }
  - { offset: 0x21481D, size: 0x8, addend: 0x0, symName: __ZNK9Effekseer17FCurveVectorColor10GetOffsetsERNS_11IRandObjectE, symObjAddr: 0xE18, symBinAddr: 0x10002DB64, symSize: 0x9C }
  - { offset: 0x21A64C, size: 0x8, addend: 0x0, symName: __ZN9Effekseer9CurlNoiseC2Eifi, symObjAddr: 0x16B0, symBinAddr: 0x10002F064, symSize: 0x55C }
  - { offset: 0x21B4A3, size: 0x8, addend: 0x0, symName: __ZN9Effekseer31LocalForceFieldElementParameter4LoadERPhi, symObjAddr: 0x170, symBinAddr: 0x10002DC00, symSize: 0x564 }
  - { offset: 0x21C3C6, size: 0x8, addend: 0x0, symName: __ZN9Effekseer24LocalForceFieldParameter4LoadERPhi, symObjAddr: 0x6D4, symBinAddr: 0x10002E164, symSize: 0x214 }
  - { offset: 0x21C3D1, size: 0x8, addend: 0x0, symName: __ZN9Effekseer31LocalForceFieldElementParameter4LoadERPhi.cold.1, symObjAddr: 0x1C0C, symBinAddr: 0x10034CC24, symSize: 0x28 }
  - { offset: 0x21C497, size: 0x8, addend: 0x0, symName: __ZN9Effekseer24LocalForceFieldParameter4LoadERPhi, symObjAddr: 0x6D4, symBinAddr: 0x10002E164, symSize: 0x214 }
  - { offset: 0x21C7C8, size: 0x8, addend: 0x0, symName: __ZN9Effekseer24LocalForceFieldParameter4LoadERPhi.cold.3, symObjAddr: 0x1C84, symBinAddr: 0x10034CC9C, symSize: 0x28 }
  - { offset: 0x21C7E0, size: 0x8, addend: 0x0, symName: __ZN9Effekseer24LocalForceFieldParameter4LoadERPhi.cold.2, symObjAddr: 0x1C5C, symBinAddr: 0x10034CC74, symSize: 0x28 }
  - { offset: 0x21C7F8, size: 0x8, addend: 0x0, symName: __ZN9Effekseer24LocalForceFieldParameter4LoadERPhi.cold.1, symObjAddr: 0x1C34, symBinAddr: 0x10034CC4C, symSize: 0x28 }
  - { offset: 0x21D471, size: 0x8, addend: 0x0, symName: __ZN9Effekseer23LocalForceFieldInstance6UpdateERKNS_24LocalForceFieldParameterERKNS_4SIMD5Vec3fES7_ffNS_16CoordinateSystemE, symObjAddr: 0x9C4, symBinAddr: 0x10002E378, symSize: 0x740 }
  - { offset: 0x21F08B, size: 0x8, addend: 0x0, symName: __ZN9Effekseer23LocalForceFieldInstance12UpdateGlobalERKNS_24LocalForceFieldParameterERKNS_4SIMD5Vec3fEfS7_fNS_16CoordinateSystemE, symObjAddr: 0x1104, symBinAddr: 0x10002EAB8, symSize: 0x598 }
  - { offset: 0x22032A, size: 0x8, addend: 0x0, symName: __ZN9Effekseer23LocalForceFieldInstance5ResetEv, symObjAddr: 0x169C, symBinAddr: 0x10002F050, symSize: 0x14 }
  - { offset: 0x2223F3, size: 0x8, addend: 0x0, symName: __ZN9Effekseer25LoadGpuParticlesParameterERPhifNS_16CoordinateSystemE, symObjAddr: 0x0, symBinAddr: 0x10002F5C0, symSize: 0x6C8 }
  - { offset: 0x222A95, size: 0x8, addend: 0x0, symName: __ZN9Effekseer25LoadGpuParticlesParameterERPhifNS_16CoordinateSystemE, symObjAddr: 0x0, symBinAddr: 0x10002F5C0, symSize: 0x6C8 }
  - { offset: 0x223570, size: 0x8, addend: 0x0, symName: __ZN9Effekseer25LoadGpuParticlesParameterERPhifNS_16CoordinateSystemE.cold.1, symObjAddr: 0x6C8, symBinAddr: 0x10034CCC4, symSize: 0x28 }
  - { offset: 0x225DCB, size: 0x8, addend: 0x0, symName: __ZN9Effekseer25LoadGpuParticlesParameterERPhifNS_16CoordinateSystemE.cold.2, symObjAddr: 0x6F0, symBinAddr: 0x10034CCEC, symSize: 0x28 }
  - { offset: 0x225DE3, size: 0x8, addend: 0x0, symName: __ZN9Effekseer25LoadGpuParticlesParameterERPhifNS_16CoordinateSystemE.cold.1, symObjAddr: 0x6C8, symBinAddr: 0x10034CCC4, symSize: 0x28 }
  - { offset: 0x24FB68, size: 0x8, addend: 0x0, symName: __ZNK9Effekseer16TimeSeriesMatrix10GetCurrentEv, symObjAddr: 0x78, symBinAddr: 0x10002FC88, symSize: 0x8 }
  - { offset: 0x24FF7C, size: 0x8, addend: 0x0, symName: __ZNK9Effekseer16TimeSeriesMatrix3GetEf, symObjAddr: 0x80, symBinAddr: 0x10002FC90, symSize: 0x4F0 }
  - { offset: 0x250894, size: 0x8, addend: 0x0, symName: __ZN9Effekseer4SIMD11Quaternionf5SlerpERKS1_S3_f, symObjAddr: 0x570, symBinAddr: 0x100030180, symSize: 0xF4 }
  - { offset: 0x250CD9, size: 0x8, addend: 0x0, symName: __ZN9Effekseer8InstanceC2EPNS_18ManagerImplementedEPNS_21EffectNodeImplementedEPNS_17InstanceContainerEPNS_13InstanceGroupE, symObjAddr: 0x664, symBinAddr: 0x100030274, symSize: 0x1C0 }
  - { offset: 0x250F5C, size: 0x8, addend: 0x0, symName: __ZN9Effekseer8InstanceC1EPNS_18ManagerImplementedEPNS_21EffectNodeImplementedEPNS_17InstanceContainerEPNS_13InstanceGroupE, symObjAddr: 0x824, symBinAddr: 0x100030434, symSize: 0x4 }
  - { offset: 0x250FBD, size: 0x8, addend: 0x0, symName: __ZN9Effekseer8InstanceC1EPNS_18ManagerImplementedEPNS_21EffectNodeImplementedEPNS_17InstanceContainerEPNS_13InstanceGroupE, symObjAddr: 0x824, symBinAddr: 0x100030434, symSize: 0x4 }
  - { offset: 0x251008, size: 0x8, addend: 0x0, symName: __ZN9Effekseer8InstanceD1Ev, symObjAddr: 0x84C, symBinAddr: 0x100030438, symSize: 0x24 }
  - { offset: 0x251042, size: 0x8, addend: 0x0, symName: __ZN9Effekseer8InstanceD0Ev, symObjAddr: 0x870, symBinAddr: 0x10003045C, symSize: 0x24 }
  - { offset: 0x25104D, size: 0x8, addend: 0x0, symName: __ZN9Effekseer8InstanceD1Ev.cold.1, symObjAddr: 0x5684, symBinAddr: 0x10034CD14, symSize: 0x24 }
  - { offset: 0x251096, size: 0x8, addend: 0x0, symName: __ZN9Effekseer8InstanceD0Ev, symObjAddr: 0x870, symBinAddr: 0x10003045C, symSize: 0x24 }
  - { offset: 0x2510F1, size: 0x8, addend: 0x0, symName: __ZN9Effekseer8Instance26GenerateChildrenIfRequiredEv, symObjAddr: 0x894, symBinAddr: 0x100030480, symSize: 0x4C }
  - { offset: 0x25111A, size: 0x8, addend: 0x0, symName: __ZN9Effekseer8Instance26GenerateChildrenIfRequiredEv, symObjAddr: 0x894, symBinAddr: 0x100030480, symSize: 0x4C }
  - { offset: 0x251161, size: 0x8, addend: 0x0, symName: __ZN9Effekseer8Instance17GetInstanceGlobalEv, symObjAddr: 0x918, symBinAddr: 0x1000304CC, symSize: 0x8 }
  - { offset: 0x251183, size: 0x8, addend: 0x0, symName: __ZNK9Effekseer8Instance8GetStateEv, symObjAddr: 0x920, symBinAddr: 0x1000304D4, symSize: 0x8 }
  - { offset: 0x2511A5, size: 0x8, addend: 0x0, symName: __ZNK9Effekseer8Instance15GetGlobalMatrixEv, symObjAddr: 0x928, symBinAddr: 0x1000304DC, symSize: 0x8 }
  - { offset: 0x2511C7, size: 0x8, addend: 0x0, symName: __ZNK9Effekseer8Instance23GetRenderedGlobalMatrixEv, symObjAddr: 0x930, symBinAddr: 0x1000304E4, symSize: 0x8 }
  - { offset: 0x2512A2, size: 0x8, addend: 0x0, symName: __ZN9Effekseer8Instance17ResetGlobalMatrixERKNS_4SIMD6Mat43fE, symObjAddr: 0x938, symBinAddr: 0x1000304EC, symSize: 0x148 }
  - { offset: 0x251490, size: 0x8, addend: 0x0, symName: __ZN9Effekseer8Instance18UpdateGlobalMatrixERKNS_4SIMD6Mat43fE, symObjAddr: 0xA80, symBinAddr: 0x100030634, symSize: 0x15C }
  - { offset: 0x251805, size: 0x8, addend: 0x0, symName: __ZN9Effekseer8Instance15ApplyBaseMatrixERKNS_4SIMD6Mat43fE, symObjAddr: 0xBDC, symBinAddr: 0x100030790, symSize: 0x7C }
  - { offset: 0x251B38, size: 0x8, addend: 0x0, symName: __ZN9Effekseer8Instance10InitializeEPS0_fi, symObjAddr: 0xC58, symBinAddr: 0x10003080C, symSize: 0xA8 }
  - { offset: 0x251B43, size: 0x8, addend: 0x0, symName: __ZN9Effekseer8Instance15ApplyBaseMatrixERKNS_4SIMD6Mat43fE.cold.1, symObjAddr: 0x56CC, symBinAddr: 0x10034CD38, symSize: 0x28 }
  - { offset: 0x251B5B, size: 0x8, addend: 0x0, symName: __ZN9Effekseer8Instance10InitializeEPS0_fi, symObjAddr: 0xC58, symBinAddr: 0x10003080C, symSize: 0xA8 }
  - { offset: 0x251BCE, size: 0x8, addend: 0x0, symName: __ZN9Effekseer8Instance11FirstUpdateEv, symObjAddr: 0xD00, symBinAddr: 0x1000308B4, symSize: 0x6D4 }
  - { offset: 0x251BD9, size: 0x8, addend: 0x0, symName: __ZN9Effekseer8Instance10InitializeEPS0_fi.cold.1, symObjAddr: 0x56F4, symBinAddr: 0x10034CD60, symSize: 0x28 }
  - { offset: 0x251F57, size: 0x8, addend: 0x0, symName: __ZN9Effekseer8Instance11FirstUpdateEv, symObjAddr: 0xD00, symBinAddr: 0x1000308B4, symSize: 0x6D4 }
  - { offset: 0x252B96, size: 0x8, addend: 0x0, symName: __ZN9Effekseer8Instance15UpdateTransformEf, symObjAddr: 0x13D4, symBinAddr: 0x100030F88, symSize: 0xAF4 }
  - { offset: 0x252BAB, size: 0x8, addend: 0x0, symName: __ZN9Effekseer8Instance15UpdateTransformEf, symObjAddr: 0x13D4, symBinAddr: 0x100030F88, symSize: 0xAF4 }
  - { offset: 0x254AA3, size: 0x8, addend: 0x0, symName: __ZN9Effekseer8Instance18UpdateParentMatrixEf, symObjAddr: 0x1EC8, symBinAddr: 0x100031A7C, symSize: 0x16C }
  - { offset: 0x254B8D, size: 0x8, addend: 0x0, symName: __ZN9Effekseer20TranslationParameter26InitializeTranslationStateERNS_24InstanceTranslationStateERNS_4SIMD5Vec3fES5_RNS_10RandObjectEPKNS_6EffectEPKNS_14InstanceGlobalEffPKNS_8InstanceERKNS_22DynamicFactorParameterE, symObjAddr: 0x2034, symBinAddr: 0x100031BE8, symSize: 0x4BC }
  - { offset: 0x254B98, size: 0x8, addend: 0x0, symName: __ZN9Effekseer20TranslationParameter26InitializeTranslationStateERNS_24InstanceTranslationStateERNS_4SIMD5Vec3fES5_RNS_10RandObjectEPKNS_6EffectEPKNS_14InstanceGlobalEffPKNS_8InstanceERKNS_22DynamicFactorParameterE, symObjAddr: 0x2034, symBinAddr: 0x100031BE8, symSize: 0x4BC }
  - { offset: 0x25550A, size: 0x8, addend: 0x0, symName: __ZN9Effekseer16ScalingFunctions11InitScalingERNS_12ScalingStateERKNS_16ScalingParameterERNS_10RandObjectEPKNS_6EffectEPKNS_14InstanceGlobalEffPKNS_8InstanceERKNS_22DynamicFactorParameterE, symObjAddr: 0x24F0, symBinAddr: 0x1000320A4, symSize: 0x3F4 }
  - { offset: 0x255524, size: 0x8, addend: 0x0, symName: __ZN9Effekseer16ScalingFunctions11InitScalingERNS_12ScalingStateERKNS_16ScalingParameterERNS_10RandObjectEPKNS_6EffectEPKNS_14InstanceGlobalEffPKNS_8InstanceERKNS_22DynamicFactorParameterE, symObjAddr: 0x24F0, symBinAddr: 0x1000320A4, symSize: 0x3F4 }
  - { offset: 0x255C59, size: 0x8, addend: 0x0, symName: __ZN9Effekseer27ParameterGenerationLocation26GenerateGenerationPositionERKNS_6EffectEPKNS_14InstanceGlobalERKNS_4SIMD6Mat43fEiifNS_16CoordinateSystemERNS_10RandObjectE, symObjAddr: 0x28E4, symBinAddr: 0x100032498, symSize: 0xBA8 }
  - { offset: 0x255C64, size: 0x8, addend: 0x0, symName: __ZN9Effekseer27ParameterGenerationLocation26GenerateGenerationPositionERKNS_6EffectEPKNS_14InstanceGlobalERKNS_4SIMD6Mat43fEiifNS_16CoordinateSystemERNS_10RandObjectE, symObjAddr: 0x28E4, symBinAddr: 0x100032498, symSize: 0xBA8 }
  - { offset: 0x25811B, size: 0x8, addend: 0x0, symName: __ZN9Effekseer11UVFunctions11InitUVStateERNS_15InstanceUVStateERNS_10RandObjectERKNS_11UVParameterE, symObjAddr: 0x348C, symBinAddr: 0x100033040, symSize: 0x1B8 }
  - { offset: 0x2583DD, size: 0x8, addend: 0x0, symName: __ZN9Effekseer20AlphaCutoffFunctions18InitAlphaThresholdERNS_17AlphaCuttoffStateERNS_10RandObjectERKNS_20ParameterAlphaCutoffEPKNS_8InstanceEPKNS_6EffectEPKNS_14InstanceGlobalE, symObjAddr: 0x3644, symBinAddr: 0x1000331F8, symSize: 0x150 }
  - { offset: 0x258626, size: 0x8, addend: 0x0, symName: __ZN9Effekseer19CustomDataFunctions14InitCustomDataERNS_18InstanceCustomDataERNS_10RandObjectEPKNS_19ParameterCustomDataE, symObjAddr: 0x3794, symBinAddr: 0x100033348, symSize: 0x170 }
  - { offset: 0x2589A6, size: 0x8, addend: 0x0, symName: __ZN9Effekseer8Instance25InitializeGlobalDirectionEv, symObjAddr: 0x3904, symBinAddr: 0x1000334B8, symSize: 0x418 }
  - { offset: 0x2597B0, size: 0x8, addend: 0x0, symName: __ZN9Effekseer8Instance11FirstUpdateEv.cold.2, symObjAddr: 0x5744, symBinAddr: 0x10034CDB0, symSize: 0x28 }
  - { offset: 0x2597C8, size: 0x8, addend: 0x0, symName: __ZN9Effekseer8Instance11FirstUpdateEv.cold.1, symObjAddr: 0x571C, symBinAddr: 0x10034CD88, symSize: 0x28 }
  - { offset: 0x259AF8, size: 0x8, addend: 0x0, symName: __ZN9Effekseer8Instance26CalculateLocalAccelerationERKNS_4SIMD5Vec3fERS2_RNS_24InstanceTranslationStateERNS_10RandObjectEfffNS_16CoordinateSystemE, symObjAddr: 0x45F0, symBinAddr: 0x1000341A4, symSize: 0x1FC }
  - { offset: 0x25A2BC, size: 0x8, addend: 0x0, symName: __ZN9Effekseer20TranslationParameter25CalculateTranslationStateERNS_24InstanceTranslationStateERNS_10RandObjectEPKNS_6EffectEPKNS_14InstanceGlobalEfffPKNS_8InstanceENS_16CoordinateSystemERKNS_22DynamicFactorParameterE, symObjAddr: 0x47EC, symBinAddr: 0x1000343A0, symSize: 0x2C4 }
  - { offset: 0x25A88A, size: 0x8, addend: 0x0, symName: __ZN9Effekseer16ScalingFunctions13UpdateScalingERNS_12ScalingStateERKNS_16ScalingParameterERNS_10RandObjectEPKNS_6EffectEPKNS_14InstanceGlobalEffPKNS_8InstanceERKNS_22DynamicFactorParameterE, symObjAddr: 0x4AB0, symBinAddr: 0x100034664, symSize: 0x1D4 }
  - { offset: 0x25A895, size: 0x8, addend: 0x0, symName: __ZN9Effekseer16ScalingFunctions13UpdateScalingERNS_12ScalingStateERKNS_16ScalingParameterERNS_10RandObjectEPKNS_6EffectEPKNS_14InstanceGlobalEffPKNS_8InstanceERKNS_22DynamicFactorParameterE, symObjAddr: 0x4AB0, symBinAddr: 0x100034664, symSize: 0x1D4 }
  - { offset: 0x25AD93, size: 0x8, addend: 0x0, symName: __ZN9Effekseer8Instance15UpdateTransformEf.cold.1, symObjAddr: 0x576C, symBinAddr: 0x10034CDD8, symSize: 0x28 }
  - { offset: 0x25ADAB, size: 0x8, addend: 0x0, symName: __ZN9Effekseer8Instance15UpdateTransformEf.cold.5, symObjAddr: 0x580C, symBinAddr: 0x10034CE78, symSize: 0x28 }
  - { offset: 0x25ADC3, size: 0x8, addend: 0x0, symName: __ZN9Effekseer8Instance15UpdateTransformEf.cold.4, symObjAddr: 0x57E4, symBinAddr: 0x10034CE50, symSize: 0x28 }
  - { offset: 0x25ADDB, size: 0x8, addend: 0x0, symName: __ZN9Effekseer8Instance15UpdateTransformEf.cold.3, symObjAddr: 0x57BC, symBinAddr: 0x10034CE28, symSize: 0x28 }
  - { offset: 0x25ADF3, size: 0x8, addend: 0x0, symName: __ZN9Effekseer8Instance15UpdateTransformEf.cold.2, symObjAddr: 0x5794, symBinAddr: 0x10034CE00, symSize: 0x28 }
  - { offset: 0x25AE0B, size: 0x8, addend: 0x0, symName: __ZN9Effekseer8Instance18UpdateParentMatrixEf.cold.1, symObjAddr: 0x5834, symBinAddr: 0x10034CEA0, symSize: 0x28 }
  - { offset: 0x25AE23, size: 0x8, addend: 0x0, symName: __ZN9Effekseer8Instance18UpdateParentMatrixEf.cold.2, symObjAddr: 0x585C, symBinAddr: 0x10034CEC8, symSize: 0x28 }
  - { offset: 0x25B03E, size: 0x8, addend: 0x0, symName: __ZN9Effekseer5Curve14CalcuratePointEff, symObjAddr: 0x51F8, symBinAddr: 0x100034D7C, symSize: 0x2F8 }
  - { offset: 0x25BC8E, size: 0x8, addend: 0x0, symName: __ZN9Effekseer5Curve20CalcBSplineBasisFuncERKNSt3__16vectorIdNS1_9allocatorIdEEEEjjd, symObjAddr: 0x54F0, symBinAddr: 0x100035074, symSize: 0x158 }
  - { offset: 0x25BC99, size: 0x8, addend: 0x0, symName: __ZN9Effekseer20TranslationParameter26InitializeTranslationStateERNS_24InstanceTranslationStateERNS_4SIMD5Vec3fES5_RNS_10RandObjectEPKNS_6EffectEPKNS_14InstanceGlobalEffPKNS_8InstanceERKNS_22DynamicFactorParameterE.cold.1, symObjAddr: 0x5884, symBinAddr: 0x10034CEF0, symSize: 0x28 }
  - { offset: 0x25BD26, size: 0x8, addend: 0x0, symName: __ZN9Effekseer16ScalingFunctions11InitScalingERNS_12ScalingStateERKNS_16ScalingParameterERNS_10RandObjectEPKNS_6EffectEPKNS_14InstanceGlobalEffPKNS_8InstanceERKNS_22DynamicFactorParameterE.cold.2, symObjAddr: 0x58D4, symBinAddr: 0x10034CF40, symSize: 0x28 }
  - { offset: 0x25BD3E, size: 0x8, addend: 0x0, symName: __ZN9Effekseer16ScalingFunctions11InitScalingERNS_12ScalingStateERKNS_16ScalingParameterERNS_10RandObjectEPKNS_6EffectEPKNS_14InstanceGlobalEffPKNS_8InstanceERKNS_22DynamicFactorParameterE.cold.1, symObjAddr: 0x58AC, symBinAddr: 0x10034CF18, symSize: 0x28 }
  - { offset: 0x25C3E6, size: 0x8, addend: 0x0, symName: __ZN9Effekseer8Instance6UpdateEfb, symObjAddr: 0x3D1C, symBinAddr: 0x1000338D0, symSize: 0x518 }
  - { offset: 0x25CADA, size: 0x8, addend: 0x0, symName: __ZN9Effekseer20AlphaCutoffFunctions18CalcAlphaThresholdERNS_10RandObjectEPKNS_8InstanceERKNS_20ParameterAlphaCutoffERKNS_17AlphaCuttoffStateEPKNS_6EffectEPKNS_14InstanceGlobalEff, symObjAddr: 0x4234, symBinAddr: 0x100033DE8, symSize: 0x19C }
  - { offset: 0x25CAE5, size: 0x8, addend: 0x0, symName: __ZN9Effekseer20AlphaCutoffFunctions18CalcAlphaThresholdERNS_10RandObjectEPKNS_8InstanceERKNS_20ParameterAlphaCutoffERKNS_17AlphaCuttoffStateEPKNS_6EffectEPKNS_14InstanceGlobalEff, symObjAddr: 0x4234, symBinAddr: 0x100033DE8, symSize: 0x19C }
  - { offset: 0x25CCD6, size: 0x8, addend: 0x0, symName: __ZN9Effekseer8Instance6UpdateEfb.cold.1, symObjAddr: 0x58FC, symBinAddr: 0x10034CF68, symSize: 0x28 }
  - { offset: 0x25CCEE, size: 0x8, addend: 0x0, symName: __ZNK9Effekseer8Instance17AreChildrenActiveEv, symObjAddr: 0x43D0, symBinAddr: 0x100033F84, symSize: 0x3C }
  - { offset: 0x25CD27, size: 0x8, addend: 0x0, symName: __ZN9Effekseer8Instance4KillEv, symObjAddr: 0x440C, symBinAddr: 0x100033FC0, symSize: 0x98 }
  - { offset: 0x25CD4B, size: 0x8, addend: 0x0, symName: __ZN9Effekseer8Instance4KillEv, symObjAddr: 0x440C, symBinAddr: 0x100033FC0, symSize: 0x98 }
  - { offset: 0x25CE40, size: 0x8, addend: 0x0, symName: __ZNK9Effekseer8Instance20HasCollidedThisFrameEv, symObjAddr: 0x44A4, symBinAddr: 0x100034058, symSize: 0x8 }
  - { offset: 0x25CE6A, size: 0x8, addend: 0x0, symName: __ZNK9Effekseer8Instance27GetFlipbookIndexAndNextRateEv, symObjAddr: 0x44AC, symBinAddr: 0x100034060, symSize: 0x14 }
  - { offset: 0x25CEB7, size: 0x8, addend: 0x0, symName: __ZNK9Effekseer8Instance27GetFlipbookIndexAndNextRateERKNS_15UVAnimationTypeERKNS_11UVParameterERKNS_15InstanceUVStateE, symObjAddr: 0x44C0, symBinAddr: 0x100034074, symSize: 0x128 }
  - { offset: 0x25D043, size: 0x8, addend: 0x0, symName: __ZNK9Effekseer8Instance18GetGlobalDirectionEv, symObjAddr: 0x45E8, symBinAddr: 0x10003419C, symSize: 0x8 }
  - { offset: 0x25D06B, size: 0x8, addend: 0x0, symName: __ZN9Effekseer20TranslationParameter25CalculateTranslationStateERNS_24InstanceTranslationStateERNS_10RandObjectEPKNS_6EffectEPKNS_14InstanceGlobalEfffPKNS_8InstanceENS_16CoordinateSystemERKNS_22DynamicFactorParameterE.cold.1, symObjAddr: 0x5924, symBinAddr: 0x10034CF90, symSize: 0x28 }
  - { offset: 0x25D083, size: 0x8, addend: 0x0, symName: __ZN9Effekseer16ScalingFunctions13UpdateScalingERNS_12ScalingStateERKNS_16ScalingParameterERNS_10RandObjectEPKNS_6EffectEPKNS_14InstanceGlobalEffPKNS_8InstanceERKNS_22DynamicFactorParameterE.cold.1, symObjAddr: 0x594C, symBinAddr: 0x10034CFB8, symSize: 0x28 }
  - { offset: 0x25D09B, size: 0x8, addend: 0x0, symName: __ZN9Effekseer16ScalingFunctions13UpdateScalingERNS_12ScalingStateERKNS_16ScalingParameterERNS_10RandObjectEPKNS_6EffectEPKNS_14InstanceGlobalEffPKNS_8InstanceERKNS_22DynamicFactorParameterE.cold.2, symObjAddr: 0x5974, symBinAddr: 0x10034CFE0, symSize: 0x28 }
  - { offset: 0x25D0C9, size: 0x8, addend: 0x0, symName: __ZN9Effekseer8Instance4DrawEPS0_iPv, symObjAddr: 0x4C98, symBinAddr: 0x100034838, symSize: 0xC8 }
  - { offset: 0x25D180, size: 0x8, addend: 0x0, symName: __ZNK9Effekseer8Instance5GetUVEi, symObjAddr: 0x4D60, symBinAddr: 0x100034900, symSize: 0x5C }
  - { offset: 0x25D18B, size: 0x8, addend: 0x0, symName: __ZN9Effekseer8Instance4DrawEPS0_iPv.cold.1, symObjAddr: 0x599C, symBinAddr: 0x10034D008, symSize: 0x28 }
  - { offset: 0x25D1EF, size: 0x8, addend: 0x0, symName: __ZNK9Effekseer8Instance5GetUVEi, symObjAddr: 0x4D60, symBinAddr: 0x100034900, symSize: 0x5C }
  - { offset: 0x25D286, size: 0x8, addend: 0x0, symName: __ZN9Effekseer11UVFunctions5GetUVERKNS_15InstanceUVStateERKNS_11UVParameterEff, symObjAddr: 0x4DD8, symBinAddr: 0x10003495C, symSize: 0x21C }
  - { offset: 0x25D3DF, size: 0x8, addend: 0x0, symName: __ZNK9Effekseer8Instance5GetUVEiff, symObjAddr: 0x4FF4, symBinAddr: 0x100034B78, symSize: 0x54 }
  - { offset: 0x25D4A9, size: 0x8, addend: 0x0, symName: __ZNK9Effekseer8Instance13GetCustomDataEi, symObjAddr: 0x5048, symBinAddr: 0x100034BCC, symSize: 0x68 }
  - { offset: 0x25D512, size: 0x8, addend: 0x0, symName: __ZN9Effekseer19CustomDataFunctions13GetCustomDataEPKNS_19ParameterCustomDataEPKNS_18InstanceCustomDataEPKNS_14InstanceGlobalEff, symObjAddr: 0x50B0, symBinAddr: 0x100034C34, symSize: 0x148 }
  - { offset: 0x25D51D, size: 0x8, addend: 0x0, symName: __ZN9Effekseer19CustomDataFunctions13GetCustomDataEPKNS_19ParameterCustomDataEPKNS_18InstanceCustomDataEPKNS_14InstanceGlobalEff, symObjAddr: 0x50B0, symBinAddr: 0x100034C34, symSize: 0x148 }
  - { offset: 0x25D64B, size: 0x8, addend: 0x0, symName: __ZN9Effekseer5Curve14CalcuratePointEff, symObjAddr: 0x51F8, symBinAddr: 0x100034D7C, symSize: 0x2F8 }
  - { offset: 0x25D656, size: 0x8, addend: 0x0, symName: __ZNK9Effekseer8Instance13GetCustomDataEi.cold.1, symObjAddr: 0x59C4, symBinAddr: 0x10034D030, symSize: 0x28 }
  - { offset: 0x25D6C0, size: 0x8, addend: 0x0, symName: __ZN9Effekseer19CustomDataFunctions13GetCustomDataEPKNS_19ParameterCustomDataEPKNS_18InstanceCustomDataEPKNS_14InstanceGlobalEff.cold.1, symObjAddr: 0x59EC, symBinAddr: 0x10034D058, symSize: 0x28 }
  - { offset: 0x25DE20, size: 0x8, addend: 0x0, symName: __ZN9Effekseer5Curve20CalcBSplineBasisFuncERKNSt3__16vectorIdNS1_9allocatorIdEEEEjjd, symObjAddr: 0x54F0, symBinAddr: 0x100035074, symSize: 0x158 }
  - { offset: 0x25DF75, size: 0x8, addend: 0x0, symName: _OUTLINED_FUNCTION_0, symObjAddr: 0x5A14, symBinAddr: 0x1000351CC, symSize: 0x8 }
  - { offset: 0x275022, size: 0x8, addend: 0x0, symName: __ZN9Effekseer13InstanceChunkC1Ev, symObjAddr: 0x18, symBinAddr: 0x1000351D4, symSize: 0x18 }
  - { offset: 0x2750FF, size: 0x8, addend: 0x0, symName: __ZN9Effekseer13InstanceChunk15UpdateInstancesEv, symObjAddr: 0x38, symBinAddr: 0x1000351EC, symSize: 0xC4 }
  - { offset: 0x2751D6, size: 0x8, addend: 0x0, symName: __ZN9Effekseer13InstanceChunk26GenerateChildrenInRequiredEv, symObjAddr: 0xFC, symBinAddr: 0x1000352B0, symSize: 0x19C }
  - { offset: 0x275252, size: 0x8, addend: 0x0, symName: __ZN9Effekseer13InstanceChunk31UpdateInstancesByInstanceGlobalEPKNS_14InstanceGlobalE, symObjAddr: 0x298, symBinAddr: 0x10003544C, symSize: 0xDC }
  - { offset: 0x275311, size: 0x8, addend: 0x0, symName: __ZN9Effekseer13InstanceChunk42GenerateChildrenInRequiredByInstanceGlobalEPKNS_14InstanceGlobalE, symObjAddr: 0x374, symBinAddr: 0x100035528, symSize: 0x70 }
  - { offset: 0x27537E, size: 0x8, addend: 0x0, symName: __ZN9Effekseer13InstanceChunk14CreateInstanceEPNS_18ManagerImplementedEPNS_21EffectNodeImplementedEPNS_17InstanceContainerEPNS_13InstanceGroupE, symObjAddr: 0x3E4, symBinAddr: 0x100035598, symSize: 0x178 }
  - { offset: 0x29ADB1, size: 0x8, addend: 0x0, symName: __ZN9Effekseer17InstanceContainerC1EPNS_18ManagerImplementedEPNS_10EffectNodeEPNS_14InstanceGlobalE, symObjAddr: 0x34, symBinAddr: 0x100035710, symSize: 0x34 }
  - { offset: 0x29AE05, size: 0x8, addend: 0x0, symName: __ZN9Effekseer17InstanceContainerC1EPNS_18ManagerImplementedEPNS_10EffectNodeEPNS_14InstanceGlobalE, symObjAddr: 0x34, symBinAddr: 0x100035710, symSize: 0x34 }
  - { offset: 0x29AEFC, size: 0x8, addend: 0x0, symName: __ZN9Effekseer17InstanceContainerD2Ev, symObjAddr: 0x68, symBinAddr: 0x100035744, symSize: 0x94 }
  - { offset: 0x29B02B, size: 0x8, addend: 0x0, symName: __ZN9Effekseer17InstanceContainer14RemoveForciblyEb, symObjAddr: 0xFC, symBinAddr: 0x1000357D8, symSize: 0x108 }
  - { offset: 0x29B036, size: 0x8, addend: 0x0, symName: __ZN9Effekseer17InstanceContainer14RemoveForciblyEb, symObjAddr: 0xFC, symBinAddr: 0x1000357D8, symSize: 0x108 }
  - { offset: 0x29B176, size: 0x8, addend: 0x0, symName: __ZN9Effekseer17InstanceContainerD2Ev.cold.1, symObjAddr: 0x7BC, symBinAddr: 0x10034D080, symSize: 0x28 }
  - { offset: 0x29B18E, size: 0x8, addend: 0x0, symName: __ZN9Effekseer17InstanceContainerD2Ev.cold.2, symObjAddr: 0x7E4, symBinAddr: 0x10034D0A8, symSize: 0x28 }
  - { offset: 0x29B244, size: 0x8, addend: 0x0, symName: __ZN9Effekseer17InstanceContainerD1Ev, symObjAddr: 0x204, symBinAddr: 0x1000358E0, symSize: 0x4 }
  - { offset: 0x29B266, size: 0x8, addend: 0x0, symName: __ZN9Effekseer17InstanceContainerD1Ev, symObjAddr: 0x204, symBinAddr: 0x1000358E0, symSize: 0x4 }
  - { offset: 0x29B295, size: 0x8, addend: 0x0, symName: __ZN9Effekseer17InstanceContainerD0Ev, symObjAddr: 0x208, symBinAddr: 0x1000358E4, symSize: 0x18 }
  - { offset: 0x29B313, size: 0x8, addend: 0x0, symName: __ZN9Effekseer17InstanceContainer8AddChildEPS0_, symObjAddr: 0x220, symBinAddr: 0x1000358FC, symSize: 0x58 }
  - { offset: 0x29B37D, size: 0x8, addend: 0x0, symName: __ZN9Effekseer17InstanceContainer8GetChildEi, symObjAddr: 0x278, symBinAddr: 0x100035954, symSize: 0x48 }
  - { offset: 0x29B388, size: 0x8, addend: 0x0, symName: __ZN9Effekseer17InstanceContainer8AddChildEPS0_.cold.3, symObjAddr: 0x85C, symBinAddr: 0x10034D120, symSize: 0x28 }
  - { offset: 0x29B3B5, size: 0x8, addend: 0x0, symName: __ZN9Effekseer17InstanceContainer8AddChildEPS0_.cold.1, symObjAddr: 0x80C, symBinAddr: 0x10034D0D0, symSize: 0x28 }
  - { offset: 0x29B3E2, size: 0x8, addend: 0x0, symName: __ZN9Effekseer17InstanceContainer8AddChildEPS0_.cold.2, symObjAddr: 0x834, symBinAddr: 0x10034D0F8, symSize: 0x28 }
  - { offset: 0x29B473, size: 0x8, addend: 0x0, symName: __ZN9Effekseer17InstanceContainer8GetChildEi, symObjAddr: 0x278, symBinAddr: 0x100035954, symSize: 0x48 }
  - { offset: 0x29B52D, size: 0x8, addend: 0x0, symName: __ZN9Effekseer17InstanceContainer19RemoveInvalidGroupsEv, symObjAddr: 0x2C0, symBinAddr: 0x10003599C, symSize: 0xA4 }
  - { offset: 0x29B538, size: 0x8, addend: 0x0, symName: __ZN9Effekseer17InstanceContainer8GetChildEi.cold.3, symObjAddr: 0x8D4, symBinAddr: 0x10034D198, symSize: 0x28 }
  - { offset: 0x29B565, size: 0x8, addend: 0x0, symName: __ZN9Effekseer17InstanceContainer8GetChildEi.cold.1, symObjAddr: 0x884, symBinAddr: 0x10034D148, symSize: 0x28 }
  - { offset: 0x29B57D, size: 0x8, addend: 0x0, symName: __ZN9Effekseer17InstanceContainer8GetChildEi.cold.2, symObjAddr: 0x8AC, symBinAddr: 0x10034D170, symSize: 0x28 }
  - { offset: 0x29B5AA, size: 0x8, addend: 0x0, symName: __ZN9Effekseer17InstanceContainer19RemoveInvalidGroupsEv, symObjAddr: 0x2C0, symBinAddr: 0x10003599C, symSize: 0xA4 }
  - { offset: 0x29B610, size: 0x8, addend: 0x0, symName: __ZN9Effekseer17InstanceContainer19RemoveInvalidGroupsEv.cold.1, symObjAddr: 0x8FC, symBinAddr: 0x10034D1C0, symSize: 0x28 }
  - { offset: 0x29B628, size: 0x8, addend: 0x0, symName: __ZN9Effekseer17InstanceContainer19CreateInstanceGroupEv, symObjAddr: 0x364, symBinAddr: 0x100035A40, symSize: 0x74 }
  - { offset: 0x29B675, size: 0x8, addend: 0x0, symName: __ZNK9Effekseer17InstanceContainer13GetFirstGroupEv, symObjAddr: 0x3D8, symBinAddr: 0x100035AB4, symSize: 0x8 }
  - { offset: 0x29B680, size: 0x8, addend: 0x0, symName: __ZN9Effekseer17InstanceContainer19CreateInstanceGroupEv.cold.1, symObjAddr: 0x924, symBinAddr: 0x10034D1E8, symSize: 0x28 }
  - { offset: 0x29B698, size: 0x8, addend: 0x0, symName: __ZNK9Effekseer17InstanceContainer13GetFirstGroupEv, symObjAddr: 0x3D8, symBinAddr: 0x100035AB4, symSize: 0x8 }
  - { offset: 0x29B6C1, size: 0x8, addend: 0x0, symName: __ZN9Effekseer17InstanceContainer6UpdateEbb, symObjAddr: 0x3E0, symBinAddr: 0x100035ABC, symSize: 0xFC }
  - { offset: 0x29B7DB, size: 0x8, addend: 0x0, symName: __ZN9Effekseer17InstanceContainer15ApplyBaseMatrixEbRKNS_4SIMD6Mat43fE, symObjAddr: 0x4DC, symBinAddr: 0x100035BB8, symSize: 0x84 }
  - { offset: 0x29B8BB, size: 0x8, addend: 0x0, symName: __ZN9Effekseer17InstanceContainer16KillAllInstancesEb, symObjAddr: 0x560, symBinAddr: 0x100035C3C, symSize: 0x60 }
  - { offset: 0x29B9F0, size: 0x8, addend: 0x0, symName: __ZN9Effekseer17InstanceContainer4DrawEb, symObjAddr: 0x5C0, symBinAddr: 0x100035C9C, symSize: 0x1F4 }
  - { offset: 0x29BD1A, size: 0x8, addend: 0x0, symName: __ZN9Effekseer17InstanceContainer15GetRootInstanceEv, symObjAddr: 0x7B4, symBinAddr: 0x100035E90, symSize: 0x8 }
  - { offset: 0x29DC17, size: 0x8, addend: 0x0, symName: __ZN9Effekseer14InstanceGlobalnwEm, symObjAddr: 0x0, symBinAddr: 0x100035E98, symSize: 0xC0 }
  - { offset: 0x2A3946, size: 0x8, addend: 0x0, symName: __ZN9Effekseer14InstanceGlobalnwEm.cold.1, symObjAddr: 0x5FC, symBinAddr: 0x10034D210, symSize: 0x28 }
  - { offset: 0x2A590C, size: 0x8, addend: 0x0, symName: __ZN9Effekseer14InstanceGlobalnwEm, symObjAddr: 0x0, symBinAddr: 0x100035E98, symSize: 0xC0 }
  - { offset: 0x2A5A4F, size: 0x8, addend: 0x0, symName: __ZN9Effekseer14InstanceGlobalnwEm.cold.1, symObjAddr: 0x5FC, symBinAddr: 0x10034D210, symSize: 0x28 }
  - { offset: 0x2A5D4A, size: 0x8, addend: 0x0, symName: __ZN9Effekseer14InstanceGlobalC1Ev, symObjAddr: 0x204, symBinAddr: 0x100035F58, symSize: 0x94 }
  - { offset: 0x2A6254, size: 0x8, addend: 0x0, symName: __ZN9Effekseer14InstanceGlobalD1Ev, symObjAddr: 0x328, symBinAddr: 0x100035FEC, symSize: 0x90 }
  - { offset: 0x2A661A, size: 0x8, addend: 0x0, symName: __ZN9Effekseer14InstanceGlobalD0Ev, symObjAddr: 0x3B8, symBinAddr: 0x10003607C, symSize: 0x120 }
  - { offset: 0x2A6AFC, size: 0x8, addend: 0x0, symName: __ZNK9Effekseer14InstanceGlobal17GetNextDeltaFrameEv, symObjAddr: 0x4D8, symBinAddr: 0x10003619C, symSize: 0x8 }
  - { offset: 0x2A6B23, size: 0x8, addend: 0x0, symName: __ZN9Effekseer14InstanceGlobal15BeginDeltaFrameEf, symObjAddr: 0x4E0, symBinAddr: 0x1000361A4, symSize: 0x8 }
  - { offset: 0x2A6B83, size: 0x8, addend: 0x0, symName: __ZN9Effekseer14InstanceGlobal13EndDeltaFrameEv, symObjAddr: 0x4E8, symBinAddr: 0x1000361AC, symSize: 0x18 }
  - { offset: 0x2A6C15, size: 0x8, addend: 0x0, symName: __ZNK9Effekseer14InstanceGlobal20GetInputTriggerCountEj, symObjAddr: 0x528, symBinAddr: 0x1000361C4, symSize: 0x1C }
  - { offset: 0x2A6C4B, size: 0x8, addend: 0x0, symName: __ZN9Effekseer14InstanceGlobal20AddInputTriggerCountEj, symObjAddr: 0x544, symBinAddr: 0x1000361E0, symSize: 0x28 }
  - { offset: 0x2A6CAA, size: 0x8, addend: 0x0, symName: __ZN9Effekseer14InstanceGlobal16IncInstanceCountEv, symObjAddr: 0x56C, symBinAddr: 0x100036208, symSize: 0x10 }
  - { offset: 0x2A6CD1, size: 0x8, addend: 0x0, symName: __ZN9Effekseer14InstanceGlobal16DecInstanceCountEv, symObjAddr: 0x57C, symBinAddr: 0x100036218, symSize: 0x10 }
  - { offset: 0x2A6CF8, size: 0x8, addend: 0x0, symName: __ZN9Effekseer14InstanceGlobal16GetInstanceCountEv, symObjAddr: 0x58C, symBinAddr: 0x100036228, symSize: 0x8 }
  - { offset: 0x2A6D21, size: 0x8, addend: 0x0, symName: __ZNK9Effekseer14InstanceGlobal15GetUpdatedFrameEv, symObjAddr: 0x594, symBinAddr: 0x100036230, symSize: 0x8 }
  - { offset: 0x2A6D48, size: 0x8, addend: 0x0, symName: __ZN9Effekseer14InstanceGlobal17ResetUpdatedFrameEv, symObjAddr: 0x59C, symBinAddr: 0x100036238, symSize: 0x8 }
  - { offset: 0x2A6D6F, size: 0x8, addend: 0x0, symName: __ZNK9Effekseer14InstanceGlobal16GetRootContainerEv, symObjAddr: 0x5A4, symBinAddr: 0x100036240, symSize: 0x8 }
  - { offset: 0x2A6D98, size: 0x8, addend: 0x0, symName: __ZN9Effekseer14InstanceGlobal16SetRootContainerEPNS_17InstanceContainerE, symObjAddr: 0x5AC, symBinAddr: 0x100036248, symSize: 0x8 }
  - { offset: 0x2A6DCC, size: 0x8, addend: 0x0, symName: __ZNK9Effekseer14InstanceGlobal17GetTargetLocationEv, symObjAddr: 0x5B4, symBinAddr: 0x100036250, symSize: 0x8 }
  - { offset: 0x2A6DF5, size: 0x8, addend: 0x0, symName: __ZN9Effekseer14InstanceGlobal17SetTargetLocationERKNS_8Vector3DE, symObjAddr: 0x5BC, symBinAddr: 0x100036258, symSize: 0x34 }
  - { offset: 0x2CBECB, size: 0x8, addend: 0x0, symName: __ZN9Effekseer13InstanceGroupC1EPNS_18ManagerImplementedEPNS_21EffectNodeImplementedEPNS_17InstanceContainerEPNS_14InstanceGlobalE, symObjAddr: 0x44, symBinAddr: 0x10003628C, symSize: 0x44 }
  - { offset: 0x2CBF2C, size: 0x8, addend: 0x0, symName: __ZN9Effekseer13InstanceGroupC1EPNS_18ManagerImplementedEPNS_21EffectNodeImplementedEPNS_17InstanceContainerEPNS_14InstanceGlobalE, symObjAddr: 0x44, symBinAddr: 0x10003628C, symSize: 0x44 }
  - { offset: 0x2CC0D1, size: 0x8, addend: 0x0, symName: __ZN9Effekseer13InstanceGroupD2Ev, symObjAddr: 0x88, symBinAddr: 0x1000362D0, symSize: 0xC0 }
  - { offset: 0x2CC2BA, size: 0x8, addend: 0x0, symName: __ZN9Effekseer13InstanceGroup14RemoveForciblyEv, symObjAddr: 0x148, symBinAddr: 0x100036390, symSize: 0x7C }
  - { offset: 0x2CC2C5, size: 0x8, addend: 0x0, symName: __ZN9Effekseer13InstanceGroupD2Ev.cold.1, symObjAddr: 0xA54, symBinAddr: 0x10034D238, symSize: 0x24 }
  - { offset: 0x2CC31E, size: 0x8, addend: 0x0, symName: __ZN9Effekseer13InstanceGroup14RemoveForciblyEv, symObjAddr: 0x148, symBinAddr: 0x100036390, symSize: 0x7C }
  - { offset: 0x2CC407, size: 0x8, addend: 0x0, symName: __ZN9Effekseer13InstanceGroupD1Ev, symObjAddr: 0x1C4, symBinAddr: 0x10003640C, symSize: 0x4 }
  - { offset: 0x2CC432, size: 0x8, addend: 0x0, symName: __ZN9Effekseer13InstanceGroupD1Ev, symObjAddr: 0x1C4, symBinAddr: 0x10003640C, symSize: 0x4 }
  - { offset: 0x2CC45F, size: 0x8, addend: 0x0, symName: __ZN9Effekseer13InstanceGroupD1Ev, symObjAddr: 0x1C4, symBinAddr: 0x10003640C, symSize: 0x4 }
  - { offset: 0x2CC498, size: 0x8, addend: 0x0, symName: __ZN9Effekseer13InstanceGroup10InitializeERNS_10RandObjectEPNS_8InstanceE, symObjAddr: 0x1D0, symBinAddr: 0x100036410, symSize: 0x100 }
  - { offset: 0x2CC5B5, size: 0x8, addend: 0x0, symName: __ZN9Effekseer13InstanceGroup18CreateRootInstanceEv, symObjAddr: 0x2D0, symBinAddr: 0x100036510, symSize: 0x84 }
  - { offset: 0x2CC613, size: 0x8, addend: 0x0, symName: __ZN9Effekseer13InstanceGroup27GenerateInstancesIfRequiredEfRNS_10RandObjectEPNS_8InstanceE, symObjAddr: 0x354, symBinAddr: 0x100036594, symSize: 0x390 }
  - { offset: 0x2CC61E, size: 0x8, addend: 0x0, symName: __ZN9Effekseer13InstanceGroup18CreateRootInstanceEv.cold.1, symObjAddr: 0xA9C, symBinAddr: 0x10034D25C, symSize: 0x24 }
  - { offset: 0x2CC64B, size: 0x8, addend: 0x0, symName: __ZN9Effekseer13InstanceGroup18CreateRootInstanceEv.cold.2, symObjAddr: 0xAC0, symBinAddr: 0x10034D280, symSize: 0x24 }
  - { offset: 0x2CC6BF, size: 0x8, addend: 0x0, symName: __ZN9Effekseer13InstanceGroup27GenerateInstancesIfRequiredEfRNS_10RandObjectEPNS_8InstanceE, symObjAddr: 0x354, symBinAddr: 0x100036594, symSize: 0x390 }
  - { offset: 0x2CC96D, size: 0x8, addend: 0x0, symName: __ZN9Effekseer13InstanceGroup8GetFirstEv, symObjAddr: 0x6E4, symBinAddr: 0x100036924, symSize: 0x28 }
  - { offset: 0x2CC9E8, size: 0x8, addend: 0x0, symName: __ZN9Effekseer13InstanceGroup8GetFirstEv, symObjAddr: 0x6E4, symBinAddr: 0x100036924, symSize: 0x28 }
  - { offset: 0x2CCA13, size: 0x8, addend: 0x0, symName: __ZN9Effekseer13InstanceGroup8GetFirstEv, symObjAddr: 0x6E4, symBinAddr: 0x100036924, symSize: 0x28 }
  - { offset: 0x2CCA48, size: 0x8, addend: 0x0, symName: __ZNK9Effekseer13InstanceGroup16GetInstanceCountEv, symObjAddr: 0x70C, symBinAddr: 0x10003694C, symSize: 0x8 }
  - { offset: 0x2CCA67, size: 0x8, addend: 0x0, symName: __ZNK9Effekseer13InstanceGroup16GetInstanceCountEv, symObjAddr: 0x70C, symBinAddr: 0x10003694C, symSize: 0x8 }
  - { offset: 0x2CCA8B, size: 0x8, addend: 0x0, symName: __ZNK9Effekseer13InstanceGroup16GetInstanceCountEv, symObjAddr: 0x70C, symBinAddr: 0x10003694C, symSize: 0x8 }
  - { offset: 0x2CCB27, size: 0x8, addend: 0x0, symName: __ZN9Effekseer13InstanceGroup6UpdateEb, symObjAddr: 0x714, symBinAddr: 0x100036954, symSize: 0x9C }
  - { offset: 0x2CCC38, size: 0x8, addend: 0x0, symName: __ZN9Effekseer13InstanceGroup15ApplyBaseMatrixERKNS_4SIMD6Mat43fE, symObjAddr: 0x7B0, symBinAddr: 0x1000369F0, symSize: 0x4C }
  - { offset: 0x2CCCF8, size: 0x8, addend: 0x0, symName: __ZN9Effekseer13InstanceGroup15SetParentMatrixERKNS_4SIMD6Mat43fE, symObjAddr: 0x7FC, symBinAddr: 0x100036A3C, symSize: 0x1A4 }
  - { offset: 0x2CCDD9, size: 0x8, addend: 0x0, symName: __ZNK9Effekseer13InstanceGroup8IsActiveEv, symObjAddr: 0xA1C, symBinAddr: 0x100036BE0, symSize: 0x38 }
  - { offset: 0x2CCE05, size: 0x8, addend: 0x0, symName: __ZNK9Effekseer13InstanceGroup8IsActiveEv, symObjAddr: 0xA1C, symBinAddr: 0x100036BE0, symSize: 0x38 }
  - { offset: 0x2CCE21, size: 0x8, addend: 0x0, symName: __ZNK9Effekseer13InstanceGroup8IsActiveEv, symObjAddr: 0xA1C, symBinAddr: 0x100036BE0, symSize: 0x38 }
  - { offset: 0x2CCE3F, size: 0x8, addend: 0x0, symName: _OUTLINED_FUNCTION_0, symObjAddr: 0xBBC, symBinAddr: 0x100036C18, symSize: 0x8 }
  - { offset: 0x2CCE57, size: 0x8, addend: 0x0, symName: _OUTLINED_FUNCTION_1, symObjAddr: 0xBC4, symBinAddr: 0x100036C20, symSize: 0x8 }
  - { offset: 0x2CCE6F, size: 0x8, addend: 0x0, symName: _OUTLINED_FUNCTION_2, symObjAddr: 0xBCC, symBinAddr: 0x100036C28, symSize: 0x8 }
  - { offset: 0x2D2E21, size: 0x8, addend: 0x0, symName: __ZN9Effekseer14InternalScriptC1Ev, symObjAddr: 0x118, symBinAddr: 0x100036C30, symSize: 0x2C }
  - { offset: 0x2D2E4E, size: 0x8, addend: 0x0, symName: __ZN9Effekseer14InternalScriptC1Ev, symObjAddr: 0x118, symBinAddr: 0x100036C30, symSize: 0x2C }
  - { offset: 0x2D30CC, size: 0x8, addend: 0x0, symName: __ZN9Effekseer14InternalScriptD1Ev, symObjAddr: 0x190, symBinAddr: 0x100036C5C, symSize: 0x4C }
  - { offset: 0x2D336E, size: 0x8, addend: 0x0, symName: __ZN9Effekseer14InternalScriptD0Ev, symObjAddr: 0x1DC, symBinAddr: 0x100036CA8, symSize: 0x4C }
  - { offset: 0x2D3811, size: 0x8, addend: 0x0, symName: __ZN9Effekseer14InternalScript4LoadEPhi, symObjAddr: 0x228, symBinAddr: 0x100036CF4, symSize: 0x4C0 }
  - { offset: 0x2D3CBE, size: 0x8, addend: 0x0, symName: __ZNSt3__16vectorIfNS_9allocatorIfEEE8__appendEm, symObjAddr: 0xF40, symBinAddr: 0x100037A0C, symSize: 0x120 }
  - { offset: 0x2D40A2, size: 0x8, addend: 0x0, symName: __ZN9Effekseer12BinaryReaderILb1EE4ReadIhNSt3__19allocatorIhEEEEbRNS3_6vectorIT_T0_EEi, symObjAddr: 0x6E8, symBinAddr: 0x1000371B4, symSize: 0x17C }
  - { offset: 0x2D4A5F, size: 0x8, addend: 0x0, symName: __ZNK9Effekseer14InternalScript7ExecuteERKNSt3__15arrayIfLm4EEERKNS2_IfLm1EEERKNS2_IfLm5EEEPFfPvEPFfSC_fESC_, symObjAddr: 0x864, symBinAddr: 0x100037330, symSize: 0x6DC }
  - { offset: 0x2D4D89, size: 0x8, addend: 0x0, symName: __ZNSt3__16vectorIfNS_9allocatorIfEEE8__appendEm, symObjAddr: 0xF40, symBinAddr: 0x100037A0C, symSize: 0x120 }
  - { offset: 0x2D4D94, size: 0x8, addend: 0x0, symName: __ZNK9Effekseer14InternalScript7ExecuteERKNSt3__15arrayIfLm4EEERKNS2_IfLm1EEERKNS2_IfLm5EEEPFfPvEPFfSC_fESC_.cold.1, symObjAddr: 0x109C, symBinAddr: 0x10034D2A4, symSize: 0x24 }
  - { offset: 0x2D50B1, size: 0x8, addend: 0x0, symName: _OUTLINED_FUNCTION_0, symObjAddr: 0x10E4, symBinAddr: 0x100037B2C, symSize: 0x8 }
  - { offset: 0x2D6FE4, size: 0x8, addend: 0x0, symName: __ZN9Effekseer18KillRulesParameter4LoadERPhi, symObjAddr: 0x0, symBinAddr: 0x100037B34, symSize: 0x170 }
  - { offset: 0x2DE8FF, size: 0x8, addend: 0x0, symName: __ZN9Effekseer18KillRulesParameter4LoadERPhi, symObjAddr: 0x0, symBinAddr: 0x100037B34, symSize: 0x170 }
  - { offset: 0x2DE9D2, size: 0x8, addend: 0x0, symName: __ZN9Effekseer18KillRulesParameter7MagnifyEf, symObjAddr: 0x170, symBinAddr: 0x100037CA4, symSize: 0x80 }
  - { offset: 0x2DEA41, size: 0x8, addend: 0x0, symName: __ZN9Effekseer18KillRulesParameter22MakeCoordinateSystemLHEv, symObjAddr: 0x1F0, symBinAddr: 0x100037D24, symSize: 0x20 }
  - { offset: 0x2DED99, size: 0x8, addend: 0x0, symName: __ZN9Effekseer18KillRulesParameter12CheckRemovedERKS0_RKNS_14InstanceGlobalERKNS_4SIMD5Vec3fE, symObjAddr: 0x210, symBinAddr: 0x100037D44, symSize: 0x1F0 }
  - { offset: 0x2E1111, size: 0x8, addend: 0x0, symName: __ZN9EffekseerL8g_loggerE, symObjAddr: 0x2854F8, symBinAddr: 0x100527E78, symSize: 0x0 }
  - { offset: 0x2ED07E, size: 0x8, addend: 0x0, symName: __ZN9Effekseer3LogENS_7LogTypeERKNSt3__112basic_stringIcNS1_11char_traitsIcEENS1_9allocatorIcEEEE, symObjAddr: 0x118, symBinAddr: 0x100037F7C, symSize: 0x40 }
  - { offset: 0x3208DB, size: 0x8, addend: 0x0, symName: '__ZNSt3__111__introsortINS_17_ClassicAlgPolicyERZN9Effekseer18ManagerImplemented20StoreSortingDrawSetsERKNS2_7Manager13DrawParameterEE3$_0PNS3_7DrawSetELb0EEEvT1_SC_T0_NS_15iterator_traitsISC_E15difference_typeEb', symObjAddr: 0xD46C, symBinAddr: 0x100043C88, symSize: 0xE2C }
  - { offset: 0x321EED, size: 0x8, addend: 0x0, symName: '__ZNSt3__111__sift_downB8nn200100INS_17_ClassicAlgPolicyERZN9Effekseer18ManagerImplemented20StoreSortingDrawSetsERKNS2_7Manager13DrawParameterEE3$_0PNS3_7DrawSetEEEvT1_OT0_NS_15iterator_traitsISC_E15difference_typeESC_', symObjAddr: 0x116FC, symBinAddr: 0x100047F18, symSize: 0x798 }
  - { offset: 0x322A64, size: 0x8, addend: 0x0, symName: '__ZNSt3__131__partition_with_equals_on_leftB8nn200100INS_17_ClassicAlgPolicyEPN9Effekseer18ManagerImplemented7DrawSetERZNS3_20StoreSortingDrawSetsERKNS2_7Manager13DrawParameterEE3$_0EET0_SC_SC_T1_', symObjAddr: 0xFB04, symBinAddr: 0x100046320, symSize: 0x8E8 }
  - { offset: 0x32395A, size: 0x8, addend: 0x0, symName: '__ZNSt3__132__partition_with_equals_on_rightB8nn200100INS_17_ClassicAlgPolicyEPN9Effekseer18ManagerImplemented7DrawSetERZNS3_20StoreSortingDrawSetsERKNS2_7Manager13DrawParameterEE3$_0EENS_4pairIT0_bEESD_SD_T1_', symObjAddr: 0x103EC, symBinAddr: 0x100046C08, symSize: 0x828 }
  - { offset: 0x3246DB, size: 0x8, addend: 0x0, symName: '__ZNSt3__127__insertion_sort_incompleteB8nn200100INS_17_ClassicAlgPolicyERZN9Effekseer18ManagerImplemented20StoreSortingDrawSetsERKNS2_7Manager13DrawParameterEE3$_0PNS3_7DrawSetEEEbT1_SC_T0_', symObjAddr: 0x10C14, symBinAddr: 0x100047430, symSize: 0x764 }
  - { offset: 0x327945, size: 0x8, addend: 0x0, symName: __ZNSt3__16__treeINS_12__value_typeIiN9Effekseer18ManagerImplemented7DrawSetEEENS_19__map_value_compareIiS5_NS_4lessIiEELb1EEENS2_22CustomAlignedAllocatorIS5_EEE16__construct_nodeIJRKNS_21piecewise_construct_tENS_5tupleIJRKiEEENSH_IJEEEEEENS_10unique_ptrINS_11__tree_nodeIS5_PvEENS_22__tree_node_destructorINSA_ISP_EEEEEEDpOT_, symObjAddr: 0xB720, symBinAddr: 0x100042C0C, symSize: 0x150 }
  - { offset: 0x32B355, size: 0x8, addend: 0x0, symName: '__ZNSt3__17__sort3B8nn200100INS_17_ClassicAlgPolicyERZN9Effekseer18ManagerImplemented20StoreSortingDrawSetsERKNS2_7Manager13DrawParameterEE3$_0PNS3_7DrawSetELi0EEEbT1_SC_SC_T0_', symObjAddr: 0xE298, symBinAddr: 0x100044AB4, symSize: 0x46C }
  - { offset: 0x32BC4A, size: 0x8, addend: 0x0, symName: __ZNSt3__14swapB8nn200100IN9Effekseer18ManagerImplemented7DrawSetEEENS_9enable_ifIXaasr21is_move_constructibleIT_EE5valuesr18is_move_assignableIS5_EE5valueEvE4typeERS5_S8_, symObjAddr: 0x11378, symBinAddr: 0x100047B94, symSize: 0x384 }
  - { offset: 0x32C108, size: 0x8, addend: 0x0, symName: '__ZNSt3__17__sort5B8nn200100INS_17_ClassicAlgPolicyERZN9Effekseer18ManagerImplemented20StoreSortingDrawSetsERKNS2_7Manager13DrawParameterEE3$_0PNS3_7DrawSetELi0EEEvT1_SC_SC_SC_SC_T0_', symObjAddr: 0xE9E0, symBinAddr: 0x1000451FC, symSize: 0x3B8 }
  - { offset: 0x32C908, size: 0x8, addend: 0x0, symName: '__ZNSt3__17__sort4B8nn200100INS_17_ClassicAlgPolicyERZN9Effekseer18ManagerImplemented20StoreSortingDrawSetsERKNS2_7Manager13DrawParameterEE3$_0PNS3_7DrawSetELi0EEEvT1_SC_SC_SC_T0_', symObjAddr: 0xE704, symBinAddr: 0x100044F20, symSize: 0x2DC }
  - { offset: 0x32CF24, size: 0x8, addend: 0x0, symName: '__ZNSt3__114__partial_sortB8nn200100INS_17_ClassicAlgPolicyERZN9Effekseer18ManagerImplemented20StoreSortingDrawSetsERKNS2_7Manager13DrawParameterEE3$_0PNS3_7DrawSetESB_EET1_SC_SC_T2_RT0_', symObjAddr: 0xED98, symBinAddr: 0x1000455B4, symSize: 0xD6C }
  - { offset: 0x333B0B, size: 0x8, addend: 0x0, symName: __ZNSt3__15dequeINS_4pairIPvN9Effekseer11SoundPlayer17InstanceParameterEEENS_9allocatorIS6_EEE12emplace_backIJS2_RS5_EEERS6_DpOT_, symObjAddr: 0xAC38, symBinAddr: 0x1000425A8, symSize: 0x14C }
  - { offset: 0x337110, size: 0x8, addend: 0x0, symName: __ZN9Effekseer18ManagerImplemented6UpdateERKNS_7Manager15UpdateParameterE, symObjAddr: 0x69E8, symBinAddr: 0x10003E5B4, symSize: 0x2EC }
  - { offset: 0x33785F, size: 0x8, addend: 0x0, symName: __ZN9Effekseer18ManagerImplemented8DoUpdateERKNS_7Manager15UpdateParameterEi, symObjAddr: 0x6CD4, symBinAddr: 0x10003E8A0, symSize: 0x36C }
  - { offset: 0x338140, size: 0x8, addend: 0x0, symName: __ZNSt3__18functionIFvN9Effekseer7LogTypeERKNS_12basic_stringIcNS_11char_traitsIcEENS_9allocatorIcEEEEEED1Ev, symObjAddr: 0x0, symBinAddr: 0x100037F34, symSize: 0x48 }
  - { offset: 0x338295, size: 0x8, addend: 0x0, symName: __ZN9Effekseer7Manager13DrawParameterC1Ev, symObjAddr: 0x180, symBinAddr: 0x100037FBC, symSize: 0x28 }
  - { offset: 0x338388, size: 0x8, addend: 0x0, symName: __ZN9Effekseer7Manager6CreateEib, symObjAddr: 0x1A8, symBinAddr: 0x100037FE4, symSize: 0x44 }
  - { offset: 0x33846A, size: 0x8, addend: 0x0, symName: __ZN9Effekseer18ManagerImplementedC2Eib, symObjAddr: 0x19C4, symBinAddr: 0x100039594, symSize: 0x3C8 }
  - { offset: 0x339BB7, size: 0x8, addend: 0x0, symName: __ZN9Effekseer18ManagerImplemented10AddDrawSetERKNS_6RefPtrINS_6EffectEEEPNS_17InstanceContainerEPNS_14InstanceGlobalE, symObjAddr: 0x344, symBinAddr: 0x100038028, symSize: 0x338 }
  - { offset: 0x33A2EE, size: 0x8, addend: 0x0, symName: __ZNSt3__16__treeINS_12__value_typeIiN9Effekseer18ManagerImplemented7DrawSetEEENS_19__map_value_compareIiS5_NS_4lessIiEELb1EEENS2_22CustomAlignedAllocatorIS5_EEE16__construct_nodeIJRKNS_21piecewise_construct_tENS_5tupleIJRKiEEENSH_IJEEEEEENS_10unique_ptrINS_11__tree_nodeIS5_PvEENS_22__tree_node_destructorINSA_ISP_EEEEEEDpOT_, symObjAddr: 0xB720, symBinAddr: 0x100042C0C, symSize: 0x150 }
  - { offset: 0x33A839, size: 0x8, addend: 0x0, symName: __ZNSt3__13mapIiN9Effekseer18ManagerImplemented7DrawSetENS_4lessIiEENS1_22CustomAlignedAllocatorINS_4pairIKiS3_EEEEEixERS8_, symObjAddr: 0x67C, symBinAddr: 0x100038360, symSize: 0xD8 }
  - { offset: 0x33AB57, size: 0x8, addend: 0x0, symName: __ZN9Effekseer18ManagerImplemented19StopStoppingEffectsEv, symObjAddr: 0x754, symBinAddr: 0x100038438, symSize: 0x16C }
  - { offset: 0x33B2E2, size: 0x8, addend: 0x0, symName: __ZN9Effekseer18ManagerImplemented9GCDrawSetEb, symObjAddr: 0x8C0, symBinAddr: 0x1000385A4, symSize: 0x5E4 }
  - { offset: 0x33BF70, size: 0x8, addend: 0x0, symName: __ZNSt3__16__treeINS_12__value_typeIiN9Effekseer18ManagerImplemented7DrawSetEEENS_19__map_value_compareIiS5_NS_4lessIiEELb1EEENS2_22CustomAlignedAllocatorIS5_EEE5eraseENS_21__tree_const_iteratorIS5_PNS_11__tree_nodeIS5_PvEElEE, symObjAddr: 0xBB70, symBinAddr: 0x100042D5C, symSize: 0x158 }
  - { offset: 0x33C374, size: 0x8, addend: 0x0, symName: __ZN9Effekseer18ManagerImplemented20UpdateHandleInternalERNS0_7DrawSetE, symObjAddr: 0xF28, symBinAddr: 0x100038B88, symSize: 0x280 }
  - { offset: 0x33C69E, size: 0x8, addend: 0x0, symName: __ZN9Effekseer18ManagerImplemented24ReleaseInstanceContainerEPNS_17InstanceContainerE, symObjAddr: 0x11A8, symBinAddr: 0x100038E08, symSize: 0x90 }
  - { offset: 0x33C6A9, size: 0x8, addend: 0x0, symName: __ZNSt3__15dequeIPN9Effekseer17InstanceContainerENS_9allocatorIS3_EEE19__add_back_capacityEv, symObjAddr: 0xC67C, symBinAddr: 0x1000434CC, symSize: 0x204 }
  - { offset: 0x33CEB8, size: 0x8, addend: 0x0, symName: __ZNSt3__16__treeINS_12__value_typeIiN9Effekseer18ManagerImplemented7DrawSetEEENS_19__map_value_compareIiS5_NS_4lessIiEELb1EEENS2_22CustomAlignedAllocatorIS5_EEE7destroyEPNS_11__tree_nodeIS5_PvEE, symObjAddr: 0xC04C, symBinAddr: 0x100042EB4, symSize: 0x110 }
  - { offset: 0x33D211, size: 0x8, addend: 0x0, symName: __ZN9Effekseer12InstancePoolINS_17InstanceContainerEE16AllocateNewBlockEi, symObjAddr: 0xC15C, symBinAddr: 0x100042FC4, symSize: 0x244 }
  - { offset: 0x33D2D9, size: 0x8, addend: 0x0, symName: __ZN9Effekseer18ManagerImplemented9PreupdateERNS0_7DrawSetE, symObjAddr: 0x687C, symBinAddr: 0x10003E448, symSize: 0x134 }
  - { offset: 0x33D4E7, size: 0x8, addend: 0x0, symName: __ZN9Effekseer18ManagerImplemented20UpdateHandleInternalERNS0_7DrawSetE.cold.1, symObjAddr: 0x14238, symBinAddr: 0x10034D2C8, symSize: 0x28 }
  - { offset: 0x33D4FF, size: 0x8, addend: 0x0, symName: __ZN9Effekseer18ManagerImplemented24ReleaseInstanceContainerEPNS_17InstanceContainerE, symObjAddr: 0x11A8, symBinAddr: 0x100038E08, symSize: 0x90 }
  - { offset: 0x33D84A, size: 0x8, addend: 0x0, symName: __ZN9Effekseer18ManagerImplemented23CreateInstanceContainerEPNS_10EffectNodeEPNS_14InstanceGlobalEbRKNS_4SIMD6Mat43fEPNS_8InstanceE, symObjAddr: 0x1238, symBinAddr: 0x100038E98, symSize: 0x244 }
  - { offset: 0x33DC7E, size: 0x8, addend: 0x0, symName: __ZN9Effekseer12InstancePoolINS_17InstanceContainerEE16AllocateNewBlockEi, symObjAddr: 0xC15C, symBinAddr: 0x100042FC4, symSize: 0x244 }
  - { offset: 0x33E57E, size: 0x8, addend: 0x0, symName: __ZNSt3__120__shared_ptr_emplaceIN9Effekseer12InstancePoolINS1_17InstanceContainerEE13ReservedBlockENS_9allocatorIS5_EEED1Ev, symObjAddr: 0xC3A0, symBinAddr: 0x100043208, symSize: 0x10 }
  - { offset: 0x33E589, size: 0x8, addend: 0x0, symName: __ZN9Effekseer18ManagerImplemented4RandEv, symObjAddr: 0x147C, symBinAddr: 0x1000390DC, symSize: 0x4 }
  - { offset: 0x33E5A3, size: 0x8, addend: 0x0, symName: __ZN9Effekseer18ManagerImplemented4RandEv, symObjAddr: 0x147C, symBinAddr: 0x1000390DC, symSize: 0x4 }
  - { offset: 0x33E650, size: 0x8, addend: 0x0, symName: __ZN9Effekseer18ManagerImplemented13ExecuteEventsEv, symObjAddr: 0x1480, symBinAddr: 0x1000390E0, symSize: 0x190 }
  - { offset: 0x33ED3C, size: 0x8, addend: 0x0, symName: __ZN9Effekseer18ManagerImplemented20StoreSortingDrawSetsERKNS_7Manager13DrawParameterE, symObjAddr: 0x1610, symBinAddr: 0x100039270, symSize: 0x240 }
  - { offset: 0x33F33B, size: 0x8, addend: 0x0, symName: __ZNSt3__16vectorIN9Effekseer18ManagerImplemented7DrawSetENS1_22CustomAlignedAllocatorIS3_EEE24__emplace_back_slow_pathIJRKS3_EEEPS3_DpOT_, symObjAddr: 0xCEA8, symBinAddr: 0x1000436D0, symSize: 0x284 }
  - { offset: 0x33F787, size: 0x8, addend: 0x0, symName: __ZNSt3__16vectorIN9Effekseer18ManagerImplemented7DrawSetENS1_22CustomAlignedAllocatorIS3_EEE26__swap_out_circular_bufferERNS_14__split_bufferIS3_RS5_EE, symObjAddr: 0xD12C, symBinAddr: 0x100043954, symSize: 0x204 }
  - { offset: 0x33F7BF, size: 0x8, addend: 0x0, symName: __ZN9Effekseer15GeometryUtility9IsContainERKNSt3__15arrayINS_5PlaneELm6EEERKNS_6SphareE, symObjAddr: 0x18E0, symBinAddr: 0x1000394B0, symSize: 0xE4 }
  - { offset: 0x3405AA, size: 0x8, addend: 0x0, symName: __ZNSt3__16vectorIN9Effekseer18ManagerImplemented7DrawSetENS1_22CustomAlignedAllocatorIS3_EEE7reserveEm, symObjAddr: 0x1D8C, symBinAddr: 0x10003995C, symSize: 0x140 }
  - { offset: 0x34082F, size: 0x8, addend: 0x0, symName: __ZN9Effekseer12InstancePoolINS_13InstanceChunkEE16AllocateNewBlockEi, symObjAddr: 0x121D0, symBinAddr: 0x1000489E0, symSize: 0x248 }
  - { offset: 0x34112F, size: 0x8, addend: 0x0, symName: __ZNSt3__120__shared_ptr_emplaceIN9Effekseer12InstancePoolINS1_13InstanceChunkEE13ReservedBlockENS_9allocatorIS5_EEED1Ev, symObjAddr: 0x12418, symBinAddr: 0x100048C28, symSize: 0x10 }
  - { offset: 0x34113A, size: 0x8, addend: 0x0, symName: __ZN9Effekseer12InstancePoolINS_13InstanceGroupEE16AllocateNewBlockEi, symObjAddr: 0x12D48, symBinAddr: 0x100048D20, symSize: 0x244 }
  - { offset: 0x341A3A, size: 0x8, addend: 0x0, symName: __ZNSt3__120__shared_ptr_emplaceIN9Effekseer12InstancePoolINS1_13InstanceGroupEE13ReservedBlockENS_9allocatorIS5_EEED1Ev, symObjAddr: 0x12F8C, symBinAddr: 0x100048F64, symSize: 0x10 }
  - { offset: 0x341A58, size: 0x8, addend: 0x0, symName: __ZN9Effekseer12InstancePoolINS_13InstanceChunkEE16AllocateNewBlockEi, symObjAddr: 0x121D0, symBinAddr: 0x1000489E0, symSize: 0x248 }
  - { offset: 0x341C5A, size: 0x8, addend: 0x0, symName: __ZNSt3__16vectorIN9Effekseer18ManagerImplemented7DrawSetENS1_22CustomAlignedAllocatorIS3_EEE26__swap_out_circular_bufferERNS_14__split_bufferIS3_RS5_EE, symObjAddr: 0xD12C, symBinAddr: 0x100043954, symSize: 0x204 }
  - { offset: 0x34208F, size: 0x8, addend: 0x0, symName: __ZNSt3__114__split_bufferIN9Effekseer18ManagerImplemented7DrawSetERNS1_22CustomAlignedAllocatorIS3_EEED2Ev, symObjAddr: 0xD33C, symBinAddr: 0x100043B58, symSize: 0x130 }
  - { offset: 0x3423C8, size: 0x8, addend: 0x0, symName: '__ZNSt3__111__introsortINS_17_ClassicAlgPolicyERZN9Effekseer18ManagerImplemented20StoreSortingDrawSetsERKNS2_7Manager13DrawParameterEE3$_0PNS3_7DrawSetELb0EEEvT1_SC_T0_NS_15iterator_traitsISC_E15difference_typeEb', symObjAddr: 0xD46C, symBinAddr: 0x100043C88, symSize: 0xE2C }
  - { offset: 0x3423E6, size: 0x8, addend: 0x0, symName: __ZNSt3__114__split_bufferIN9Effekseer18ManagerImplemented7DrawSetERNS1_22CustomAlignedAllocatorIS3_EEED2Ev, symObjAddr: 0xD33C, symBinAddr: 0x100043B58, symSize: 0x130 }
  - { offset: 0x342ED7, size: 0x8, addend: 0x0, symName: __ZN9Effekseer18ManagerImplementedD2Ev, symObjAddr: 0x1ED0, symBinAddr: 0x100039A9C, symSize: 0x3B0 }
  - { offset: 0x344028, size: 0x8, addend: 0x0, symName: __ZNSt3__15dequeINS_4pairIPvN9Effekseer11SoundPlayer17InstanceParameterEEENS_9allocatorIS6_EEED2B8nn200100Ev, symObjAddr: 0xA388, symBinAddr: 0x100041EA0, symSize: 0x194 }
  - { offset: 0x344585, size: 0x8, addend: 0x0, symName: __ZNSt3__16vectorIN9Effekseer18ManagerImplemented7DrawSetENS1_22CustomAlignedAllocatorIS3_EEE16__destroy_vectorclB8nn200100Ev, symObjAddr: 0x11F90, symBinAddr: 0x1000487AC, symSize: 0x14C }
  - { offset: 0x3448C3, size: 0x8, addend: 0x0, symName: __ZNSt3__110__function6__funcIPFivENS_9allocatorIS3_EES2_ED1Ev, symObjAddr: 0x120DC, symBinAddr: 0x1000488F8, symSize: 0x4 }
  - { offset: 0x3448CE, size: 0x8, addend: 0x0, symName: __ZNSt3__15arrayINS_6vectorIPN9Effekseer13InstanceChunkENS_9allocatorIS4_EEEELm20EED2Ev, symObjAddr: 0xA51C, symBinAddr: 0x100042034, symSize: 0x160 }
  - { offset: 0x3449F8, size: 0x8, addend: 0x0, symName: __ZNSt3__15dequeIPN9Effekseer17InstanceContainerENS_9allocatorIS3_EEED2B8nn200100Ev, symObjAddr: 0xA67C, symBinAddr: 0x100042194, symSize: 0xC8 }
  - { offset: 0x345246, size: 0x8, addend: 0x0, symName: __ZNSt3__16vectorIN9Effekseer12WorkerThreadENS1_15CustomAllocatorIS2_EEE16__destroy_vectorclB8nn200100Ev, symObjAddr: 0x11E94, symBinAddr: 0x1000486B0, symSize: 0xFC }
  - { offset: 0x345465, size: 0x8, addend: 0x0, symName: __ZNSt3__16vectorIN9Effekseer18ManagerImplemented7DrawSetENS1_22CustomAlignedAllocatorIS3_EEE16__destroy_vectorclB8nn200100Ev, symObjAddr: 0x11F90, symBinAddr: 0x1000487AC, symSize: 0x14C }
  - { offset: 0x345470, size: 0x8, addend: 0x0, symName: __ZN9Effekseer18ManagerImplementedD1Ev, symObjAddr: 0x2280, symBinAddr: 0x100039E4C, symSize: 0x4 }
  - { offset: 0x345492, size: 0x8, addend: 0x0, symName: __ZN9Effekseer18ManagerImplementedD1Ev, symObjAddr: 0x2280, symBinAddr: 0x100039E4C, symSize: 0x4 }
  - { offset: 0x3454C2, size: 0x8, addend: 0x0, symName: __ZThn8_N9Effekseer18ManagerImplementedD1Ev, symObjAddr: 0x2284, symBinAddr: 0x100039E50, symSize: 0x8 }
  - { offset: 0x345503, size: 0x8, addend: 0x0, symName: __ZN9Effekseer18ManagerImplementedD0Ev, symObjAddr: 0x228C, symBinAddr: 0x100039E58, symSize: 0x14 }
  - { offset: 0x345572, size: 0x8, addend: 0x0, symName: __ZThn8_N9Effekseer18ManagerImplementedD0Ev, symObjAddr: 0x22A0, symBinAddr: 0x100039E6C, symSize: 0x18 }
  - { offset: 0x345601, size: 0x8, addend: 0x0, symName: __ZN9Effekseer18ManagerImplemented14CreateInstanceEPNS_21EffectNodeImplementedEPNS_17InstanceContainerEPNS_13InstanceGroupE, symObjAddr: 0x22B8, symBinAddr: 0x100039E84, symSize: 0x198 }
  - { offset: 0x345A4A, size: 0x8, addend: 0x0, symName: __ZNSt3__16vectorIPN9Effekseer13InstanceChunkENS_9allocatorIS3_EEE9push_backB8nn200100ERKS3_, symObjAddr: 0x2450, symBinAddr: 0x10003A01C, symSize: 0xEC }
  - { offset: 0x345C73, size: 0x8, addend: 0x0, symName: __ZNSt3__16vectorIPN9Effekseer13InstanceChunkENS_9allocatorIS3_EEE9push_backB8nn200100ERKS3_, symObjAddr: 0x2450, symBinAddr: 0x10003A01C, symSize: 0xEC }
  - { offset: 0x346080, size: 0x8, addend: 0x0, symName: __ZN9Effekseer18ManagerImplemented19CreateInstanceGroupEPNS_21EffectNodeImplementedEPNS_17InstanceContainerEPNS_14InstanceGlobalE, symObjAddr: 0x253C, symBinAddr: 0x10003A108, symSize: 0xC8 }
  - { offset: 0x34608B, size: 0x8, addend: 0x0, symName: __ZN9Effekseer18ManagerImplemented14CreateInstanceEPNS_21EffectNodeImplementedEPNS_17InstanceContainerEPNS_13InstanceGroupE.cold.1, symObjAddr: 0x14260, symBinAddr: 0x10034D2F0, symSize: 0x28 }
  - { offset: 0x346427, size: 0x8, addend: 0x0, symName: __ZN9Effekseer18ManagerImplemented19CreateInstanceGroupEPNS_21EffectNodeImplementedEPNS_17InstanceContainerEPNS_14InstanceGlobalE, symObjAddr: 0x253C, symBinAddr: 0x10003A108, symSize: 0xC8 }
  - { offset: 0x3467D0, size: 0x8, addend: 0x0, symName: __ZN9Effekseer18ManagerImplemented12ReleaseGroupEPNS_13InstanceGroupE, symObjAddr: 0x2604, symBinAddr: 0x10003A1D0, symSize: 0x88 }
  - { offset: 0x346F5B, size: 0x8, addend: 0x0, symName: __ZN9Effekseer18ManagerImplemented19LaunchWorkerThreadsEj, symObjAddr: 0x268C, symBinAddr: 0x10003A258, symSize: 0xB8 }
  - { offset: 0x347108, size: 0x8, addend: 0x0, symName: __ZNSt3__16vectorIN9Effekseer12WorkerThreadENS1_15CustomAllocatorIS2_EEE8__appendEm, symObjAddr: 0x138BC, symBinAddr: 0x10004905C, symSize: 0x260 }
  - { offset: 0x34784C, size: 0x8, addend: 0x0, symName: __ZN9Effekseer18ManagerImplemented21GetWorkerThreadHandleEj, symObjAddr: 0x2744, symBinAddr: 0x10003A310, symSize: 0x44 }
  - { offset: 0x347903, size: 0x8, addend: 0x0, symName: __ZNK9Effekseer18ManagerImplemented17GetSequenceNumberEv, symObjAddr: 0x2788, symBinAddr: 0x10003A354, symSize: 0x8 }
  - { offset: 0x3479C9, size: 0x8, addend: 0x0, symName: __ZNK9Effekseer18ManagerImplemented11GetRandFuncEv, symObjAddr: 0x2790, symBinAddr: 0x10003A35C, symSize: 0x68 }
  - { offset: 0x347AD1, size: 0x8, addend: 0x0, symName: __ZN9Effekseer18ManagerImplemented11SetRandFuncENSt3__18functionIFivEEE, symObjAddr: 0x27F8, symBinAddr: 0x10003A3C4, symSize: 0xCC }
  - { offset: 0x347E65, size: 0x8, addend: 0x0, symName: __ZN9Effekseer18ManagerImplemented20SetCollisionCallbackENSt3__18functionIFbRKNS_8Vector3DES5_RS3_S6_EEE, symObjAddr: 0x28C4, symBinAddr: 0x10003A490, symSize: 0xCC }
  - { offset: 0x348115, size: 0x8, addend: 0x0, symName: __ZNK9Effekseer18ManagerImplemented20GetCollisionCallbackEv, symObjAddr: 0x2990, symBinAddr: 0x10003A55C, symSize: 0x68 }
  - { offset: 0x3481D5, size: 0x8, addend: 0x0, symName: __ZNK9Effekseer18ManagerImplemented19GetCoordinateSystemEv, symObjAddr: 0x29F8, symBinAddr: 0x10003A5C4, symSize: 0x8 }
  - { offset: 0x348201, size: 0x8, addend: 0x0, symName: __ZNK9Effekseer18ManagerImplemented19GetCoordinateSystemEv, symObjAddr: 0x29F8, symBinAddr: 0x10003A5C4, symSize: 0x8 }
  - { offset: 0x348220, size: 0x8, addend: 0x0, symName: __ZNK9Effekseer18ManagerImplemented19GetCoordinateSystemEv, symObjAddr: 0x29F8, symBinAddr: 0x10003A5C4, symSize: 0x8 }
  - { offset: 0x34823F, size: 0x8, addend: 0x0, symName: __ZN9Effekseer18ManagerImplemented19SetCoordinateSystemENS_16CoordinateSystemE, symObjAddr: 0x2A00, symBinAddr: 0x10003A5CC, symSize: 0x8 }
  - { offset: 0x348279, size: 0x8, addend: 0x0, symName: __ZN9Effekseer18ManagerImplemented19SetCoordinateSystemENS_16CoordinateSystemE, symObjAddr: 0x2A00, symBinAddr: 0x10003A5CC, symSize: 0x8 }
  - { offset: 0x348298, size: 0x8, addend: 0x0, symName: __ZN9Effekseer18ManagerImplemented19SetCoordinateSystemENS_16CoordinateSystemE, symObjAddr: 0x2A00, symBinAddr: 0x10003A5CC, symSize: 0x8 }
  - { offset: 0x348303, size: 0x8, addend: 0x0, symName: __ZN9Effekseer18ManagerImplemented17GetSpriteRendererEv, symObjAddr: 0x2A08, symBinAddr: 0x10003A5D4, symSize: 0x44 }
  - { offset: 0x3483B7, size: 0x8, addend: 0x0, symName: __ZN9Effekseer18ManagerImplemented17SetSpriteRendererENS_6RefPtrINS_14SpriteRendererEEE, symObjAddr: 0x2A4C, symBinAddr: 0x10003A618, symSize: 0x54 }
  - { offset: 0x3484B7, size: 0x8, addend: 0x0, symName: __ZN9Effekseer18ManagerImplemented17GetRibbonRendererEv, symObjAddr: 0x2AA0, symBinAddr: 0x10003A66C, symSize: 0x44 }
  - { offset: 0x34856B, size: 0x8, addend: 0x0, symName: __ZN9Effekseer18ManagerImplemented17SetRibbonRendererENS_6RefPtrINS_14RibbonRendererEEE, symObjAddr: 0x2AE4, symBinAddr: 0x10003A6B0, symSize: 0x54 }
  - { offset: 0x34866B, size: 0x8, addend: 0x0, symName: __ZN9Effekseer18ManagerImplemented15GetRingRendererEv, symObjAddr: 0x2B38, symBinAddr: 0x10003A704, symSize: 0x44 }
  - { offset: 0x34871F, size: 0x8, addend: 0x0, symName: __ZN9Effekseer18ManagerImplemented15SetRingRendererENS_6RefPtrINS_12RingRendererEEE, symObjAddr: 0x2B7C, symBinAddr: 0x10003A748, symSize: 0x54 }
  - { offset: 0x34881F, size: 0x8, addend: 0x0, symName: __ZN9Effekseer18ManagerImplemented16GetModelRendererEv, symObjAddr: 0x2BD0, symBinAddr: 0x10003A79C, symSize: 0x44 }
  - { offset: 0x3488D3, size: 0x8, addend: 0x0, symName: __ZN9Effekseer18ManagerImplemented16SetModelRendererENS_6RefPtrINS_13ModelRendererEEE, symObjAddr: 0x2C14, symBinAddr: 0x10003A7E0, symSize: 0x54 }
  - { offset: 0x3489D3, size: 0x8, addend: 0x0, symName: __ZN9Effekseer18ManagerImplemented16GetTrackRendererEv, symObjAddr: 0x2C68, symBinAddr: 0x10003A834, symSize: 0x44 }
  - { offset: 0x348A87, size: 0x8, addend: 0x0, symName: __ZN9Effekseer18ManagerImplemented16SetTrackRendererENS_6RefPtrINS_13TrackRendererEEE, symObjAddr: 0x2CAC, symBinAddr: 0x10003A878, symSize: 0x54 }
  - { offset: 0x348B87, size: 0x8, addend: 0x0, symName: __ZN9Effekseer18ManagerImplemented11GetGpuTimerEv, symObjAddr: 0x2D00, symBinAddr: 0x10003A8CC, symSize: 0x44 }
  - { offset: 0x348C55, size: 0x8, addend: 0x0, symName: __ZN9Effekseer18ManagerImplemented11SetGpuTimerENS_6RefPtrINS_8GpuTimerEEE, symObjAddr: 0x2D44, symBinAddr: 0x10003A910, symSize: 0x90 }
  - { offset: 0x348DCB, size: 0x8, addend: 0x0, symName: __ZN9Effekseer18ManagerImplemented20GetGpuParticleSystemEv, symObjAddr: 0x2DD4, symBinAddr: 0x10003A9A0, symSize: 0x44 }
  - { offset: 0x348E7F, size: 0x8, addend: 0x0, symName: __ZN9Effekseer18ManagerImplemented20SetGpuParticleSystemENS_6RefPtrINS_17GpuParticleSystemEEE, symObjAddr: 0x2E18, symBinAddr: 0x10003A9E4, symSize: 0x90 }
  - { offset: 0x348FA9, size: 0x8, addend: 0x0, symName: __ZN9Effekseer18ManagerImplemented21GetGpuParticleFactoryEv, symObjAddr: 0x2EA8, symBinAddr: 0x10003AA74, symSize: 0x8 }
  - { offset: 0x348FD5, size: 0x8, addend: 0x0, symName: __ZN9Effekseer18ManagerImplemented21GetGpuParticleFactoryEv, symObjAddr: 0x2EA8, symBinAddr: 0x10003AA74, symSize: 0x8 }
  - { offset: 0x348FF4, size: 0x8, addend: 0x0, symName: __ZN9Effekseer18ManagerImplemented21GetGpuParticleFactoryEv, symObjAddr: 0x2EA8, symBinAddr: 0x10003AA74, symSize: 0x8 }
  - { offset: 0x34909D, size: 0x8, addend: 0x0, symName: __ZN9Effekseer18ManagerImplemented21SetGpuParticleFactoryENS_6RefPtrINS_18GpuParticleFactoryEEE, symObjAddr: 0x2EB0, symBinAddr: 0x10003AA7C, symSize: 0x6C }
  - { offset: 0x349243, size: 0x8, addend: 0x0, symName: __ZN9Effekseer18ManagerImplemented14GetSoundPlayerEv, symObjAddr: 0x2F1C, symBinAddr: 0x10003AAE8, symSize: 0x44 }
  - { offset: 0x3492F7, size: 0x8, addend: 0x0, symName: __ZN9Effekseer18ManagerImplemented14SetSoundPlayerENS_6RefPtrINS_11SoundPlayerEEE, symObjAddr: 0x2F60, symBinAddr: 0x10003AB2C, symSize: 0x54 }
  - { offset: 0x3493AB, size: 0x8, addend: 0x0, symName: __ZNK9Effekseer18ManagerImplemented10GetSettingEv, symObjAddr: 0x2FB4, symBinAddr: 0x10003AB80, symSize: 0x8 }
  - { offset: 0x3493F7, size: 0x8, addend: 0x0, symName: __ZN9Effekseer18ManagerImplemented10SetSettingERKNS_6RefPtrINS_7SettingEEE, symObjAddr: 0x2FBC, symBinAddr: 0x10003AB88, symSize: 0x54 }
  - { offset: 0x3494AB, size: 0x8, addend: 0x0, symName: __ZN9Effekseer18ManagerImplemented15GetEffectLoaderEv, symObjAddr: 0x3010, symBinAddr: 0x10003ABDC, symSize: 0x8 }
  - { offset: 0x3494D7, size: 0x8, addend: 0x0, symName: __ZN9Effekseer18ManagerImplemented15GetEffectLoaderEv, symObjAddr: 0x3010, symBinAddr: 0x10003ABDC, symSize: 0x8 }
  - { offset: 0x3494F6, size: 0x8, addend: 0x0, symName: __ZN9Effekseer18ManagerImplemented15GetEffectLoaderEv, symObjAddr: 0x3010, symBinAddr: 0x10003ABDC, symSize: 0x8 }
  - { offset: 0x349561, size: 0x8, addend: 0x0, symName: __ZN9Effekseer18ManagerImplemented15SetEffectLoaderENS_6RefPtrINS_12EffectLoaderEEE, symObjAddr: 0x3018, symBinAddr: 0x10003ABE4, symSize: 0x6C }
  - { offset: 0x3496BB, size: 0x8, addend: 0x0, symName: __ZN9Effekseer18ManagerImplemented16GetTextureLoaderEv, symObjAddr: 0x3084, symBinAddr: 0x10003AC50, symSize: 0x8 }
  - { offset: 0x3496E7, size: 0x8, addend: 0x0, symName: __ZN9Effekseer18ManagerImplemented16GetTextureLoaderEv, symObjAddr: 0x3084, symBinAddr: 0x10003AC50, symSize: 0x8 }
  - { offset: 0x349706, size: 0x8, addend: 0x0, symName: __ZN9Effekseer18ManagerImplemented16GetTextureLoaderEv, symObjAddr: 0x3084, symBinAddr: 0x10003AC50, symSize: 0x8 }
  - { offset: 0x3497AF, size: 0x8, addend: 0x0, symName: __ZN9Effekseer18ManagerImplemented16SetTextureLoaderENS_6RefPtrINS_13TextureLoaderEEE, symObjAddr: 0x308C, symBinAddr: 0x10003AC58, symSize: 0x6C }
  - { offset: 0x349909, size: 0x8, addend: 0x0, symName: __ZN9Effekseer18ManagerImplemented14GetSoundLoaderEv, symObjAddr: 0x30F8, symBinAddr: 0x10003ACC4, symSize: 0x8 }
  - { offset: 0x349935, size: 0x8, addend: 0x0, symName: __ZN9Effekseer18ManagerImplemented14GetSoundLoaderEv, symObjAddr: 0x30F8, symBinAddr: 0x10003ACC4, symSize: 0x8 }
  - { offset: 0x349954, size: 0x8, addend: 0x0, symName: __ZN9Effekseer18ManagerImplemented14GetSoundLoaderEv, symObjAddr: 0x30F8, symBinAddr: 0x10003ACC4, symSize: 0x8 }
  - { offset: 0x3499FD, size: 0x8, addend: 0x0, symName: __ZN9Effekseer18ManagerImplemented14SetSoundLoaderENS_6RefPtrINS_11SoundLoaderEEE, symObjAddr: 0x3100, symBinAddr: 0x10003ACCC, symSize: 0x6C }
  - { offset: 0x349B57, size: 0x8, addend: 0x0, symName: __ZN9Effekseer18ManagerImplemented14GetModelLoaderEv, symObjAddr: 0x316C, symBinAddr: 0x10003AD38, symSize: 0x8 }
  - { offset: 0x349B83, size: 0x8, addend: 0x0, symName: __ZN9Effekseer18ManagerImplemented14GetModelLoaderEv, symObjAddr: 0x316C, symBinAddr: 0x10003AD38, symSize: 0x8 }
  - { offset: 0x349BA2, size: 0x8, addend: 0x0, symName: __ZN9Effekseer18ManagerImplemented14GetModelLoaderEv, symObjAddr: 0x316C, symBinAddr: 0x10003AD38, symSize: 0x8 }
  - { offset: 0x349C4B, size: 0x8, addend: 0x0, symName: __ZN9Effekseer18ManagerImplemented14SetModelLoaderENS_6RefPtrINS_11ModelLoaderEEE, symObjAddr: 0x3174, symBinAddr: 0x10003AD40, symSize: 0x6C }
  - { offset: 0x349DA5, size: 0x8, addend: 0x0, symName: __ZN9Effekseer18ManagerImplemented17GetMaterialLoaderEv, symObjAddr: 0x31E0, symBinAddr: 0x10003ADAC, symSize: 0x8 }
  - { offset: 0x349DD1, size: 0x8, addend: 0x0, symName: __ZN9Effekseer18ManagerImplemented17GetMaterialLoaderEv, symObjAddr: 0x31E0, symBinAddr: 0x10003ADAC, symSize: 0x8 }
  - { offset: 0x349DF0, size: 0x8, addend: 0x0, symName: __ZN9Effekseer18ManagerImplemented17GetMaterialLoaderEv, symObjAddr: 0x31E0, symBinAddr: 0x10003ADAC, symSize: 0x8 }
  - { offset: 0x349E99, size: 0x8, addend: 0x0, symName: __ZN9Effekseer18ManagerImplemented17SetMaterialLoaderENS_6RefPtrINS_14MaterialLoaderEEE, symObjAddr: 0x31E8, symBinAddr: 0x10003ADB4, symSize: 0x6C }
  - { offset: 0x349FF3, size: 0x8, addend: 0x0, symName: __ZN9Effekseer18ManagerImplemented14GetCurveLoaderEv, symObjAddr: 0x3254, symBinAddr: 0x10003AE20, symSize: 0x8 }
  - { offset: 0x34A01F, size: 0x8, addend: 0x0, symName: __ZN9Effekseer18ManagerImplemented14GetCurveLoaderEv, symObjAddr: 0x3254, symBinAddr: 0x10003AE20, symSize: 0x8 }
  - { offset: 0x34A03E, size: 0x8, addend: 0x0, symName: __ZN9Effekseer18ManagerImplemented14GetCurveLoaderEv, symObjAddr: 0x3254, symBinAddr: 0x10003AE20, symSize: 0x8 }
  - { offset: 0x34A0E7, size: 0x8, addend: 0x0, symName: __ZN9Effekseer18ManagerImplemented14SetCurveLoaderENS_6RefPtrINS_11CurveLoaderEEE, symObjAddr: 0x325C, symBinAddr: 0x10003AE28, symSize: 0x6C }
  - { offset: 0x34A29F, size: 0x8, addend: 0x0, symName: __ZN9Effekseer18ManagerImplemented10StopEffectEi, symObjAddr: 0x32C8, symBinAddr: 0x10003AE94, symSize: 0x108 }
  - { offset: 0x34A577, size: 0x8, addend: 0x0, symName: __ZN9Effekseer18ManagerImplemented14StopAllEffectsEv, symObjAddr: 0x33D0, symBinAddr: 0x10003AF9C, symSize: 0x60 }
  - { offset: 0x34A59D, size: 0x8, addend: 0x0, symName: __ZN9Effekseer18ManagerImplemented14StopAllEffectsEv, symObjAddr: 0x33D0, symBinAddr: 0x10003AF9C, symSize: 0x60 }
  - { offset: 0x34A5D9, size: 0x8, addend: 0x0, symName: __ZN9Effekseer18ManagerImplemented14StopAllEffectsEv, symObjAddr: 0x33D0, symBinAddr: 0x10003AF9C, symSize: 0x60 }
  - { offset: 0x34A5F8, size: 0x8, addend: 0x0, symName: __ZN9Effekseer18ManagerImplemented14StopAllEffectsEv, symObjAddr: 0x33D0, symBinAddr: 0x10003AF9C, symSize: 0x60 }
  - { offset: 0x34A719, size: 0x8, addend: 0x0, symName: __ZN9Effekseer18ManagerImplemented8StopRootEi, symObjAddr: 0x3430, symBinAddr: 0x10003AFFC, symSize: 0x104 }
  - { offset: 0x34A9D3, size: 0x8, addend: 0x0, symName: __ZN9Effekseer18ManagerImplemented8StopRootERKNS_6RefPtrINS_6EffectEEE, symObjAddr: 0x3534, symBinAddr: 0x10003B100, symSize: 0x78 }
  - { offset: 0x34AA07, size: 0x8, addend: 0x0, symName: __ZN9Effekseer18ManagerImplemented8StopRootERKNS_6RefPtrINS_6EffectEEE, symObjAddr: 0x3534, symBinAddr: 0x10003B100, symSize: 0x78 }
  - { offset: 0x34AA43, size: 0x8, addend: 0x0, symName: __ZN9Effekseer18ManagerImplemented8StopRootERKNS_6RefPtrINS_6EffectEEE, symObjAddr: 0x3534, symBinAddr: 0x10003B100, symSize: 0x78 }
  - { offset: 0x34AA62, size: 0x8, addend: 0x0, symName: __ZN9Effekseer18ManagerImplemented8StopRootERKNS_6RefPtrINS_6EffectEEE, symObjAddr: 0x3534, symBinAddr: 0x10003B100, symSize: 0x78 }
  - { offset: 0x34ABA3, size: 0x8, addend: 0x0, symName: __ZN9Effekseer18ManagerImplemented6ExistsEi, symObjAddr: 0x35AC, symBinAddr: 0x10003B178, symSize: 0x1D0 }
  - { offset: 0x34B112, size: 0x8, addend: 0x0, symName: __ZN9Effekseer18ManagerImplemented9GetEffectEi, symObjAddr: 0x377C, symBinAddr: 0x10003B348, symSize: 0x80 }
  - { offset: 0x34B15E, size: 0x8, addend: 0x0, symName: __ZN9Effekseer18ManagerImplemented9GetEffectEi, symObjAddr: 0x377C, symBinAddr: 0x10003B348, symSize: 0x80 }
  - { offset: 0x34B17D, size: 0x8, addend: 0x0, symName: __ZN9Effekseer18ManagerImplemented9GetEffectEi, symObjAddr: 0x377C, symBinAddr: 0x10003B348, symSize: 0x80 }
  - { offset: 0x34B1A5, size: 0x8, addend: 0x0, symName: __ZN9Effekseer18ManagerImplemented9GetEffectEi, symObjAddr: 0x377C, symBinAddr: 0x10003B348, symSize: 0x80 }
  - { offset: 0x34B2ED, size: 0x8, addend: 0x0, symName: __ZN9Effekseer18ManagerImplemented16GetInstanceCountEi, symObjAddr: 0x37FC, symBinAddr: 0x10003B3C8, symSize: 0x10C }
  - { offset: 0x34B6C7, size: 0x8, addend: 0x0, symName: __ZNK9Effekseer18ManagerImplemented21GetTotalInstanceCountEv, symObjAddr: 0x3908, symBinAddr: 0x10003B4D4, symSize: 0x20C }
  - { offset: 0x34BBB9, size: 0x8, addend: 0x0, symName: __ZN9Effekseer18ManagerImplemented13GetCurrentLODEi, symObjAddr: 0x3B14, symBinAddr: 0x10003B6E0, symSize: 0x10C }
  - { offset: 0x34BE95, size: 0x8, addend: 0x0, symName: __ZNK9Effekseer18ManagerImplemented17GetLayerParameterEi, symObjAddr: 0x3C20, symBinAddr: 0x10003B7EC, symSize: 0x14 }
  - { offset: 0x34BECD, size: 0x8, addend: 0x0, symName: __ZN9Effekseer18ManagerImplemented17SetLayerParameterEiRKNS_7Manager14LayerParameterE, symObjAddr: 0x3C34, symBinAddr: 0x10003B800, symSize: 0x1C }
  - { offset: 0x34BFCE, size: 0x8, addend: 0x0, symName: __ZN9Effekseer18ManagerImplemented9GetMatrixEi, symObjAddr: 0x3C50, symBinAddr: 0x10003B81C, symSize: 0x188 }
  - { offset: 0x34C473, size: 0x8, addend: 0x0, symName: __ZN9Effekseer18ManagerImplemented9SetMatrixEiRKNS_8Matrix43E, symObjAddr: 0x3DD8, symBinAddr: 0x10003B9A4, symSize: 0x18C }
  - { offset: 0x34C82A, size: 0x8, addend: 0x0, symName: __ZN9Effekseer18ManagerImplemented11GetLocationEi, symObjAddr: 0x3F64, symBinAddr: 0x10003BB30, symSize: 0x118 }
  - { offset: 0x34CBBB, size: 0x8, addend: 0x0, symName: __ZN9Effekseer18ManagerImplemented11SetLocationEifff, symObjAddr: 0x407C, symBinAddr: 0x10003BC48, symSize: 0x19C }
  - { offset: 0x34CFA8, size: 0x8, addend: 0x0, symName: __ZN9Effekseer18ManagerImplemented11SetLocationEiRKNS_8Vector3DE, symObjAddr: 0x4218, symBinAddr: 0x10003BDE4, symSize: 0x14 }
  - { offset: 0x34D008, size: 0x8, addend: 0x0, symName: __ZN9Effekseer18ManagerImplemented11AddLocationEiRKNS_8Vector3DE, symObjAddr: 0x422C, symBinAddr: 0x10003BDF8, symSize: 0x19C }
  - { offset: 0x34D40C, size: 0x8, addend: 0x0, symName: __ZN9Effekseer18ManagerImplemented11SetRotationEifff, symObjAddr: 0x43C8, symBinAddr: 0x10003BF94, symSize: 0x1EC }
  - { offset: 0x34D7BD, size: 0x8, addend: 0x0, symName: __ZN9Effekseer18ManagerImplemented11SetRotationEiRKNS_8Vector3DEf, symObjAddr: 0x45B4, symBinAddr: 0x10003C180, symSize: 0x1D4 }
  - { offset: 0x34DB5E, size: 0x8, addend: 0x0, symName: __ZN9Effekseer18ManagerImplemented8SetScaleEifff, symObjAddr: 0x4788, symBinAddr: 0x10003C354, symSize: 0x1E4 }
  - { offset: 0x34DF0F, size: 0x8, addend: 0x0, symName: __ZN9Effekseer18ManagerImplemented11SetAllColorEiNS_5ColorE, symObjAddr: 0x496C, symBinAddr: 0x10003C538, symSize: 0x120 }
  - { offset: 0x34E200, size: 0x8, addend: 0x0, symName: __ZN9Effekseer18ManagerImplemented17SetTargetLocationEifff, symObjAddr: 0x4A8C, symBinAddr: 0x10003C658, symSize: 0x30 }
  - { offset: 0x34E2F7, size: 0x8, addend: 0x0, symName: __ZN9Effekseer18ManagerImplemented17SetTargetLocationEiRKNS_8Vector3DE, symObjAddr: 0x4ABC, symBinAddr: 0x10003C688, symSize: 0x124 }
  - { offset: 0x34E5F8, size: 0x8, addend: 0x0, symName: __ZN9Effekseer18ManagerImplemented15GetDynamicInputEii, symObjAddr: 0x4BE0, symBinAddr: 0x10003C7AC, symSize: 0x58 }
  - { offset: 0x34E64E, size: 0x8, addend: 0x0, symName: __ZN9Effekseer18ManagerImplemented15GetDynamicInputEii, symObjAddr: 0x4BE0, symBinAddr: 0x10003C7AC, symSize: 0x58 }
  - { offset: 0x34E66D, size: 0x8, addend: 0x0, symName: __ZN9Effekseer18ManagerImplemented15GetDynamicInputEii, symObjAddr: 0x4BE0, symBinAddr: 0x10003C7AC, symSize: 0x58 }
  - { offset: 0x34E695, size: 0x8, addend: 0x0, symName: __ZN9Effekseer18ManagerImplemented15GetDynamicInputEii, symObjAddr: 0x4BE0, symBinAddr: 0x10003C7AC, symSize: 0x58 }
  - { offset: 0x34E741, size: 0x8, addend: 0x0, symName: __ZN9Effekseer18ManagerImplemented15SetDynamicInputEiif, symObjAddr: 0x4C38, symBinAddr: 0x10003C804, symSize: 0x140 }
  - { offset: 0x34EA52, size: 0x8, addend: 0x0, symName: __ZN9Effekseer18ManagerImplemented11SendTriggerEii, symObjAddr: 0x4D78, symBinAddr: 0x10003C944, symSize: 0x11C }
  - { offset: 0x34ED43, size: 0x8, addend: 0x0, symName: __ZN9Effekseer18ManagerImplemented13GetBaseMatrixEi, symObjAddr: 0x4E94, symBinAddr: 0x10003CA60, symSize: 0x188 }
  - { offset: 0x34F13A, size: 0x8, addend: 0x0, symName: __ZN9Effekseer18ManagerImplemented13SetBaseMatrixEiRKNS_8Matrix43E, symObjAddr: 0x501C, symBinAddr: 0x10003CBE8, symSize: 0x290 }
  - { offset: 0x34F7D8, size: 0x8, addend: 0x0, symName: __ZN9Effekseer18ManagerImplemented19SetRemovingCallbackEiNSt3__18functionIFvPNS_7ManagerEibEEE, symObjAddr: 0x52AC, symBinAddr: 0x10003CE78, symSize: 0x1B8 }
  - { offset: 0x34FC38, size: 0x8, addend: 0x0, symName: __ZN9Effekseer18ManagerImplemented8GetShownEi, symObjAddr: 0x5464, symBinAddr: 0x10003D030, symSize: 0x10C }
  - { offset: 0x34FEF2, size: 0x8, addend: 0x0, symName: __ZN9Effekseer18ManagerImplemented8SetShownEib, symObjAddr: 0x5570, symBinAddr: 0x10003D13C, symSize: 0x114 }
  - { offset: 0x3501C5, size: 0x8, addend: 0x0, symName: __ZN9Effekseer18ManagerImplemented9GetPausedEi, symObjAddr: 0x5684, symBinAddr: 0x10003D250, symSize: 0x10C }
  - { offset: 0x35047F, size: 0x8, addend: 0x0, symName: __ZN9Effekseer18ManagerImplemented9SetPausedEib, symObjAddr: 0x5790, symBinAddr: 0x10003D35C, symSize: 0x114 }
  - { offset: 0x350752, size: 0x8, addend: 0x0, symName: __ZN9Effekseer18ManagerImplemented16SetSpawnDisabledEib, symObjAddr: 0x58A4, symBinAddr: 0x10003D470, symSize: 0x118 }
  - { offset: 0x350A25, size: 0x8, addend: 0x0, symName: __ZN9Effekseer18ManagerImplemented16GetSpawnDisabledEi, symObjAddr: 0x59BC, symBinAddr: 0x10003D588, symSize: 0x110 }
  - { offset: 0x350CDF, size: 0x8, addend: 0x0, symName: __ZN9Effekseer18ManagerImplemented21SetPausedToAllEffectsEb, symObjAddr: 0x5ACC, symBinAddr: 0x10003D698, symSize: 0x54 }
  - { offset: 0x350D25, size: 0x8, addend: 0x0, symName: __ZN9Effekseer18ManagerImplemented21SetPausedToAllEffectsEb, symObjAddr: 0x5ACC, symBinAddr: 0x10003D698, symSize: 0x54 }
  - { offset: 0x350D44, size: 0x8, addend: 0x0, symName: __ZN9Effekseer18ManagerImplemented21SetPausedToAllEffectsEb, symObjAddr: 0x5ACC, symBinAddr: 0x10003D698, symSize: 0x54 }
  - { offset: 0x350DE6, size: 0x8, addend: 0x0, symName: __ZN9Effekseer18ManagerImplemented8GetLayerEi, symObjAddr: 0x5B20, symBinAddr: 0x10003D6EC, symSize: 0x50 }
  - { offset: 0x350E30, size: 0x8, addend: 0x0, symName: __ZN9Effekseer18ManagerImplemented8GetLayerEi, symObjAddr: 0x5B20, symBinAddr: 0x10003D6EC, symSize: 0x50 }
  - { offset: 0x350E4F, size: 0x8, addend: 0x0, symName: __ZN9Effekseer18ManagerImplemented8GetLayerEi, symObjAddr: 0x5B20, symBinAddr: 0x10003D6EC, symSize: 0x50 }
  - { offset: 0x350E77, size: 0x8, addend: 0x0, symName: __ZN9Effekseer18ManagerImplemented8GetLayerEi, symObjAddr: 0x5B20, symBinAddr: 0x10003D6EC, symSize: 0x50 }
  - { offset: 0x350F81, size: 0x8, addend: 0x0, symName: __ZN9Effekseer18ManagerImplemented8SetLayerEii, symObjAddr: 0x5B70, symBinAddr: 0x10003D73C, symSize: 0x50 }
  - { offset: 0x3511B8, size: 0x8, addend: 0x0, symName: __ZNK9Effekseer18ManagerImplemented12GetGroupMaskEi, symObjAddr: 0x5BC0, symBinAddr: 0x10003D78C, symSize: 0x4C }
  - { offset: 0x351202, size: 0x8, addend: 0x0, symName: __ZNK9Effekseer18ManagerImplemented12GetGroupMaskEi, symObjAddr: 0x5BC0, symBinAddr: 0x10003D78C, symSize: 0x4C }
  - { offset: 0x351221, size: 0x8, addend: 0x0, symName: __ZNK9Effekseer18ManagerImplemented12GetGroupMaskEi, symObjAddr: 0x5BC0, symBinAddr: 0x10003D78C, symSize: 0x4C }
  - { offset: 0x351249, size: 0x8, addend: 0x0, symName: __ZNK9Effekseer18ManagerImplemented12GetGroupMaskEi, symObjAddr: 0x5BC0, symBinAddr: 0x10003D78C, symSize: 0x4C }
  - { offset: 0x351315, size: 0x8, addend: 0x0, symName: __ZN9Effekseer18ManagerImplemented12SetGroupMaskEix, symObjAddr: 0x5C0C, symBinAddr: 0x10003D7D8, symSize: 0x44 }
  - { offset: 0x35136B, size: 0x8, addend: 0x0, symName: __ZN9Effekseer18ManagerImplemented12SetGroupMaskEix, symObjAddr: 0x5C0C, symBinAddr: 0x10003D7D8, symSize: 0x44 }
  - { offset: 0x35138A, size: 0x8, addend: 0x0, symName: __ZN9Effekseer18ManagerImplemented12SetGroupMaskEix, symObjAddr: 0x5C0C, symBinAddr: 0x10003D7D8, symSize: 0x44 }
  - { offset: 0x3513B2, size: 0x8, addend: 0x0, symName: __ZN9Effekseer18ManagerImplemented12SetGroupMaskEix, symObjAddr: 0x5C0C, symBinAddr: 0x10003D7D8, symSize: 0x44 }
  - { offset: 0x35147E, size: 0x8, addend: 0x0, symName: __ZNK9Effekseer18ManagerImplemented8GetSpeedEi, symObjAddr: 0x5C50, symBinAddr: 0x10003D81C, symSize: 0x48 }
  - { offset: 0x3514C6, size: 0x8, addend: 0x0, symName: __ZNK9Effekseer18ManagerImplemented8GetSpeedEi, symObjAddr: 0x5C50, symBinAddr: 0x10003D81C, symSize: 0x48 }
  - { offset: 0x3514E5, size: 0x8, addend: 0x0, symName: __ZNK9Effekseer18ManagerImplemented8GetSpeedEi, symObjAddr: 0x5C50, symBinAddr: 0x10003D81C, symSize: 0x48 }
  - { offset: 0x35150D, size: 0x8, addend: 0x0, symName: __ZNK9Effekseer18ManagerImplemented8GetSpeedEi, symObjAddr: 0x5C50, symBinAddr: 0x10003D81C, symSize: 0x48 }
  - { offset: 0x3515D9, size: 0x8, addend: 0x0, symName: __ZN9Effekseer18ManagerImplemented8SetSpeedEif, symObjAddr: 0x5C98, symBinAddr: 0x10003D864, symSize: 0x1CC }
  - { offset: 0x351A78, size: 0x8, addend: 0x0, symName: __ZN9Effekseer18ManagerImplemented13SetRandomSeedEii, symObjAddr: 0x5E64, symBinAddr: 0x10003DA30, symSize: 0x120 }
  - { offset: 0x351D96, size: 0x8, addend: 0x0, symName: __ZN9Effekseer18ManagerImplemented19SetTimeScaleByGroupExf, symObjAddr: 0x5F84, symBinAddr: 0x10003DB50, symSize: 0x60 }
  - { offset: 0x351E0C, size: 0x8, addend: 0x0, symName: __ZN9Effekseer18ManagerImplemented19SetTimeScaleByGroupExf, symObjAddr: 0x5F84, symBinAddr: 0x10003DB50, symSize: 0x60 }
  - { offset: 0x351E2B, size: 0x8, addend: 0x0, symName: __ZN9Effekseer18ManagerImplemented19SetTimeScaleByGroupExf, symObjAddr: 0x5F84, symBinAddr: 0x10003DB50, symSize: 0x60 }
  - { offset: 0x351F4C, size: 0x8, addend: 0x0, symName: __ZN9Effekseer18ManagerImplemented20SetTimeScaleByHandleEif, symObjAddr: 0x5FE4, symBinAddr: 0x10003DBB0, symSize: 0x44 }
  - { offset: 0x351FA3, size: 0x8, addend: 0x0, symName: __ZN9Effekseer18ManagerImplemented20SetTimeScaleByHandleEif, symObjAddr: 0x5FE4, symBinAddr: 0x10003DBB0, symSize: 0x44 }
  - { offset: 0x351FC2, size: 0x8, addend: 0x0, symName: __ZN9Effekseer18ManagerImplemented20SetTimeScaleByHandleEif, symObjAddr: 0x5FE4, symBinAddr: 0x10003DBB0, symSize: 0x44 }
  - { offset: 0x351FEA, size: 0x8, addend: 0x0, symName: __ZN9Effekseer18ManagerImplemented20SetTimeScaleByHandleEif, symObjAddr: 0x5FE4, symBinAddr: 0x10003DBB0, symSize: 0x44 }
  - { offset: 0x3520B6, size: 0x8, addend: 0x0, symName: __ZN9Effekseer18ManagerImplemented14SetAutoDrawingEib, symObjAddr: 0x6028, symBinAddr: 0x10003DBF4, symSize: 0x114 }
  - { offset: 0x35239F, size: 0x8, addend: 0x0, symName: __ZN9Effekseer18ManagerImplemented11GetUserDataEi, symObjAddr: 0x613C, symBinAddr: 0x10003DD08, symSize: 0x50 }
  - { offset: 0x3523E9, size: 0x8, addend: 0x0, symName: __ZN9Effekseer18ManagerImplemented11GetUserDataEi, symObjAddr: 0x613C, symBinAddr: 0x10003DD08, symSize: 0x50 }
  - { offset: 0x352408, size: 0x8, addend: 0x0, symName: __ZN9Effekseer18ManagerImplemented11GetUserDataEi, symObjAddr: 0x613C, symBinAddr: 0x10003DD08, symSize: 0x50 }
  - { offset: 0x352430, size: 0x8, addend: 0x0, symName: __ZN9Effekseer18ManagerImplemented11GetUserDataEi, symObjAddr: 0x613C, symBinAddr: 0x10003DD08, symSize: 0x50 }
  - { offset: 0x35253A, size: 0x8, addend: 0x0, symName: __ZN9Effekseer18ManagerImplemented11SetUserDataEiPv, symObjAddr: 0x618C, symBinAddr: 0x10003DD58, symSize: 0x48 }
  - { offset: 0x352590, size: 0x8, addend: 0x0, symName: __ZN9Effekseer18ManagerImplemented11SetUserDataEiPv, symObjAddr: 0x618C, symBinAddr: 0x10003DD58, symSize: 0x48 }
  - { offset: 0x3525AF, size: 0x8, addend: 0x0, symName: __ZN9Effekseer18ManagerImplemented11SetUserDataEiPv, symObjAddr: 0x618C, symBinAddr: 0x10003DD58, symSize: 0x48 }
  - { offset: 0x3525D7, size: 0x8, addend: 0x0, symName: __ZN9Effekseer18ManagerImplemented11SetUserDataEiPv, symObjAddr: 0x618C, symBinAddr: 0x10003DD58, symSize: 0x48 }
  - { offset: 0x352A96, size: 0x8, addend: 0x0, symName: __ZN9Effekseer18ManagerImplemented4FlipEv, symObjAddr: 0x61D4, symBinAddr: 0x10003DDA0, symSize: 0x6A8 }
  - { offset: 0x353DF6, size: 0x8, addend: 0x0, symName: __ZN9Effekseer18ManagerImplemented6UpdateEf, symObjAddr: 0x69B0, symBinAddr: 0x10003E57C, symSize: 0x38 }
  - { offset: 0x3541C3, size: 0x8, addend: 0x0, symName: __ZN9Effekseer18ManagerImplemented13ExecuteSoundsEv, symObjAddr: 0x7040, symBinAddr: 0x10003EC0C, symSize: 0x268 }
  - { offset: 0x35420A, size: 0x8, addend: 0x0, symName: __ZN9Effekseer18ManagerImplemented13ExecuteSoundsEv, symObjAddr: 0x7040, symBinAddr: 0x10003EC0C, symSize: 0x268 }
  - { offset: 0x354229, size: 0x8, addend: 0x0, symName: __ZN9Effekseer18ManagerImplemented13ExecuteSoundsEv, symObjAddr: 0x7040, symBinAddr: 0x10003EC0C, symSize: 0x268 }
  - { offset: 0x354248, size: 0x8, addend: 0x0, symName: __ZN9Effekseer18ManagerImplemented13ExecuteSoundsEv, symObjAddr: 0x7040, symBinAddr: 0x10003EC0C, symSize: 0x268 }
  - { offset: 0x355399, size: 0x8, addend: 0x0, symName: __ZN9Effekseer18ManagerImplemented11BeginUpdateEv, symObjAddr: 0x72A8, symBinAddr: 0x10003EE74, symSize: 0x54 }
  - { offset: 0x3554E6, size: 0x8, addend: 0x0, symName: __ZN9Effekseer18ManagerImplemented9EndUpdateEv, symObjAddr: 0x72FC, symBinAddr: 0x10003EEC8, symSize: 0x164 }
  - { offset: 0x356090, size: 0x8, addend: 0x0, symName: __ZN9Effekseer18ManagerImplemented12UpdateHandleEif, symObjAddr: 0x7460, symBinAddr: 0x10003F02C, symSize: 0x108 }
  - { offset: 0x356399, size: 0x8, addend: 0x0, symName: __ZN9Effekseer18ManagerImplemented25UpdateHandleToMoveToFrameEif, symObjAddr: 0x7568, symBinAddr: 0x10003F134, symSize: 0xF4 }
  - { offset: 0x3565B9, size: 0x8, addend: 0x0, symName: __ZN9Effekseer18ManagerImplemented24StopWithoutRemoveDrawSetERNS0_7DrawSetE, symObjAddr: 0x765C, symBinAddr: 0x10003F228, symSize: 0xB8 }
  - { offset: 0x35677E, size: 0x8, addend: 0x0, symName: __ZN9Effekseer18ManagerImplemented23ResetAndPlayWithDataSetERNS0_7DrawSetEf, symObjAddr: 0x7714, symBinAddr: 0x10003F2E0, symSize: 0x218 }
  - { offset: 0x356ED5, size: 0x8, addend: 0x0, symName: __ZN9Effekseer18ManagerImplemented23ResetAndPlayWithDataSetERNS0_7DrawSetEf.cold.2, symObjAddr: 0x142B0, symBinAddr: 0x10034D340, symSize: 0x28 }
  - { offset: 0x356EED, size: 0x8, addend: 0x0, symName: __ZN9Effekseer18ManagerImplemented23ResetAndPlayWithDataSetERNS0_7DrawSetEf.cold.1, symObjAddr: 0x14288, symBinAddr: 0x10034D318, symSize: 0x28 }
  - { offset: 0x356FD4, size: 0x8, addend: 0x0, symName: __ZN9Effekseer18ManagerImplemented7ComputeEv, symObjAddr: 0x79E0, symBinAddr: 0x10003F4F8, symSize: 0x214 }
  - { offset: 0x357919, size: 0x8, addend: 0x0, symName: __ZN9Effekseer18ManagerImplemented4DrawERKNS_7Manager13DrawParameterE, symObjAddr: 0x7BF4, symBinAddr: 0x10003F70C, symSize: 0x4CC }
  - { offset: 0x358574, size: 0x8, addend: 0x0, symName: __ZN9Effekseer15GeometryUtility22CalculateFrustumPlanesERKNS_8Matrix44EffNS_16CoordinateSystemE, symObjAddr: 0x80C0, symBinAddr: 0x10003FBD8, symSize: 0x2C4 }
  - { offset: 0x358C55, size: 0x8, addend: 0x0, symName: '__ZZN9Effekseer18ManagerImplemented4DrawERKNS_7Manager13DrawParameterEENK3$_0clERNS0_7DrawSetE', symObjAddr: 0x8384, symBinAddr: 0x10003FE9C, symSize: 0x228 }
  - { offset: 0x3594D3, size: 0x8, addend: 0x0, symName: __ZN9Effekseer18ManagerImplemented8DrawBackERKNS_7Manager13DrawParameterE, symObjAddr: 0x85AC, symBinAddr: 0x1000400C4, symSize: 0x2F0 }
  - { offset: 0x359C85, size: 0x8, addend: 0x0, symName: '__ZZN9Effekseer18ManagerImplemented8DrawBackERKNS_7Manager13DrawParameterEENK3$_0clERNS0_7DrawSetE', symObjAddr: 0x889C, symBinAddr: 0x1000403B4, symSize: 0x228 }
  - { offset: 0x35A0FE, size: 0x8, addend: 0x0, symName: __ZN9Effekseer18ManagerImplemented9DrawFrontERKNS_7Manager13DrawParameterE, symObjAddr: 0x8AC4, symBinAddr: 0x1000405DC, symSize: 0x484 }
  - { offset: 0x35AC75, size: 0x8, addend: 0x0, symName: '__ZZN9Effekseer18ManagerImplemented9DrawFrontERKNS_7Manager13DrawParameterEENK3$_0clERNS0_7DrawSetE', symObjAddr: 0x8F48, symBinAddr: 0x100040A60, symSize: 0x248 }
  - { offset: 0x35B0E3, size: 0x8, addend: 0x0, symName: __ZN9Effekseer18ManagerImplemented4PlayERKNS_6RefPtrINS_6EffectEEEfff, symObjAddr: 0x9190, symBinAddr: 0x100040CA8, symSize: 0x34 }
  - { offset: 0x35B217, size: 0x8, addend: 0x0, symName: __ZN9Effekseer18ManagerImplemented4PlayERKNS_6RefPtrINS_6EffectEEERKNS_8Vector3DEi, symObjAddr: 0x91C4, symBinAddr: 0x100040CDC, symSize: 0x2C8 }
  - { offset: 0x35B70B, size: 0x8, addend: 0x0, symName: __ZN9Effekseer18ManagerImplemented4PlayERKNS_7Manager13PlayParameterE, symObjAddr: 0x948C, symBinAddr: 0x100040FA4, symSize: 0x194 }
  - { offset: 0x35B79E, size: 0x8, addend: 0x0, symName: __ZN9Effekseer18ManagerImplemented4PlayERKNS_7Manager13PlayParameterE, symObjAddr: 0x948C, symBinAddr: 0x100040FA4, symSize: 0x194 }
  - { offset: 0x35B80A, size: 0x8, addend: 0x0, symName: __ZN9Effekseer18ManagerImplemented4PlayERKNS_7Manager13PlayParameterE, symObjAddr: 0x948C, symBinAddr: 0x100040FA4, symSize: 0x194 }
  - { offset: 0x35B826, size: 0x8, addend: 0x0, symName: __ZN9Effekseer18ManagerImplemented4PlayERKNS_7Manager13PlayParameterE, symObjAddr: 0x948C, symBinAddr: 0x100040FA4, symSize: 0x194 }
  - { offset: 0x35BA81, size: 0x8, addend: 0x0, symName: __ZNSt3__16vectorIN9Effekseer13ExternalModelENS_9allocatorIS2_EEE18__assign_with_sizeB8nn200100IPS2_S7_EEvT_T0_l, symObjAddr: 0xA8D4, symBinAddr: 0x10004225C, symSize: 0x34C }
  - { offset: 0x35C6D8, size: 0x8, addend: 0x0, symName: __ZN9Effekseer18ManagerImplemented36GetCameraCullingMaskToShowAllEffectsEv, symObjAddr: 0x9620, symBinAddr: 0x100041138, symSize: 0x74 }
  - { offset: 0x35C710, size: 0x8, addend: 0x0, symName: __ZN9Effekseer18ManagerImplemented36GetCameraCullingMaskToShowAllEffectsEv, symObjAddr: 0x9620, symBinAddr: 0x100041138, symSize: 0x74 }
  - { offset: 0x35C74B, size: 0x8, addend: 0x0, symName: __ZN9Effekseer18ManagerImplemented36GetCameraCullingMaskToShowAllEffectsEv, symObjAddr: 0x9620, symBinAddr: 0x100041138, symSize: 0x74 }
  - { offset: 0x35C76A, size: 0x8, addend: 0x0, symName: __ZN9Effekseer18ManagerImplemented36GetCameraCullingMaskToShowAllEffectsEv, symObjAddr: 0x9620, symBinAddr: 0x100041138, symSize: 0x74 }
  - { offset: 0x35C86D, size: 0x8, addend: 0x0, symName: __ZN9Effekseer18ManagerImplemented10DrawHandleEiRKNS_7Manager13DrawParameterE, symObjAddr: 0x9694, symBinAddr: 0x1000411AC, symSize: 0x214 }
  - { offset: 0x35CD3F, size: 0x8, addend: 0x0, symName: __ZN9Effekseer18ManagerImplemented14DrawHandleBackEiRKNS_7Manager13DrawParameterE, symObjAddr: 0x98A8, symBinAddr: 0x1000413C0, symSize: 0x21C }
  - { offset: 0x35D1D6, size: 0x8, addend: 0x0, symName: __ZN9Effekseer18ManagerImplemented15DrawHandleFrontEiRKNS_7Manager13DrawParameterE, symObjAddr: 0x9AC4, symBinAddr: 0x1000415DC, symSize: 0x228 }
  - { offset: 0x35D698, size: 0x8, addend: 0x0, symName: __ZN9Effekseer18ManagerImplemented11GetIsCulledEiRKNS_7Manager13DrawParameterE, symObjAddr: 0x9CEC, symBinAddr: 0x100041804, symSize: 0x1B8 }
  - { offset: 0x35DA9F, size: 0x8, addend: 0x0, symName: __ZNK9Effekseer18ManagerImplemented13GetUpdateTimeEv, symObjAddr: 0x9EA4, symBinAddr: 0x1000419BC, symSize: 0x8 }
  - { offset: 0x35DAC9, size: 0x8, addend: 0x0, symName: __ZNK9Effekseer18ManagerImplemented11GetDrawTimeEv, symObjAddr: 0x9EAC, symBinAddr: 0x1000419C4, symSize: 0x8 }
  - { offset: 0x35DAF3, size: 0x8, addend: 0x0, symName: __ZNK9Effekseer18ManagerImplemented20GetDrawTimeBreakdownEv, symObjAddr: 0x9EB4, symBinAddr: 0x1000419CC, symSize: 0x18 }
  - { offset: 0x35DB31, size: 0x8, addend: 0x0, symName: __ZNK9Effekseer18ManagerImplemented10GetGpuTimeEv, symObjAddr: 0x9ECC, symBinAddr: 0x1000419E4, symSize: 0xC4 }
  - { offset: 0x35DDE1, size: 0x8, addend: 0x0, symName: __ZNK9Effekseer18ManagerImplemented10GetGpuTimeEi, symObjAddr: 0x9F90, symBinAddr: 0x100041AA8, symSize: 0x60 }
  - { offset: 0x35DFBF, size: 0x8, addend: 0x0, symName: __ZNK9Effekseer18ManagerImplemented21GetRestInstancesCountEv, symObjAddr: 0x9FF0, symBinAddr: 0x100041B08, symSize: 0xC }
  - { offset: 0x35DFEB, size: 0x8, addend: 0x0, symName: __ZNK9Effekseer18ManagerImplemented21GetRestInstancesCountEv, symObjAddr: 0x9FF0, symBinAddr: 0x100041B08, symSize: 0xC }
  - { offset: 0x35E00A, size: 0x8, addend: 0x0, symName: __ZNK9Effekseer18ManagerImplemented21GetRestInstancesCountEv, symObjAddr: 0x9FF0, symBinAddr: 0x100041B08, symSize: 0xC }
  - { offset: 0x35E028, size: 0x8, addend: 0x0, symName: __ZNK9Effekseer18ManagerImplemented21GetRestInstancesCountEv, symObjAddr: 0x9FF0, symBinAddr: 0x100041B08, symSize: 0xC }
  - { offset: 0x35E048, size: 0x8, addend: 0x0, symName: __ZN9Effekseer18ManagerImplemented17BeginReloadEffectERKNS_6RefPtrINS_6EffectEEEb, symObjAddr: 0x9FFC, symBinAddr: 0x100041B14, symSize: 0xA8 }
  - { offset: 0x35E26F, size: 0x8, addend: 0x0, symName: __ZN9Effekseer18ManagerImplemented15EndReloadEffectERKNS_6RefPtrINS_6EffectEEEb, symObjAddr: 0xA0A4, symBinAddr: 0x100041BBC, symSize: 0xD0 }
  - { offset: 0x35E4D5, size: 0x8, addend: 0x0, symName: __ZN9Effekseer18ManagerImplemented13LockRenderingEv, symObjAddr: 0xA174, symBinAddr: 0x100041C8C, symSize: 0x8 }
  - { offset: 0x35E4FF, size: 0x8, addend: 0x0, symName: __ZN9Effekseer18ManagerImplemented15UnlockRenderingEv, symObjAddr: 0xA17C, symBinAddr: 0x100041C94, symSize: 0x8 }
  - { offset: 0x35E63C, size: 0x8, addend: 0x0, symName: __ZN9Effekseer18ManagerImplemented18RequestToPlaySoundEPNS_8InstanceEPKNS_21EffectNodeImplementedE, symObjAddr: 0xA184, symBinAddr: 0x100041C9C, symSize: 0x148 }
  - { offset: 0x35E9AB, size: 0x8, addend: 0x0, symName: __ZNSt3__15dequeINS_4pairIPvN9Effekseer11SoundPlayer17InstanceParameterEEENS_9allocatorIS6_EEE12emplace_backIJS2_RS5_EEERS6_DpOT_, symObjAddr: 0xAC38, symBinAddr: 0x1000425A8, symSize: 0x14C }
  - { offset: 0x35ED21, size: 0x8, addend: 0x0, symName: __ZN9Effekseer18ManagerImplemented6AddRefEv, symObjAddr: 0xA2CC, symBinAddr: 0x100041DE4, symSize: 0x14 }
  - { offset: 0x35ED45, size: 0x8, addend: 0x0, symName: __ZN9Effekseer18ManagerImplemented6AddRefEv, symObjAddr: 0xA2CC, symBinAddr: 0x100041DE4, symSize: 0x14 }
  - { offset: 0x35EE53, size: 0x8, addend: 0x0, symName: __ZN9Effekseer18ManagerImplemented6GetRefEv, symObjAddr: 0xA2E0, symBinAddr: 0x100041DF8, symSize: 0xC }
  - { offset: 0x35EE77, size: 0x8, addend: 0x0, symName: __ZN9Effekseer18ManagerImplemented6GetRefEv, symObjAddr: 0xA2E0, symBinAddr: 0x100041DF8, symSize: 0xC }
  - { offset: 0x35EF43, size: 0x8, addend: 0x0, symName: __ZN9Effekseer18ManagerImplemented7ReleaseEv, symObjAddr: 0xA2EC, symBinAddr: 0x100041E04, symSize: 0x3C }
  - { offset: 0x35F04D, size: 0x8, addend: 0x0, symName: __ZN9Effekseer18ManagerImplemented14GetImplementedEv, symObjAddr: 0xA328, symBinAddr: 0x100041E40, symSize: 0x4 }
  - { offset: 0x35F088, size: 0x8, addend: 0x0, symName: __ZThn8_N9Effekseer18ManagerImplemented6AddRefEv, symObjAddr: 0xA32C, symBinAddr: 0x100041E44, symSize: 0x14 }
  - { offset: 0x35F0A3, size: 0x8, addend: 0x0, symName: __ZThn8_N9Effekseer18ManagerImplemented6AddRefEv, symObjAddr: 0xA32C, symBinAddr: 0x100041E44, symSize: 0x14 }
  - { offset: 0x35F0BF, size: 0x8, addend: 0x0, symName: __ZThn8_N9Effekseer18ManagerImplemented6AddRefEv, symObjAddr: 0xA32C, symBinAddr: 0x100041E44, symSize: 0x14 }
  - { offset: 0x35F1D0, size: 0x8, addend: 0x0, symName: __ZThn8_N9Effekseer18ManagerImplemented6GetRefEv, symObjAddr: 0xA340, symBinAddr: 0x100041E58, symSize: 0xC }
  - { offset: 0x35F1EB, size: 0x8, addend: 0x0, symName: __ZThn8_N9Effekseer18ManagerImplemented6GetRefEv, symObjAddr: 0xA340, symBinAddr: 0x100041E58, symSize: 0xC }
  - { offset: 0x35F207, size: 0x8, addend: 0x0, symName: __ZThn8_N9Effekseer18ManagerImplemented6GetRefEv, symObjAddr: 0xA340, symBinAddr: 0x100041E58, symSize: 0xC }
  - { offset: 0x35F29E, size: 0x8, addend: 0x0, symName: __ZThn8_N9Effekseer18ManagerImplemented7ReleaseEv, symObjAddr: 0xA34C, symBinAddr: 0x100041E64, symSize: 0x3C }
  - { offset: 0x3600CD, size: 0x8, addend: 0x0, symName: __ZNSt3__15dequeINS_4pairIPvN9Effekseer11SoundPlayer17InstanceParameterEEENS_9allocatorIS6_EEE19__add_back_capacityEv, symObjAddr: 0xAD84, symBinAddr: 0x1000426F4, symSize: 0x204 }
  - { offset: 0x3608CE, size: 0x8, addend: 0x0, symName: __ZNSt3__114__split_bufferIPNS_4pairIPvN9Effekseer11SoundPlayer17InstanceParameterEEENS_9allocatorIS7_EEE12emplace_backIJRS7_EEEvDpOT_, symObjAddr: 0xAF88, symBinAddr: 0x1000428F8, symSize: 0x184 }
  - { offset: 0x360B80, size: 0x8, addend: 0x0, symName: __ZNSt3__114__split_bufferIPNS_4pairIPvN9Effekseer11SoundPlayer17InstanceParameterEEENS_9allocatorIS7_EEE12emplace_backIJRS7_EEEvDpOT_, symObjAddr: 0xAF88, symBinAddr: 0x1000428F8, symSize: 0x184 }
  - { offset: 0x3612B4, size: 0x8, addend: 0x0, symName: __ZNSt3__114__split_bufferIPNS_4pairIPvN9Effekseer11SoundPlayer17InstanceParameterEEENS_9allocatorIS7_EEE13emplace_frontIJS7_EEEvDpOT_, symObjAddr: 0xB290, symBinAddr: 0x100042A7C, symSize: 0x190 }
  - { offset: 0x3612CC, size: 0x8, addend: 0x0, symName: __ZNSt3__114__split_bufferIPNS_4pairIPvN9Effekseer11SoundPlayer17InstanceParameterEEENS_9allocatorIS7_EEE13emplace_frontIJS7_EEEvDpOT_, symObjAddr: 0xB290, symBinAddr: 0x100042A7C, symSize: 0x190 }
  - { offset: 0x3627FE, size: 0x8, addend: 0x0, symName: __ZNSt3__16vectorIhN9Effekseer22CustomAlignedAllocatorIhEEE8__appendEm, symObjAddr: 0xC498, symBinAddr: 0x100043300, symSize: 0x1CC }
  - { offset: 0x362DFD, size: 0x8, addend: 0x0, symName: __ZN9Effekseer12InstancePoolINS_17InstanceContainerEE16AllocateNewBlockEi.cold.1, symObjAddr: 0x142D8, symBinAddr: 0x10034D368, symSize: 0x24 }
  - { offset: 0x362E28, size: 0x8, addend: 0x0, symName: __ZNSt3__15dequeIPN9Effekseer17InstanceContainerENS_9allocatorIS3_EEE19__add_back_capacityEv, symObjAddr: 0xC67C, symBinAddr: 0x1000434CC, symSize: 0x204 }
  - { offset: 0x362E4F, size: 0x8, addend: 0x0, symName: __ZNSt3__120__shared_ptr_emplaceIN9Effekseer12InstancePoolINS1_17InstanceContainerEE13ReservedBlockENS_9allocatorIS5_EEED1Ev, symObjAddr: 0xC3A0, symBinAddr: 0x100043208, symSize: 0x10 }
  - { offset: 0x362E71, size: 0x8, addend: 0x0, symName: __ZNSt3__120__shared_ptr_emplaceIN9Effekseer12InstancePoolINS1_17InstanceContainerEE13ReservedBlockENS_9allocatorIS5_EEED1Ev, symObjAddr: 0xC3A0, symBinAddr: 0x100043208, symSize: 0x10 }
  - { offset: 0x362EA7, size: 0x8, addend: 0x0, symName: __ZNSt3__120__shared_ptr_emplaceIN9Effekseer12InstancePoolINS1_17InstanceContainerEE13ReservedBlockENS_9allocatorIS5_EEED0Ev, symObjAddr: 0xC3B0, symBinAddr: 0x100043218, symSize: 0x20 }
  - { offset: 0x3630E6, size: 0x8, addend: 0x0, symName: __ZNSt3__120__shared_ptr_emplaceIN9Effekseer12InstancePoolINS1_17InstanceContainerEE13ReservedBlockENS_9allocatorIS5_EEE16__on_zero_sharedEv, symObjAddr: 0xC3D0, symBinAddr: 0x100043238, symSize: 0xC4 }
  - { offset: 0x36334B, size: 0x8, addend: 0x0, symName: __ZNSt3__120__shared_ptr_emplaceIN9Effekseer12InstancePoolINS1_17InstanceContainerEE13ReservedBlockENS_9allocatorIS5_EEE21__on_zero_shared_weakEv, symObjAddr: 0xC494, symBinAddr: 0x1000432FC, symSize: 0x4 }
  - { offset: 0x3633B3, size: 0x8, addend: 0x0, symName: __ZNSt3__120__shared_ptr_emplaceIN9Effekseer12InstancePoolINS1_17InstanceContainerEE13ReservedBlockENS_9allocatorIS5_EEE21__on_zero_shared_weakEv, symObjAddr: 0xC494, symBinAddr: 0x1000432FC, symSize: 0x4 }
  - { offset: 0x3633E5, size: 0x8, addend: 0x0, symName: __ZNSt3__120__shared_ptr_emplaceIN9Effekseer12InstancePoolINS1_17InstanceContainerEE13ReservedBlockENS_9allocatorIS5_EEE21__on_zero_shared_weakEv, symObjAddr: 0xC494, symBinAddr: 0x1000432FC, symSize: 0x4 }
  - { offset: 0x363406, size: 0x8, addend: 0x0, symName: __ZNSt3__120__shared_ptr_emplaceIN9Effekseer12InstancePoolINS1_17InstanceContainerEE13ReservedBlockENS_9allocatorIS5_EEE21__on_zero_shared_weakEv, symObjAddr: 0xC494, symBinAddr: 0x1000432FC, symSize: 0x4 }
  - { offset: 0x363428, size: 0x8, addend: 0x0, symName: __ZNSt3__120__shared_ptr_emplaceIN9Effekseer12InstancePoolINS1_17InstanceContainerEE13ReservedBlockENS_9allocatorIS5_EEE21__on_zero_shared_weakEv, symObjAddr: 0xC494, symBinAddr: 0x1000432FC, symSize: 0x4 }
  - { offset: 0x36345A, size: 0x8, addend: 0x0, symName: __ZNSt3__120__shared_ptr_emplaceIN9Effekseer12InstancePoolINS1_17InstanceContainerEE13ReservedBlockENS_9allocatorIS5_EEE21__on_zero_shared_weakEv, symObjAddr: 0xC494, symBinAddr: 0x1000432FC, symSize: 0x4 }
  - { offset: 0x364627, size: 0x8, addend: 0x0, symName: __ZNSt3__16vectorIN9Effekseer18ManagerImplemented7DrawSetENS1_22CustomAlignedAllocatorIS3_EEE24__emplace_back_slow_pathIJRKS3_EEEPS3_DpOT_, symObjAddr: 0xCEA8, symBinAddr: 0x1000436D0, symSize: 0x284 }
  - { offset: 0x364CDD, size: 0x8, addend: 0x0, symName: __ZNSt3__110__function6__funcIPFivENS_9allocatorIS3_EES2_ED1Ev, symObjAddr: 0x120DC, symBinAddr: 0x1000488F8, symSize: 0x4 }
  - { offset: 0x364D09, size: 0x8, addend: 0x0, symName: __ZNSt3__110__function6__funcIPFivENS_9allocatorIS3_EES2_ED0Ev, symObjAddr: 0x120E0, symBinAddr: 0x1000488FC, symSize: 0x4 }
  - { offset: 0x364E1F, size: 0x8, addend: 0x0, symName: __ZNKSt3__110__function6__funcIPFivENS_9allocatorIS3_EES2_E7__cloneEv, symObjAddr: 0x120E4, symBinAddr: 0x100048900, symSize: 0x38 }
  - { offset: 0x36501A, size: 0x8, addend: 0x0, symName: __ZNKSt3__110__function6__funcIPFivENS_9allocatorIS3_EES2_E7__cloneEPNS0_6__baseIS2_EE, symObjAddr: 0x1211C, symBinAddr: 0x100048938, symSize: 0x18 }
  - { offset: 0x36504F, size: 0x8, addend: 0x0, symName: __ZNKSt3__110__function6__funcIPFivENS_9allocatorIS3_EES2_E7__cloneEPNS0_6__baseIS2_EE, symObjAddr: 0x1211C, symBinAddr: 0x100048938, symSize: 0x18 }
  - { offset: 0x36507D, size: 0x8, addend: 0x0, symName: __ZNKSt3__110__function6__funcIPFivENS_9allocatorIS3_EES2_E7__cloneEPNS0_6__baseIS2_EE, symObjAddr: 0x1211C, symBinAddr: 0x100048938, symSize: 0x18 }
  - { offset: 0x3650D5, size: 0x8, addend: 0x0, symName: __ZNSt3__110__function6__funcIPFivENS_9allocatorIS3_EES2_E7destroyEv, symObjAddr: 0x12134, symBinAddr: 0x100048950, symSize: 0x4 }
  - { offset: 0x36512B, size: 0x8, addend: 0x0, symName: __ZNSt3__110__function6__funcIPFivENS_9allocatorIS3_EES2_E18destroy_deallocateEv, symObjAddr: 0x12138, symBinAddr: 0x100048954, symSize: 0x4 }
  - { offset: 0x36515E, size: 0x8, addend: 0x0, symName: __ZNSt3__110__function6__funcIPFivENS_9allocatorIS3_EES2_E18destroy_deallocateEv, symObjAddr: 0x12138, symBinAddr: 0x100048954, symSize: 0x4 }
  - { offset: 0x365180, size: 0x8, addend: 0x0, symName: __ZNSt3__110__function6__funcIPFivENS_9allocatorIS3_EES2_E18destroy_deallocateEv, symObjAddr: 0x12138, symBinAddr: 0x100048954, symSize: 0x4 }
  - { offset: 0x3651B1, size: 0x8, addend: 0x0, symName: __ZNSt3__110__function6__funcIPFivENS_9allocatorIS3_EES2_E18destroy_deallocateEv, symObjAddr: 0x12138, symBinAddr: 0x100048954, symSize: 0x4 }
  - { offset: 0x36520F, size: 0x8, addend: 0x0, symName: __ZNSt3__110__function6__funcIPFivENS_9allocatorIS3_EES2_EclEv, symObjAddr: 0x1213C, symBinAddr: 0x100048958, symSize: 0x8 }
  - { offset: 0x365238, size: 0x8, addend: 0x0, symName: __ZNSt3__110__function6__funcIPFivENS_9allocatorIS3_EES2_EclEv, symObjAddr: 0x1213C, symBinAddr: 0x100048958, symSize: 0x8 }
  - { offset: 0x365256, size: 0x8, addend: 0x0, symName: __ZNSt3__110__function6__funcIPFivENS_9allocatorIS3_EES2_EclEv, symObjAddr: 0x1213C, symBinAddr: 0x100048958, symSize: 0x8 }
  - { offset: 0x365273, size: 0x8, addend: 0x0, symName: __ZNSt3__110__function6__funcIPFivENS_9allocatorIS3_EES2_EclEv, symObjAddr: 0x1213C, symBinAddr: 0x100048958, symSize: 0x8 }
  - { offset: 0x365291, size: 0x8, addend: 0x0, symName: __ZNSt3__110__function6__funcIPFivENS_9allocatorIS3_EES2_EclEv, symObjAddr: 0x1213C, symBinAddr: 0x100048958, symSize: 0x8 }
  - { offset: 0x365313, size: 0x8, addend: 0x0, symName: __ZNKSt3__110__function6__funcIPFivENS_9allocatorIS3_EES2_E6targetERKSt9type_info, symObjAddr: 0x12144, symBinAddr: 0x100048960, symSize: 0x74 }
  - { offset: 0x3653D7, size: 0x8, addend: 0x0, symName: __ZNKSt3__110__function6__funcIPFivENS_9allocatorIS3_EES2_E11target_typeEv, symObjAddr: 0x121B8, symBinAddr: 0x1000489D4, symSize: 0xC }
  - { offset: 0x365A7C, size: 0x8, addend: 0x0, symName: __ZNSt3__120__shared_ptr_emplaceIN9Effekseer12InstancePoolINS1_13InstanceChunkEE13ReservedBlockENS_9allocatorIS5_EEED1Ev, symObjAddr: 0x12418, symBinAddr: 0x100048C28, symSize: 0x10 }
  - { offset: 0x365A9E, size: 0x8, addend: 0x0, symName: __ZNSt3__120__shared_ptr_emplaceIN9Effekseer12InstancePoolINS1_13InstanceChunkEE13ReservedBlockENS_9allocatorIS5_EEED1Ev, symObjAddr: 0x12418, symBinAddr: 0x100048C28, symSize: 0x10 }
  - { offset: 0x365AD4, size: 0x8, addend: 0x0, symName: __ZNSt3__120__shared_ptr_emplaceIN9Effekseer12InstancePoolINS1_13InstanceChunkEE13ReservedBlockENS_9allocatorIS5_EEED0Ev, symObjAddr: 0x12428, symBinAddr: 0x100048C38, symSize: 0x20 }
  - { offset: 0x365BFC, size: 0x8, addend: 0x0, symName: __ZNSt3__120__shared_ptr_emplaceIN9Effekseer12InstancePoolINS1_13InstanceChunkEE13ReservedBlockENS_9allocatorIS5_EEE16__on_zero_sharedEv, symObjAddr: 0x12448, symBinAddr: 0x100048C58, symSize: 0xC4 }
  - { offset: 0x365E61, size: 0x8, addend: 0x0, symName: __ZNSt3__120__shared_ptr_emplaceIN9Effekseer12InstancePoolINS1_13InstanceChunkEE13ReservedBlockENS_9allocatorIS5_EEE21__on_zero_shared_weakEv, symObjAddr: 0x1250C, symBinAddr: 0x100048D1C, symSize: 0x4 }
  - { offset: 0x365EC9, size: 0x8, addend: 0x0, symName: __ZNSt3__120__shared_ptr_emplaceIN9Effekseer12InstancePoolINS1_13InstanceChunkEE13ReservedBlockENS_9allocatorIS5_EEE21__on_zero_shared_weakEv, symObjAddr: 0x1250C, symBinAddr: 0x100048D1C, symSize: 0x4 }
  - { offset: 0x365EFB, size: 0x8, addend: 0x0, symName: __ZNSt3__120__shared_ptr_emplaceIN9Effekseer12InstancePoolINS1_13InstanceChunkEE13ReservedBlockENS_9allocatorIS5_EEE21__on_zero_shared_weakEv, symObjAddr: 0x1250C, symBinAddr: 0x100048D1C, symSize: 0x4 }
  - { offset: 0x365F1C, size: 0x8, addend: 0x0, symName: __ZNSt3__120__shared_ptr_emplaceIN9Effekseer12InstancePoolINS1_13InstanceChunkEE13ReservedBlockENS_9allocatorIS5_EEE21__on_zero_shared_weakEv, symObjAddr: 0x1250C, symBinAddr: 0x100048D1C, symSize: 0x4 }
  - { offset: 0x365F3E, size: 0x8, addend: 0x0, symName: __ZNSt3__120__shared_ptr_emplaceIN9Effekseer12InstancePoolINS1_13InstanceChunkEE13ReservedBlockENS_9allocatorIS5_EEE21__on_zero_shared_weakEv, symObjAddr: 0x1250C, symBinAddr: 0x100048D1C, symSize: 0x4 }
  - { offset: 0x365F70, size: 0x8, addend: 0x0, symName: __ZNSt3__120__shared_ptr_emplaceIN9Effekseer12InstancePoolINS1_13InstanceChunkEE13ReservedBlockENS_9allocatorIS5_EEE21__on_zero_shared_weakEv, symObjAddr: 0x1250C, symBinAddr: 0x100048D1C, symSize: 0x4 }
  - { offset: 0x366DA0, size: 0x8, addend: 0x0, symName: __ZN9Effekseer12InstancePoolINS_13InstanceGroupEE16AllocateNewBlockEi, symObjAddr: 0x12D48, symBinAddr: 0x100048D20, symSize: 0x244 }
  - { offset: 0x36760C, size: 0x8, addend: 0x0, symName: __ZNSt3__120__shared_ptr_emplaceIN9Effekseer12InstancePoolINS1_13InstanceGroupEE13ReservedBlockENS_9allocatorIS5_EEED1Ev, symObjAddr: 0x12F8C, symBinAddr: 0x100048F64, symSize: 0x10 }
  - { offset: 0x36762E, size: 0x8, addend: 0x0, symName: __ZNSt3__120__shared_ptr_emplaceIN9Effekseer12InstancePoolINS1_13InstanceGroupEE13ReservedBlockENS_9allocatorIS5_EEED1Ev, symObjAddr: 0x12F8C, symBinAddr: 0x100048F64, symSize: 0x10 }
  - { offset: 0x367664, size: 0x8, addend: 0x0, symName: __ZNSt3__120__shared_ptr_emplaceIN9Effekseer12InstancePoolINS1_13InstanceGroupEE13ReservedBlockENS_9allocatorIS5_EEED0Ev, symObjAddr: 0x12F9C, symBinAddr: 0x100048F74, symSize: 0x20 }
  - { offset: 0x36778C, size: 0x8, addend: 0x0, symName: __ZNSt3__120__shared_ptr_emplaceIN9Effekseer12InstancePoolINS1_13InstanceGroupEE13ReservedBlockENS_9allocatorIS5_EEE16__on_zero_sharedEv, symObjAddr: 0x12FBC, symBinAddr: 0x100048F94, symSize: 0xC4 }
  - { offset: 0x3679F1, size: 0x8, addend: 0x0, symName: __ZNSt3__120__shared_ptr_emplaceIN9Effekseer12InstancePoolINS1_13InstanceGroupEE13ReservedBlockENS_9allocatorIS5_EEE21__on_zero_shared_weakEv, symObjAddr: 0x13080, symBinAddr: 0x100049058, symSize: 0x4 }
  - { offset: 0x367A59, size: 0x8, addend: 0x0, symName: __ZNSt3__120__shared_ptr_emplaceIN9Effekseer12InstancePoolINS1_13InstanceGroupEE13ReservedBlockENS_9allocatorIS5_EEE21__on_zero_shared_weakEv, symObjAddr: 0x13080, symBinAddr: 0x100049058, symSize: 0x4 }
  - { offset: 0x367A8B, size: 0x8, addend: 0x0, symName: __ZNSt3__120__shared_ptr_emplaceIN9Effekseer12InstancePoolINS1_13InstanceGroupEE13ReservedBlockENS_9allocatorIS5_EEE21__on_zero_shared_weakEv, symObjAddr: 0x13080, symBinAddr: 0x100049058, symSize: 0x4 }
  - { offset: 0x367AAC, size: 0x8, addend: 0x0, symName: __ZNSt3__120__shared_ptr_emplaceIN9Effekseer12InstancePoolINS1_13InstanceGroupEE13ReservedBlockENS_9allocatorIS5_EEE21__on_zero_shared_weakEv, symObjAddr: 0x13080, symBinAddr: 0x100049058, symSize: 0x4 }
  - { offset: 0x367ACE, size: 0x8, addend: 0x0, symName: __ZNSt3__120__shared_ptr_emplaceIN9Effekseer12InstancePoolINS1_13InstanceGroupEE13ReservedBlockENS_9allocatorIS5_EEE21__on_zero_shared_weakEv, symObjAddr: 0x13080, symBinAddr: 0x100049058, symSize: 0x4 }
  - { offset: 0x367B00, size: 0x8, addend: 0x0, symName: __ZNSt3__120__shared_ptr_emplaceIN9Effekseer12InstancePoolINS1_13InstanceGroupEE13ReservedBlockENS_9allocatorIS5_EEE21__on_zero_shared_weakEv, symObjAddr: 0x13080, symBinAddr: 0x100049058, symSize: 0x4 }
  - { offset: 0x368951, size: 0x8, addend: 0x0, symName: __ZNSt3__16vectorIN9Effekseer12WorkerThreadENS1_15CustomAllocatorIS2_EEE8__appendEm, symObjAddr: 0x138BC, symBinAddr: 0x10004905C, symSize: 0x260 }
  - { offset: 0x36901D, size: 0x8, addend: 0x0, symName: __ZNSt3__114__split_bufferIN9Effekseer12WorkerThreadERNS1_15CustomAllocatorIS2_EEED2Ev, symObjAddr: 0x13B28, symBinAddr: 0x1000492BC, symSize: 0xF0 }
  - { offset: 0x369255, size: 0x8, addend: 0x0, symName: __ZNSt3__114__split_bufferIN9Effekseer12WorkerThreadERNS1_15CustomAllocatorIS2_EEED2Ev, symObjAddr: 0x13B28, symBinAddr: 0x1000492BC, symSize: 0xF0 }
  - { offset: 0x3692E7, size: 0x8, addend: 0x0, symName: '__ZNSt3__110__function6__funcIZN9Effekseer18ManagerImplemented6UpdateERKNS2_7Manager15UpdateParameterEE3$_0NS_9allocatorIS8_EEFvvEED1Ev', symObjAddr: 0x13EE0, symBinAddr: 0x1000493AC, symSize: 0x4 }
  - { offset: 0x369313, size: 0x8, addend: 0x0, symName: '__ZNSt3__110__function6__funcIZN9Effekseer18ManagerImplemented6UpdateERKNS2_7Manager15UpdateParameterEE3$_0NS_9allocatorIS8_EEFvvEED0Ev', symObjAddr: 0x13EE4, symBinAddr: 0x1000493B0, symSize: 0x4 }
  - { offset: 0x369403, size: 0x8, addend: 0x0, symName: '__ZNKSt3__110__function6__funcIZN9Effekseer18ManagerImplemented6UpdateERKNS2_7Manager15UpdateParameterEE3$_0NS_9allocatorIS8_EEFvvEE7__cloneEv', symObjAddr: 0x13EE8, symBinAddr: 0x1000493B4, symSize: 0x40 }
  - { offset: 0x369610, size: 0x8, addend: 0x0, symName: '__ZNKSt3__110__function6__funcIZN9Effekseer18ManagerImplemented6UpdateERKNS2_7Manager15UpdateParameterEE3$_0NS_9allocatorIS8_EEFvvEE7__cloneEPNS0_6__baseISB_EE', symObjAddr: 0x13F28, symBinAddr: 0x1000493F4, symSize: 0x20 }
  - { offset: 0x369645, size: 0x8, addend: 0x0, symName: '__ZNKSt3__110__function6__funcIZN9Effekseer18ManagerImplemented6UpdateERKNS2_7Manager15UpdateParameterEE3$_0NS_9allocatorIS8_EEFvvEE7__cloneEPNS0_6__baseISB_EE', symObjAddr: 0x13F28, symBinAddr: 0x1000493F4, symSize: 0x20 }
  - { offset: 0x369673, size: 0x8, addend: 0x0, symName: '__ZNKSt3__110__function6__funcIZN9Effekseer18ManagerImplemented6UpdateERKNS2_7Manager15UpdateParameterEE3$_0NS_9allocatorIS8_EEFvvEE7__cloneEPNS0_6__baseISB_EE', symObjAddr: 0x13F28, symBinAddr: 0x1000493F4, symSize: 0x20 }
  - { offset: 0x369702, size: 0x8, addend: 0x0, symName: '__ZNSt3__110__function6__funcIZN9Effekseer18ManagerImplemented6UpdateERKNS2_7Manager15UpdateParameterEE3$_0NS_9allocatorIS8_EEFvvEE7destroyEv', symObjAddr: 0x13F48, symBinAddr: 0x100049414, symSize: 0x4 }
  - { offset: 0x369756, size: 0x8, addend: 0x0, symName: '__ZNSt3__110__function6__funcIZN9Effekseer18ManagerImplemented6UpdateERKNS2_7Manager15UpdateParameterEE3$_0NS_9allocatorIS8_EEFvvEE18destroy_deallocateEv', symObjAddr: 0x13F4C, symBinAddr: 0x100049418, symSize: 0x4 }
  - { offset: 0x369789, size: 0x8, addend: 0x0, symName: '__ZNSt3__110__function6__funcIZN9Effekseer18ManagerImplemented6UpdateERKNS2_7Manager15UpdateParameterEE3$_0NS_9allocatorIS8_EEFvvEE18destroy_deallocateEv', symObjAddr: 0x13F4C, symBinAddr: 0x100049418, symSize: 0x4 }
  - { offset: 0x3697AB, size: 0x8, addend: 0x0, symName: '__ZNSt3__110__function6__funcIZN9Effekseer18ManagerImplemented6UpdateERKNS2_7Manager15UpdateParameterEE3$_0NS_9allocatorIS8_EEFvvEE18destroy_deallocateEv', symObjAddr: 0x13F4C, symBinAddr: 0x100049418, symSize: 0x4 }
  - { offset: 0x3697DD, size: 0x8, addend: 0x0, symName: '__ZNSt3__110__function6__funcIZN9Effekseer18ManagerImplemented6UpdateERKNS2_7Manager15UpdateParameterEE3$_0NS_9allocatorIS8_EEFvvEE18destroy_deallocateEv', symObjAddr: 0x13F4C, symBinAddr: 0x100049418, symSize: 0x4 }
  - { offset: 0x36985A, size: 0x8, addend: 0x0, symName: '__ZNSt3__110__function6__funcIZN9Effekseer18ManagerImplemented6UpdateERKNS2_7Manager15UpdateParameterEE3$_0NS_9allocatorIS8_EEFvvEEclEv', symObjAddr: 0x13F50, symBinAddr: 0x10004941C, symSize: 0x14 }
  - { offset: 0x369926, size: 0x8, addend: 0x0, symName: '__ZNKSt3__110__function6__funcIZN9Effekseer18ManagerImplemented6UpdateERKNS2_7Manager15UpdateParameterEE3$_0NS_9allocatorIS8_EEFvvEE6targetERKSt9type_info', symObjAddr: 0x13F64, symBinAddr: 0x100049430, symSize: 0x64 }
  - { offset: 0x3699D9, size: 0x8, addend: 0x0, symName: '__ZNKSt3__110__function6__funcIZN9Effekseer18ManagerImplemented6UpdateERKNS2_7Manager15UpdateParameterEE3$_0NS_9allocatorIS8_EEFvvEE11target_typeEv', symObjAddr: 0x13FC8, symBinAddr: 0x100049494, symSize: 0xC }
  - { offset: 0x3699FC, size: 0x8, addend: 0x0, symName: '__ZNSt3__110__function6__funcIZN9Effekseer18ManagerImplemented8DoUpdateERKNS2_7Manager15UpdateParameterEiE3$_0NS_9allocatorIS8_EEFvvEED1Ev', symObjAddr: 0x13FD4, symBinAddr: 0x1000494A0, symSize: 0x4 }
  - { offset: 0x369A28, size: 0x8, addend: 0x0, symName: '__ZNSt3__110__function6__funcIZN9Effekseer18ManagerImplemented8DoUpdateERKNS2_7Manager15UpdateParameterEiE3$_0NS_9allocatorIS8_EEFvvEED0Ev', symObjAddr: 0x13FD8, symBinAddr: 0x1000494A4, symSize: 0x4 }
  - { offset: 0x369B18, size: 0x8, addend: 0x0, symName: '__ZNKSt3__110__function6__funcIZN9Effekseer18ManagerImplemented8DoUpdateERKNS2_7Manager15UpdateParameterEiE3$_0NS_9allocatorIS8_EEFvvEE7__cloneEv', symObjAddr: 0x13FDC, symBinAddr: 0x1000494A8, symSize: 0x40 }
  - { offset: 0x369D25, size: 0x8, addend: 0x0, symName: '__ZNKSt3__110__function6__funcIZN9Effekseer18ManagerImplemented8DoUpdateERKNS2_7Manager15UpdateParameterEiE3$_0NS_9allocatorIS8_EEFvvEE7__cloneEPNS0_6__baseISB_EE', symObjAddr: 0x1401C, symBinAddr: 0x1000494E8, symSize: 0x20 }
  - { offset: 0x369D5A, size: 0x8, addend: 0x0, symName: '__ZNKSt3__110__function6__funcIZN9Effekseer18ManagerImplemented8DoUpdateERKNS2_7Manager15UpdateParameterEiE3$_0NS_9allocatorIS8_EEFvvEE7__cloneEPNS0_6__baseISB_EE', symObjAddr: 0x1401C, symBinAddr: 0x1000494E8, symSize: 0x20 }
  - { offset: 0x369D88, size: 0x8, addend: 0x0, symName: '__ZNKSt3__110__function6__funcIZN9Effekseer18ManagerImplemented8DoUpdateERKNS2_7Manager15UpdateParameterEiE3$_0NS_9allocatorIS8_EEFvvEE7__cloneEPNS0_6__baseISB_EE', symObjAddr: 0x1401C, symBinAddr: 0x1000494E8, symSize: 0x20 }
  - { offset: 0x369E17, size: 0x8, addend: 0x0, symName: '__ZNSt3__110__function6__funcIZN9Effekseer18ManagerImplemented8DoUpdateERKNS2_7Manager15UpdateParameterEiE3$_0NS_9allocatorIS8_EEFvvEE7destroyEv', symObjAddr: 0x1403C, symBinAddr: 0x100049508, symSize: 0x4 }
  - { offset: 0x369E6B, size: 0x8, addend: 0x0, symName: '__ZNSt3__110__function6__funcIZN9Effekseer18ManagerImplemented8DoUpdateERKNS2_7Manager15UpdateParameterEiE3$_0NS_9allocatorIS8_EEFvvEE18destroy_deallocateEv', symObjAddr: 0x14040, symBinAddr: 0x10004950C, symSize: 0x4 }
  - { offset: 0x369E9E, size: 0x8, addend: 0x0, symName: '__ZNSt3__110__function6__funcIZN9Effekseer18ManagerImplemented8DoUpdateERKNS2_7Manager15UpdateParameterEiE3$_0NS_9allocatorIS8_EEFvvEE18destroy_deallocateEv', symObjAddr: 0x14040, symBinAddr: 0x10004950C, symSize: 0x4 }
  - { offset: 0x369EC0, size: 0x8, addend: 0x0, symName: '__ZNSt3__110__function6__funcIZN9Effekseer18ManagerImplemented8DoUpdateERKNS2_7Manager15UpdateParameterEiE3$_0NS_9allocatorIS8_EEFvvEE18destroy_deallocateEv', symObjAddr: 0x14040, symBinAddr: 0x10004950C, symSize: 0x4 }
  - { offset: 0x369EF2, size: 0x8, addend: 0x0, symName: '__ZNSt3__110__function6__funcIZN9Effekseer18ManagerImplemented8DoUpdateERKNS2_7Manager15UpdateParameterEiE3$_0NS_9allocatorIS8_EEFvvEE18destroy_deallocateEv', symObjAddr: 0x14040, symBinAddr: 0x10004950C, symSize: 0x4 }
  - { offset: 0x369F7D, size: 0x8, addend: 0x0, symName: '__ZNSt3__110__function6__funcIZN9Effekseer18ManagerImplemented8DoUpdateERKNS2_7Manager15UpdateParameterEiE3$_0NS_9allocatorIS8_EEFvvEEclEv', symObjAddr: 0x14044, symBinAddr: 0x100049510, symSize: 0x58 }
  - { offset: 0x36A06A, size: 0x8, addend: 0x0, symName: '__ZNKSt3__110__function6__funcIZN9Effekseer18ManagerImplemented8DoUpdateERKNS2_7Manager15UpdateParameterEiE3$_0NS_9allocatorIS8_EEFvvEE6targetERKSt9type_info', symObjAddr: 0x1409C, symBinAddr: 0x100049568, symSize: 0x64 }
  - { offset: 0x36A11D, size: 0x8, addend: 0x0, symName: '__ZNKSt3__110__function6__funcIZN9Effekseer18ManagerImplemented8DoUpdateERKNS2_7Manager15UpdateParameterEiE3$_0NS_9allocatorIS8_EEFvvEE11target_typeEv', symObjAddr: 0x14100, symBinAddr: 0x1000495CC, symSize: 0xC }
  - { offset: 0x36A3DD, size: 0x8, addend: 0x0, symName: __ZN9Effekseer18ManagerImplemented20UpdateHandleInternalERNS0_7DrawSetE.cold.1, symObjAddr: 0x14238, symBinAddr: 0x10034D2C8, symSize: 0x28 }
  - { offset: 0x36A457, size: 0x8, addend: 0x0, symName: __GLOBAL__sub_I_Effekseer.Manager.cpp, symObjAddr: 0x143F0, symBinAddr: 0x1000495E0, symSize: 0x20 }
  - { offset: 0x36A46F, size: 0x8, addend: 0x0, symName: __GLOBAL__sub_I_Effekseer.Manager.cpp, symObjAddr: 0x143F0, symBinAddr: 0x1000495E0, symSize: 0x20 }
  - { offset: 0x36A4DC, size: 0x8, addend: 0x0, symName: _OUTLINED_FUNCTION_0, symObjAddr: 0x14344, symBinAddr: 0x1000495D8, symSize: 0x8 }
  - { offset: 0x36C6E8, size: 0x8, addend: 0x0, symName: __ZN9Effekseer12MaterialFile4LoadEPKhi, symObjAddr: 0x0, symBinAddr: 0x100049600, symSize: 0xA80 }
  - { offset: 0x376F66, size: 0x8, addend: 0x0, symName: __ZN9Effekseer12MaterialFile4LoadEPKhi, symObjAddr: 0x0, symBinAddr: 0x100049600, symSize: 0xA80 }
  - { offset: 0x37A215, size: 0x8, addend: 0x0, symName: '__ZZN9Effekseer12MaterialFile4LoadEPKhiENK3$_0clERNSt3__16vectorINS0_17GradientParameterENS4_9allocatorIS6_EEEE', symObjAddr: 0xA80, symBinAddr: 0x10004A080, symSize: 0x374 }
  - { offset: 0x37A24E, size: 0x8, addend: 0x0, symName: __ZNSt3__16vectorIN9Effekseer12MaterialFile7TextureENS_9allocatorIS3_EEE24__emplace_back_slow_pathIJRKS3_EEEPS3_DpOT_, symObjAddr: 0x16D8, symBinAddr: 0x10004ACA8, symSize: 0x1A0 }
  - { offset: 0x37A913, size: 0x8, addend: 0x0, symName: __ZNSt3__112basic_stringIcNS_11char_traitsIcEENS_9allocatorIcEEE25__init_copy_ctor_externalEPKcm, symObjAddr: 0x14BC, symBinAddr: 0x10004AABC, symSize: 0x78 }
  - { offset: 0x37AAE4, size: 0x8, addend: 0x0, symName: __ZNSt3__16vectorIN9Effekseer12MaterialFile7UniformENS_9allocatorIS3_EEE24__emplace_back_slow_pathIJRKS3_EEEPS3_DpOT_, symObjAddr: 0x1884, symBinAddr: 0x10004AE48, symSize: 0x168 }
  - { offset: 0x37B1BD, size: 0x8, addend: 0x0, symName: '__ZZN9Effekseer12MaterialFile4LoadEPKhiENK3$_0clERNSt3__16vectorINS0_17GradientParameterENS4_9allocatorIS6_EEEE', symObjAddr: 0xA80, symBinAddr: 0x10004A080, symSize: 0x374 }
  - { offset: 0x37BDBE, size: 0x8, addend: 0x0, symName: __ZNK9Effekseer12MaterialFile15GetShadingModelEv, symObjAddr: 0xDF4, symBinAddr: 0x10004A3F4, symSize: 0x8 }
  - { offset: 0x37BDFA, size: 0x8, addend: 0x0, symName: __ZNSt3__16vectorIN9Effekseer12MaterialFile7TextureENS_9allocatorIS3_EEE24__emplace_back_slow_pathIJRKS3_EEEPS3_DpOT_, symObjAddr: 0x16D8, symBinAddr: 0x10004ACA8, symSize: 0x1A0 }
  - { offset: 0x37C0B4, size: 0x8, addend: 0x0, symName: __ZNSt3__16vectorIN9Effekseer12MaterialFile17GradientParameterENS_9allocatorIS3_EEE24__emplace_back_slow_pathIJRS3_EEEPS3_DpOT_, symObjAddr: 0x1274, symBinAddr: 0x10004A874, symSize: 0x248 }
  - { offset: 0x37C769, size: 0x8, addend: 0x0, symName: __ZNSt3__112basic_stringIcNS_11char_traitsIcEENS_9allocatorIcEEE25__init_copy_ctor_externalEPKcm, symObjAddr: 0x14BC, symBinAddr: 0x10004AABC, symSize: 0x78 }
  - { offset: 0x37C781, size: 0x8, addend: 0x0, symName: __ZNK9Effekseer12MaterialFile15GetShadingModelEv, symObjAddr: 0xDF4, symBinAddr: 0x10004A3F4, symSize: 0x8 }
  - { offset: 0x37C7AA, size: 0x8, addend: 0x0, symName: __ZN9Effekseer12MaterialFile15SetShadingModelENS_16ShadingModelTypeE, symObjAddr: 0xDFC, symBinAddr: 0x10004A3FC, symSize: 0x8 }
  - { offset: 0x37C7E0, size: 0x8, addend: 0x0, symName: __ZNK9Effekseer12MaterialFile17GetIsSimpleVertexEv, symObjAddr: 0xE04, symBinAddr: 0x10004A404, symSize: 0x8 }
  - { offset: 0x37C80A, size: 0x8, addend: 0x0, symName: __ZN9Effekseer12MaterialFile17SetIsSimpleVertexEb, symObjAddr: 0xE0C, symBinAddr: 0x10004A40C, symSize: 0x8 }
  - { offset: 0x37C83E, size: 0x8, addend: 0x0, symName: __ZNK9Effekseer12MaterialFile16GetHasRefractionEv, symObjAddr: 0xE14, symBinAddr: 0x10004A414, symSize: 0x8 }
  - { offset: 0x37C868, size: 0x8, addend: 0x0, symName: __ZN9Effekseer12MaterialFile16SetHasRefractionEb, symObjAddr: 0xE1C, symBinAddr: 0x10004A41C, symSize: 0x8 }
  - { offset: 0x37C8B2, size: 0x8, addend: 0x0, symName: __ZNK9Effekseer12MaterialFile14GetGenericCodeEv, symObjAddr: 0xE24, symBinAddr: 0x10004A424, symSize: 0x1C }
  - { offset: 0x37C97D, size: 0x8, addend: 0x0, symName: __ZN9Effekseer12MaterialFile14SetGenericCodeEPKc, symObjAddr: 0xE40, symBinAddr: 0x10004A440, symSize: 0x8 }
  - { offset: 0x37C9D2, size: 0x8, addend: 0x0, symName: __ZNK9Effekseer12MaterialFile7GetGUIDEv, symObjAddr: 0xE48, symBinAddr: 0x10004A448, symSize: 0x8 }
  - { offset: 0x37C9FC, size: 0x8, addend: 0x0, symName: __ZN9Effekseer12MaterialFile7SetGUIDEy, symObjAddr: 0xE50, symBinAddr: 0x10004A450, symSize: 0x8 }
  - { offset: 0x37CA6F, size: 0x8, addend: 0x0, symName: __ZNK9Effekseer12MaterialFile19GetTextureColorTypeEi, symObjAddr: 0xE58, symBinAddr: 0x10004A458, symSize: 0x40 }
  - { offset: 0x37CAEB, size: 0x8, addend: 0x0, symName: __ZNK9Effekseer12MaterialFile14GetTextureWrapEi, symObjAddr: 0xE98, symBinAddr: 0x10004A498, symSize: 0x40 }
  - { offset: 0x37CB09, size: 0x8, addend: 0x0, symName: __ZNSt3__16vectorIN9Effekseer12MaterialFile7TextureENS_9allocatorIS3_EEE8__appendEm, symObjAddr: 0x1A04, symBinAddr: 0x10004AFB0, symSize: 0x1E0 }
  - { offset: 0x37CB14, size: 0x8, addend: 0x0, symName: __ZNK9Effekseer12MaterialFile14GetTextureWrapEi, symObjAddr: 0xE98, symBinAddr: 0x10004A498, symSize: 0x40 }
  - { offset: 0x37CB90, size: 0x8, addend: 0x0, symName: __ZN9Effekseer12MaterialFile14SetTextureWrapEiNS_15TextureWrapTypeE, symObjAddr: 0xED8, symBinAddr: 0x10004A4D8, symSize: 0x40 }
  - { offset: 0x37CBBD, size: 0x8, addend: 0x0, symName: __ZN9Effekseer12MaterialFile14SetTextureWrapEiNS_15TextureWrapTypeE, symObjAddr: 0xED8, symBinAddr: 0x10004A4D8, symSize: 0x40 }
  - { offset: 0x37CC49, size: 0x8, addend: 0x0, symName: __ZNK9Effekseer12MaterialFile15GetTextureIndexEi, symObjAddr: 0xF18, symBinAddr: 0x10004A518, symSize: 0x40 }
  - { offset: 0x37CC54, size: 0x8, addend: 0x0, symName: __ZNK9Effekseer12MaterialFile15GetTextureIndexEi, symObjAddr: 0xF18, symBinAddr: 0x10004A518, symSize: 0x40 }
  - { offset: 0x37CCD0, size: 0x8, addend: 0x0, symName: __ZN9Effekseer12MaterialFile15SetTextureIndexEii, symObjAddr: 0xF58, symBinAddr: 0x10004A558, symSize: 0x40 }
  - { offset: 0x37CCDB, size: 0x8, addend: 0x0, symName: __ZN9Effekseer12MaterialFile15SetTextureIndexEii, symObjAddr: 0xF58, symBinAddr: 0x10004A558, symSize: 0x40 }
  - { offset: 0x37CD67, size: 0x8, addend: 0x0, symName: __ZNK9Effekseer12MaterialFile14GetTextureNameEi, symObjAddr: 0xF98, symBinAddr: 0x10004A598, symSize: 0x4C }
  - { offset: 0x37CD72, size: 0x8, addend: 0x0, symName: __ZNK9Effekseer12MaterialFile14GetTextureNameEi, symObjAddr: 0xF98, symBinAddr: 0x10004A598, symSize: 0x4C }
  - { offset: 0x37CE6D, size: 0x8, addend: 0x0, symName: __ZN9Effekseer12MaterialFile14SetTextureNameEiPKc, symObjAddr: 0xFE4, symBinAddr: 0x10004A5E4, symSize: 0x40 }
  - { offset: 0x37CE78, size: 0x8, addend: 0x0, symName: __ZN9Effekseer12MaterialFile14SetTextureNameEiPKc, symObjAddr: 0xFE4, symBinAddr: 0x10004A5E4, symSize: 0x40 }
  - { offset: 0x37CF26, size: 0x8, addend: 0x0, symName: __ZNK9Effekseer12MaterialFile15GetTextureCountEv, symObjAddr: 0x1024, symBinAddr: 0x10004A624, symSize: 0x1C }
  - { offset: 0x37CF31, size: 0x8, addend: 0x0, symName: __ZNK9Effekseer12MaterialFile15GetTextureCountEv, symObjAddr: 0x1024, symBinAddr: 0x10004A624, symSize: 0x1C }
  - { offset: 0x37CF5D, size: 0x8, addend: 0x0, symName: __ZNK9Effekseer12MaterialFile15GetTextureCountEv, symObjAddr: 0x1024, symBinAddr: 0x10004A624, symSize: 0x1C }
  - { offset: 0x37D058, size: 0x8, addend: 0x0, symName: __ZN9Effekseer12MaterialFile15SetTextureCountEi, symObjAddr: 0x1040, symBinAddr: 0x10004A640, symSize: 0x88 }
  - { offset: 0x37D267, size: 0x8, addend: 0x0, symName: __ZNSt3__16vectorIN9Effekseer12MaterialFile7TextureENS_9allocatorIS3_EEE8__appendEm, symObjAddr: 0x1A04, symBinAddr: 0x10004AFB0, symSize: 0x1E0 }
  - { offset: 0x37D9FE, size: 0x8, addend: 0x0, symName: __ZNK9Effekseer12MaterialFile15GetUniformIndexEi, symObjAddr: 0x10C8, symBinAddr: 0x10004A6C8, symSize: 0x2C }
  - { offset: 0x37DA7A, size: 0x8, addend: 0x0, symName: __ZN9Effekseer12MaterialFile15SetUniformIndexEii, symObjAddr: 0x10F4, symBinAddr: 0x10004A6F4, symSize: 0x2C }
  - { offset: 0x37DA98, size: 0x8, addend: 0x0, symName: __ZNSt3__16vectorIN9Effekseer12MaterialFile7UniformENS_9allocatorIS3_EEE8__appendEm, symObjAddr: 0x1BF0, symBinAddr: 0x10004B190, symSize: 0x178 }
  - { offset: 0x37DAC5, size: 0x8, addend: 0x0, symName: __ZN9Effekseer12MaterialFile15SetUniformIndexEii, symObjAddr: 0x10F4, symBinAddr: 0x10004A6F4, symSize: 0x2C }
  - { offset: 0x37DB51, size: 0x8, addend: 0x0, symName: __ZNK9Effekseer12MaterialFile14GetUniformNameEi, symObjAddr: 0x1120, symBinAddr: 0x10004A720, symSize: 0x38 }
  - { offset: 0x37DB5C, size: 0x8, addend: 0x0, symName: __ZNK9Effekseer12MaterialFile14GetUniformNameEi, symObjAddr: 0x1120, symBinAddr: 0x10004A720, symSize: 0x38 }
  - { offset: 0x37DC57, size: 0x8, addend: 0x0, symName: __ZN9Effekseer12MaterialFile14SetUniformNameEiPKc, symObjAddr: 0x1158, symBinAddr: 0x10004A758, symSize: 0x2C }
  - { offset: 0x37DC62, size: 0x8, addend: 0x0, symName: __ZN9Effekseer12MaterialFile14SetUniformNameEiPKc, symObjAddr: 0x1158, symBinAddr: 0x10004A758, symSize: 0x2C }
  - { offset: 0x37DD10, size: 0x8, addend: 0x0, symName: __ZNK9Effekseer12MaterialFile15GetUniformCountEv, symObjAddr: 0x1184, symBinAddr: 0x10004A784, symSize: 0x10 }
  - { offset: 0x37DD1B, size: 0x8, addend: 0x0, symName: __ZNK9Effekseer12MaterialFile15GetUniformCountEv, symObjAddr: 0x1184, symBinAddr: 0x10004A784, symSize: 0x10 }
  - { offset: 0x37DD47, size: 0x8, addend: 0x0, symName: __ZNK9Effekseer12MaterialFile15GetUniformCountEv, symObjAddr: 0x1184, symBinAddr: 0x10004A784, symSize: 0x10 }
  - { offset: 0x37DE42, size: 0x8, addend: 0x0, symName: __ZN9Effekseer12MaterialFile15SetUniformCountEi, symObjAddr: 0x1194, symBinAddr: 0x10004A794, symSize: 0x78 }
  - { offset: 0x37E051, size: 0x8, addend: 0x0, symName: __ZNSt3__16vectorIN9Effekseer12MaterialFile7UniformENS_9allocatorIS3_EEE8__appendEm, symObjAddr: 0x1BF0, symBinAddr: 0x10004B190, symSize: 0x178 }
  - { offset: 0x37E7E5, size: 0x8, addend: 0x0, symName: __ZNK9Effekseer12MaterialFile19GetCustomData1CountEv, symObjAddr: 0x120C, symBinAddr: 0x10004A80C, symSize: 0x20 }
  - { offset: 0x37E885, size: 0x8, addend: 0x0, symName: __ZN9Effekseer12MaterialFile19SetCustomData1CountEi, symObjAddr: 0x122C, symBinAddr: 0x10004A82C, symSize: 0x8 }
  - { offset: 0x37E8BB, size: 0x8, addend: 0x0, symName: __ZNK9Effekseer12MaterialFile19GetCustomData2CountEv, symObjAddr: 0x1234, symBinAddr: 0x10004A834, symSize: 0x20 }
  - { offset: 0x37E95B, size: 0x8, addend: 0x0, symName: __ZN9Effekseer12MaterialFile19SetCustomData2CountEi, symObjAddr: 0x1254, symBinAddr: 0x10004A854, symSize: 0x8 }
  - { offset: 0x37E991, size: 0x8, addend: 0x0, symName: __ZN9Effekseer12MaterialFileD1Ev, symObjAddr: 0x125C, symBinAddr: 0x10004A85C, symSize: 0x4 }
  - { offset: 0x37E9B3, size: 0x8, addend: 0x0, symName: __ZN9Effekseer12MaterialFileD1Ev, symObjAddr: 0x125C, symBinAddr: 0x10004A85C, symSize: 0x4 }
  - { offset: 0x37E9C6, size: 0x8, addend: 0x0, symName: __ZN9Effekseer12MaterialFileD2Ev, symObjAddr: 0x1558, symBinAddr: 0x10004AB34, symSize: 0x174 }
  - { offset: 0x37F673, size: 0x8, addend: 0x0, symName: __ZN9Effekseer12MaterialFileD0Ev, symObjAddr: 0x1260, symBinAddr: 0x10004A860, symSize: 0x14 }
  - { offset: 0x37FA35, size: 0x8, addend: 0x0, symName: __ZN9Effekseer12MaterialFileD2Ev, symObjAddr: 0x1558, symBinAddr: 0x10004AB34, symSize: 0x174 }
  - { offset: 0x37FF75, size: 0x8, addend: 0x0, symName: __ZNSt3__16vectorIN9Effekseer12MaterialFile7UniformENS_9allocatorIS3_EEE24__emplace_back_slow_pathIJRKS3_EEEPS3_DpOT_, symObjAddr: 0x1884, symBinAddr: 0x10004AE48, symSize: 0x168 }
  - { offset: 0x382319, size: 0x8, addend: 0x0, symName: __ZN9Effekseer8Matrix439IndentityEv, symObjAddr: 0x0, symBinAddr: 0x10004B308, symSize: 0x24 }
  - { offset: 0x3831B5, size: 0x8, addend: 0x0, symName: __ZN9Effekseer8Matrix439IndentityEv, symObjAddr: 0x0, symBinAddr: 0x10004B308, symSize: 0x24 }
  - { offset: 0x3831DA, size: 0x8, addend: 0x0, symName: __ZN9Effekseer8Matrix4311RotationZXYEfff, symObjAddr: 0x7A4, symBinAddr: 0x10004B32C, symSize: 0x3B4 }
  - { offset: 0x3834C5, size: 0x8, addend: 0x0, symName: __ZN9Effekseer8Matrix4312RotationAxisERKNS_8Vector3DEf, symObjAddr: 0xB58, symBinAddr: 0x10004B6E0, symSize: 0xF4 }
  - { offset: 0x383559, size: 0x8, addend: 0x0, symName: __ZNK9Effekseer8Matrix436GetSRTERNS_8Vector3DERS0_S2_, symObjAddr: 0xD4C, symBinAddr: 0x10004B7D4, symSize: 0x78 }
  - { offset: 0x38645F, size: 0x8, addend: 0x0, symName: __ZN9Effekseer8Matrix44C1Ev, symObjAddr: 0x58, symBinAddr: 0x10004B84C, symSize: 0x2C }
  - { offset: 0x38648C, size: 0x8, addend: 0x0, symName: __ZN9Effekseer8Matrix44C1Ev, symObjAddr: 0x58, symBinAddr: 0x10004B84C, symSize: 0x2C }
  - { offset: 0x3864A7, size: 0x8, addend: 0x0, symName: __ZN9Effekseer8Matrix44C1Ev, symObjAddr: 0x58, symBinAddr: 0x10004B84C, symSize: 0x2C }
  - { offset: 0x3864C2, size: 0x8, addend: 0x0, symName: __ZN9Effekseer8Matrix448LookAtRHERKNS_8Vector3DES3_S3_, symObjAddr: 0xB8, symBinAddr: 0x10004B878, symSize: 0xF8 }
  - { offset: 0x386545, size: 0x8, addend: 0x0, symName: __ZN9Effekseer8Matrix448LookAtLHERKNS_8Vector3DES3_S3_, symObjAddr: 0x1B0, symBinAddr: 0x10004B970, symSize: 0x100 }
  - { offset: 0x3865C8, size: 0x8, addend: 0x0, symName: __ZN9Effekseer8Matrix447InverseERS0_RKS0_, symObjAddr: 0xBF0, symBinAddr: 0x10004BA70, symSize: 0x228 }
  - { offset: 0x38EE4D, size: 0x8, addend: 0x0, symName: __ZNSt3__16vectorIN9Effekseer5Model13InternalModelENS1_15CustomAllocatorIS3_EEE16__destroy_vectorclB8nn200100Ev, symObjAddr: 0x1C80, symBinAddr: 0x10004D610, symSize: 0xFC }
  - { offset: 0x38F48A, size: 0x8, addend: 0x0, symName: __ZNSt3__134__uninitialized_allocator_relocateB8nn200100IN9Effekseer15CustomAllocatorINS1_5Model13InternalModelEEEPS4_EEvRT_T0_S9_S9_, symObjAddr: 0x2154, symBinAddr: 0x10004DAD8, symSize: 0x110 }
  - { offset: 0x38F4E4, size: 0x8, addend: 0x0, symName: __ZNSt3__134__uninitialized_allocator_relocateB8nn200100IN9Effekseer15CustomAllocatorINS1_5Model13InternalModelEEEPS4_EEvRT_T0_S9_S9_, symObjAddr: 0x2154, symBinAddr: 0x10004DAD8, symSize: 0x110 }
  - { offset: 0x391ED4, size: 0x8, addend: 0x0, symName: __ZNSt3__16vectorIN9Effekseer5Model13InternalModelENS1_15CustomAllocatorIS3_EEE8__appendEm, symObjAddr: 0x1F04, symBinAddr: 0x10004D894, symSize: 0x244 }
  - { offset: 0x3923A9, size: 0x8, addend: 0x0, symName: __ZNSt3__16vectorIN9Effekseer5Model6VertexENS1_15CustomAllocatorIS3_EEE18__assign_with_sizeB8nn200100IPS3_S8_EEvT_T0_l, symObjAddr: 0x2354, symBinAddr: 0x10004DCD8, symSize: 0x23C }
  - { offset: 0x392B92, size: 0x8, addend: 0x0, symName: __ZNSt3__16vectorIN9Effekseer5Model4FaceENS1_15CustomAllocatorIS3_EEE18__assign_with_sizeB8nn200100IPS3_S8_EEvT_T0_l, symObjAddr: 0x259C, symBinAddr: 0x10004DF14, symSize: 0x23C }
  - { offset: 0x3933AC, size: 0x8, addend: 0x0, symName: __ZN9Effekseer5ModelC1ERKNSt3__16vectorINS0_6VertexENS_15CustomAllocatorIS3_EEEERKNS2_INS0_4FaceENS4_IS9_EEEE, symObjAddr: 0xC0, symBinAddr: 0x10004BC98, symSize: 0xC0 }
  - { offset: 0x3938FF, size: 0x8, addend: 0x0, symName: __ZN9Effekseer5ModelC2EPKvi, symObjAddr: 0x180, symBinAddr: 0x10004BD58, symSize: 0x298 }
  - { offset: 0x393DFB, size: 0x8, addend: 0x0, symName: __ZNSt3__16vectorIN9Effekseer5Model4FaceENS1_15CustomAllocatorIS3_EEE8__appendEm, symObjAddr: 0x2A2C, symBinAddr: 0x10004E398, symSize: 0x248 }
  - { offset: 0x39434F, size: 0x8, addend: 0x0, symName: __ZNSt3__16vectorIN9Effekseer5Model6VertexENS1_15CustomAllocatorIS3_EEE8__appendEm, symObjAddr: 0x27E4, symBinAddr: 0x10004E150, symSize: 0x248 }
  - { offset: 0x394940, size: 0x8, addend: 0x0, symName: __ZNSt3__16vectorIN9Effekseer5Model4FaceENS1_15CustomAllocatorIS3_EEE8__appendEm, symObjAddr: 0x2A2C, symBinAddr: 0x10004E398, symSize: 0x248 }
  - { offset: 0x39494B, size: 0x8, addend: 0x0, symName: __ZN9Effekseer5ModelC1EPKvi, symObjAddr: 0x418, symBinAddr: 0x10004BFF0, symSize: 0x4 }
  - { offset: 0x394992, size: 0x8, addend: 0x0, symName: __ZN9Effekseer5ModelC1EPKvi, symObjAddr: 0x418, symBinAddr: 0x10004BFF0, symSize: 0x4 }
  - { offset: 0x394C0F, size: 0x8, addend: 0x0, symName: __ZN9Effekseer5ModelD2Ev, symObjAddr: 0x41C, symBinAddr: 0x10004BFF4, symSize: 0xF4 }
  - { offset: 0x394EB9, size: 0x8, addend: 0x0, symName: __ZN9Effekseer5ModelD1Ev, symObjAddr: 0x510, symBinAddr: 0x10004C0E8, symSize: 0x4 }
  - { offset: 0x394EC4, size: 0x8, addend: 0x0, symName: __ZNSt3__16vectorIN9Effekseer5Model13InternalModelENS1_15CustomAllocatorIS3_EEE16__destroy_vectorclB8nn200100Ev, symObjAddr: 0x1C80, symBinAddr: 0x10004D610, symSize: 0xFC }
  - { offset: 0x39510C, size: 0x8, addend: 0x0, symName: __ZN9Effekseer5Model13InternalModelD2Ev, symObjAddr: 0x1D7C, symBinAddr: 0x10004D70C, symSize: 0x188 }
  - { offset: 0x395117, size: 0x8, addend: 0x0, symName: __ZN9Effekseer5ModelD1Ev, symObjAddr: 0x510, symBinAddr: 0x10004C0E8, symSize: 0x4 }
  - { offset: 0x395139, size: 0x8, addend: 0x0, symName: __ZN9Effekseer5ModelD1Ev, symObjAddr: 0x510, symBinAddr: 0x10004C0E8, symSize: 0x4 }
  - { offset: 0x395168, size: 0x8, addend: 0x0, symName: __ZN9Effekseer5ModelD0Ev, symObjAddr: 0x514, symBinAddr: 0x10004C0EC, symSize: 0x14 }
  - { offset: 0x3951EB, size: 0x8, addend: 0x0, symName: __ZNK9Effekseer5Model15GetVertexBufferEi, symObjAddr: 0x528, symBinAddr: 0x10004C100, symSize: 0x14 }
  - { offset: 0x395223, size: 0x8, addend: 0x0, symName: __ZNK9Effekseer5Model15GetVertexBufferEi, symObjAddr: 0x528, symBinAddr: 0x10004C100, symSize: 0x14 }
  - { offset: 0x39523F, size: 0x8, addend: 0x0, symName: __ZNK9Effekseer5Model14GetIndexBufferEi, symObjAddr: 0x53C, symBinAddr: 0x10004C114, symSize: 0x14 }
  - { offset: 0x395277, size: 0x8, addend: 0x0, symName: __ZNK9Effekseer5Model14GetIndexBufferEi, symObjAddr: 0x53C, symBinAddr: 0x10004C114, symSize: 0x14 }
  - { offset: 0x395293, size: 0x8, addend: 0x0, symName: __ZNK9Effekseer5Model18GetWireIndexBufferEi, symObjAddr: 0x550, symBinAddr: 0x10004C128, symSize: 0x14 }
  - { offset: 0x3952CB, size: 0x8, addend: 0x0, symName: __ZNK9Effekseer5Model18GetWireIndexBufferEi, symObjAddr: 0x550, symBinAddr: 0x10004C128, symSize: 0x14 }
  - { offset: 0x3952FD, size: 0x8, addend: 0x0, symName: __ZNK9Effekseer5Model14GetVertexCountEi, symObjAddr: 0x578, symBinAddr: 0x10004C13C, symSize: 0x28 }
  - { offset: 0x395328, size: 0x8, addend: 0x0, symName: __ZNK9Effekseer5Model14GetVertexCountEi, symObjAddr: 0x578, symBinAddr: 0x10004C13C, symSize: 0x28 }
  - { offset: 0x395378, size: 0x8, addend: 0x0, symName: __ZNK9Effekseer5Model12GetFaceCountEi, symObjAddr: 0x5B4, symBinAddr: 0x10004C164, symSize: 0x28 }
  - { offset: 0x3953A3, size: 0x8, addend: 0x0, symName: __ZNK9Effekseer5Model12GetFaceCountEi, symObjAddr: 0x5B4, symBinAddr: 0x10004C164, symSize: 0x28 }
  - { offset: 0x3953F3, size: 0x8, addend: 0x0, symName: __ZNK9Effekseer5Model13GetFrameCountEv, symObjAddr: 0x5DC, symBinAddr: 0x10004C18C, symSize: 0x1C }
  - { offset: 0x395417, size: 0x8, addend: 0x0, symName: __ZNK9Effekseer5Model13GetFrameCountEv, symObjAddr: 0x5DC, symBinAddr: 0x10004C18C, symSize: 0x1C }
  - { offset: 0x39550C, size: 0x8, addend: 0x0, symName: __ZN9Effekseer5Model10GetEmitterEPNS_11IRandObjectEiNS_16CoordinateSystemEf, symObjAddr: 0x5F8, symBinAddr: 0x10004C1A8, symSize: 0x36C }
  - { offset: 0x3957FC, size: 0x8, addend: 0x0, symName: __ZN9Effekseer5Model20GetEmitterFromVertexEPNS_11IRandObjectEiNS_16CoordinateSystemEf, symObjAddr: 0x964, symBinAddr: 0x10004C514, symSize: 0x160 }
  - { offset: 0x395A21, size: 0x8, addend: 0x0, symName: __ZN9Effekseer5Model20GetEmitterFromVertexEiiNS_16CoordinateSystemEf, symObjAddr: 0xAC4, symBinAddr: 0x10004C674, symSize: 0x10C }
  - { offset: 0x395B88, size: 0x8, addend: 0x0, symName: __ZN9Effekseer5Model18GetEmitterFromFaceEPNS_11IRandObjectEiNS_16CoordinateSystemEf, symObjAddr: 0xBD0, symBinAddr: 0x10004C780, symSize: 0x2FC }
  - { offset: 0x395E7B, size: 0x8, addend: 0x0, symName: __ZN9Effekseer5Model18GetEmitterFromFaceEiiNS_16CoordinateSystemEf, symObjAddr: 0xECC, symBinAddr: 0x10004CA7C, symSize: 0x2C4 }
  - { offset: 0x3965A7, size: 0x8, addend: 0x0, symName: __ZN9Effekseer5Model16StoreBufferToGPUEPNS_7Backend14GraphicsDeviceEb, symObjAddr: 0x1190, symBinAddr: 0x10004CD40, symSize: 0x408 }
  - { offset: 0x397194, size: 0x8, addend: 0x0, symName: __ZNSt3__16vectorIN9Effekseer5Model4FaceENS1_15CustomAllocatorIS3_EEE18__assign_with_sizeB8nn200100IPS3_S8_EEvT_T0_l, symObjAddr: 0x259C, symBinAddr: 0x10004DF14, symSize: 0x23C }
  - { offset: 0x39719F, size: 0x8, addend: 0x0, symName: __ZNK9Effekseer5Model22GetIsBufferStoredOnGPUEv, symObjAddr: 0x1598, symBinAddr: 0x10004D148, symSize: 0x8 }
  - { offset: 0x39742E, size: 0x8, addend: 0x0, symName: __ZN9Effekseer5Model23GenerateWireIndexBufferEPNS_7Backend14GraphicsDeviceE, symObjAddr: 0x15A0, symBinAddr: 0x10004D150, symSize: 0x340 }
  - { offset: 0x397E64, size: 0x8, addend: 0x0, symName: __ZNSt3__16vectorIiN9Effekseer15CustomAllocatorIiEEE7reserveEm, symObjAddr: 0x18E0, symBinAddr: 0x10004D490, symSize: 0x178 }
  - { offset: 0x39829A, size: 0x8, addend: 0x0, symName: __ZNK9Effekseer5Model29GetIsWireIndexBufferGeneratedEv, symObjAddr: 0x1A58, symBinAddr: 0x10004D608, symSize: 0x8 }
  - { offset: 0x3982A5, size: 0x8, addend: 0x0, symName: __ZNSt3__16vectorIiN9Effekseer15CustomAllocatorIiEEE24__emplace_back_slow_pathIJRKiEEEPiDpOT_, symObjAddr: 0x2C80, symBinAddr: 0x10004E5E0, symSize: 0x1B0 }
  - { offset: 0x39889D, size: 0x8, addend: 0x0, symName: __ZNSt3__16vectorIiN9Effekseer15CustomAllocatorIiEEE24__emplace_back_slow_pathIJRKiEEEPiDpOT_, symObjAddr: 0x2C80, symBinAddr: 0x10004E5E0, symSize: 0x1B0 }
  - { offset: 0x3988A8, size: 0x8, addend: 0x0, symName: __ZNK9Effekseer5Model29GetIsWireIndexBufferGeneratedEv, symObjAddr: 0x1A58, symBinAddr: 0x10004D608, symSize: 0x8 }
  - { offset: 0x3989ED, size: 0x8, addend: 0x0, symName: __ZN9Effekseer5Model13InternalModelD2Ev, symObjAddr: 0x1D7C, symBinAddr: 0x10004D70C, symSize: 0x188 }
  - { offset: 0x39936E, size: 0x8, addend: 0x0, symName: __ZNSt3__114__split_bufferIN9Effekseer5Model13InternalModelERNS1_15CustomAllocatorIS3_EEED2Ev, symObjAddr: 0x2264, symBinAddr: 0x10004DBE8, symSize: 0xF0 }
  - { offset: 0x3995B1, size: 0x8, addend: 0x0, symName: __ZNSt3__16vectorIN9Effekseer5Model6VertexENS1_15CustomAllocatorIS3_EEE18__assign_with_sizeB8nn200100IPS3_S8_EEvT_T0_l, symObjAddr: 0x2354, symBinAddr: 0x10004DCD8, symSize: 0x23C }
  - { offset: 0x3995CF, size: 0x8, addend: 0x0, symName: __ZNSt3__134__uninitialized_allocator_relocateB8nn200100IN9Effekseer15CustomAllocatorINS1_5Model13InternalModelEEEPS4_EEvRT_T0_S9_S9_, symObjAddr: 0x2154, symBinAddr: 0x10004DAD8, symSize: 0x110 }
  - { offset: 0x399ACA, size: 0x8, addend: 0x0, symName: __ZNSt3__16vectorIN9Effekseer5Model6VertexENS1_15CustomAllocatorIS3_EEE8__appendEm, symObjAddr: 0x27E4, symBinAddr: 0x10004E150, symSize: 0x248 }
  - { offset: 0x3A1199, size: 0x8, addend: 0x0, symName: __ZN9Effekseer11ModelLoader4LoadEPKvi, symObjAddr: 0x8, symBinAddr: 0x10004E790, symSize: 0x8 }
  - { offset: 0x3A11D6, size: 0x8, addend: 0x0, symName: __ZN9Effekseer11ModelLoader4LoadEPKvi, symObjAddr: 0x8, symBinAddr: 0x10004E790, symSize: 0x8 }
  - { offset: 0x3A11F7, size: 0x8, addend: 0x0, symName: __ZN9Effekseer11ModelLoader4LoadEPKvi, symObjAddr: 0x8, symBinAddr: 0x10004E790, symSize: 0x8 }
  - { offset: 0x3A3107, size: 0x8, addend: 0x0, symName: __ZN9Effekseer12LoadGradientERNS_8GradientERPhi, symObjAddr: 0x0, symBinAddr: 0x10004E798, symSize: 0xF8 }
  - { offset: 0x3AA373, size: 0x8, addend: 0x0, symName: __ZN9Effekseer12LoadGradientERNS_8GradientERPhi, symObjAddr: 0x0, symBinAddr: 0x10004E798, symSize: 0xF8 }
  - { offset: 0x3AA45E, size: 0x8, addend: 0x0, symName: __ZN9Effekseer7ApplyEqERfPKNS_6EffectEPKNS_14InstanceGlobalEPKNS_8InstanceEPNS_11IRandObjectEiRKf, symObjAddr: 0x180, symBinAddr: 0x10004E918, symSize: 0x4 }
  - { offset: 0x3AA4D6, size: 0x8, addend: 0x0, symName: __ZN9Effekseer7ApplyEqERfPKNS_6EffectEPKNS_14InstanceGlobalEPKNS_8InstanceEPNS_11IRandObjectEiRKf, symObjAddr: 0x180, symBinAddr: 0x10004E918, symSize: 0x4 }
  - { offset: 0x3AA513, size: 0x8, addend: 0x0, symName: __ZN9Effekseer8ApplyEq_IffEEvRT_PKNS_6EffectEPKNS_14InstanceGlobalEPKNS_8InstanceEPNS_11IRandObjectEiRKT0_, symObjAddr: 0x184, symBinAddr: 0x10004E91C, symSize: 0x100 }
  - { offset: 0x3AA6CF, size: 0x8, addend: 0x0, symName: __ZN9Effekseer7ApplyEqEPKNS_6EffectEPKNS_14InstanceGlobalEPKNS_8InstanceEPNS_11IRandObjectERKiRKNS_4SIMD5Vec3fERKNSt3__15arrayIfLm3EEESL_, symObjAddr: 0x284, symBinAddr: 0x10004EA1C, symSize: 0x90 }
  - { offset: 0x3AA768, size: 0x8, addend: 0x0, symName: __ZN9Effekseer7ApplyEqEPKNS_6EffectEPKNS_14InstanceGlobalEPKNS_8InstanceEPNS_11IRandObjectERKiRKNS_4SIMD5Vec3fERKNSt3__15arrayIfLm3EEESL_, symObjAddr: 0x284, symBinAddr: 0x10004EA1C, symSize: 0x90 }
  - { offset: 0x3AAA32, size: 0x8, addend: 0x0, symName: __ZN9Effekseer8ApplyEq_INS_4SIMD5Vec3fES2_EEvRT_PKNS_6EffectEPKNS_14InstanceGlobalEPKNS_8InstanceEPNS_11IRandObjectEiRKT0_, symObjAddr: 0x878, symBinAddr: 0x10004F010, symSize: 0x118 }
  - { offset: 0x3AABDA, size: 0x8, addend: 0x0, symName: __ZN9Effekseer8ApplyEq_INS_8vector3dES1_EEvRT_PKNS_6EffectEPKNS_14InstanceGlobalEPKNS_8InstanceEPNS_11IRandObjectEiRKT0_, symObjAddr: 0x990, symBinAddr: 0x10004F128, symSize: 0x11C }
  - { offset: 0x3AABF6, size: 0x8, addend: 0x0, symName: __ZN9Effekseer7ApplyEqEPKNS_6EffectEPKNS_14InstanceGlobalEPKNS_8InstanceEPNS_11IRandObjectERKNS_9RefMinMaxENS_12random_floatE, symObjAddr: 0x314, symBinAddr: 0x10004EAAC, symSize: 0x98 }
  - { offset: 0x3AACD1, size: 0x8, addend: 0x0, symName: __ZN9Effekseer7ApplyEqEPKNS_6EffectEPKNS_14InstanceGlobalEPKNS_8InstanceEPNS_11IRandObjectERKNS_9RefMinMaxENS_15random_vector3dERKNSt3__15arrayIfLm3EEESJ_, symObjAddr: 0x3AC, symBinAddr: 0x10004EB44, symSize: 0x30 }
  - { offset: 0x3AADB3, size: 0x8, addend: 0x0, symName: __ZN9Effekseer8ApplyEq_INSt3__15arrayIfLm3EEEEENS_15random_vector3dEPKNS_6EffectEPKNS_14InstanceGlobalEPKNS_8InstanceEPNS_11IRandObjectERKNS_9RefMinMaxES4_RKT_SL_, symObjAddr: 0x3DC, symBinAddr: 0x10004EB74, symSize: 0x168 }
  - { offset: 0x3AAEB7, size: 0x8, addend: 0x0, symName: __ZN9Effekseer8ApplyEq_INS_8vector3dES1_EEvRT_PKNS_6EffectEPKNS_14InstanceGlobalEPKNS_8InstanceEPNS_11IRandObjectEiRKT0_, symObjAddr: 0x990, symBinAddr: 0x10004F128, symSize: 0x11C }
  - { offset: 0x3AB05F, size: 0x8, addend: 0x0, symName: __ZN9Effekseer8ApplyEq_IffEEvRT_PKNS_6EffectEPKNS_14InstanceGlobalEPKNS_8InstanceEPNS_11IRandObjectEiRKT0_.cold.1, symObjAddr: 0xAAC, symBinAddr: 0x10034D38C, symSize: 0x24 }
  - { offset: 0x3AB07B, size: 0x8, addend: 0x0, symName: __ZN9Effekseer7ApplyEqEPKNS_6EffectEPKNS_14InstanceGlobalEPKNS_8InstanceEPNS_11IRandObjectERKNS_9RefMinMaxENS_10random_intE, symObjAddr: 0x544, symBinAddr: 0x10004ECDC, symSize: 0xC4 }
  - { offset: 0x3CA325, size: 0x8, addend: 0x0, symName: __ZN9Effekseer34NodeRendererTextureUVTypeParameter4LoadERPhi, symObjAddr: 0xF8, symBinAddr: 0x10004E890, symSize: 0x88 }
  - { offset: 0x3CA3B9, size: 0x8, addend: 0x0, symName: __ZN9Effekseer8ApplyEq_IffEEvRT_PKNS_6EffectEPKNS_14InstanceGlobalEPKNS_8InstanceEPNS_11IRandObjectEiRKT0_.cold.1, symObjAddr: 0xAAC, symBinAddr: 0x10034D38C, symSize: 0x24 }
  - { offset: 0x3CA3D1, size: 0x8, addend: 0x0, symName: __ZN9Effekseer8ApplyEq_IffEEvRT_PKNS_6EffectEPKNS_14InstanceGlobalEPKNS_8InstanceEPNS_11IRandObjectEiRKT0_.cold.2, symObjAddr: 0xAD0, symBinAddr: 0x10034D3B0, symSize: 0x24 }
  - { offset: 0x3CA58B, size: 0x8, addend: 0x0, symName: __ZNK9Effekseer8Gradient8GetColorEf, symObjAddr: 0x608, symBinAddr: 0x10004EDA0, symSize: 0x5C }
  - { offset: 0x3CA605, size: 0x8, addend: 0x0, symName: __ZNK9Effekseer8Gradient20GetColorAndIntensityEf, symObjAddr: 0x664, symBinAddr: 0x10004EDFC, symSize: 0x114 }
  - { offset: 0x3CA8E4, size: 0x8, addend: 0x0, symName: __ZNK9Effekseer8Gradient8GetAlphaEf, symObjAddr: 0x778, symBinAddr: 0x10004EF10, symSize: 0x100 }
  - { offset: 0x3CA8EF, size: 0x8, addend: 0x0, symName: __ZNK9Effekseer8Gradient8GetAlphaEf, symObjAddr: 0x778, symBinAddr: 0x10004EF10, symSize: 0x100 }
  - { offset: 0x3CAB74, size: 0x8, addend: 0x0, symName: __ZN9Effekseer8ApplyEq_INS_4SIMD5Vec3fES2_EEvRT_PKNS_6EffectEPKNS_14InstanceGlobalEPKNS_8InstanceEPNS_11IRandObjectEiRKT0_, symObjAddr: 0x878, symBinAddr: 0x10004F010, symSize: 0x118 }
  - { offset: 0x3CAC2E, size: 0x8, addend: 0x0, symName: __ZNK9Effekseer8Gradient20GetColorAndIntensityEf.cold.1, symObjAddr: 0xAF4, symBinAddr: 0x10034D3D4, symSize: 0x28 }
  - { offset: 0x3CACF2, size: 0x8, addend: 0x0, symName: __ZNK9Effekseer8Gradient8GetAlphaEf.cold.1, symObjAddr: 0xB1C, symBinAddr: 0x10034D3FC, symSize: 0x28 }
  - { offset: 0x3CAD32, size: 0x8, addend: 0x0, symName: _OUTLINED_FUNCTION_0, symObjAddr: 0xBD4, symBinAddr: 0x10004F244, symSize: 0x8 }
  - { offset: 0x3CCC28, size: 0x8, addend: 0x0, symName: __ZN9Effekseer14ProceduralMesh7CombineES0_S0_, symObjAddr: 0x0, symBinAddr: 0x10004F24C, symSize: 0x280 }
  - { offset: 0x3CE7C5, size: 0x8, addend: 0x0, symName: __ZN9EffekseerL15CalculateNormalERNS_14ProceduralMeshE, symObjAddr: 0x1A10, symBinAddr: 0x100050C5C, symSize: 0x9A4 }
  - { offset: 0x3D0E12, size: 0x8, addend: 0x0, symName: __ZN9EffekseerL20CalculateVertexColorERNS_14ProceduralMeshERKNS_5ColorES4_S4_S4_S4_S4_S4_S4_S4_RKNSt3__15arrayIfLm2EEES9_, symObjAddr: 0x23B4, symBinAddr: 0x100051600, symSize: 0x1C8 }
  - { offset: 0x3D17E4, size: 0x8, addend: 0x0, symName: __ZNSt3__119piecewise_constructE, symObjAddr: 0x7C9E, symBinAddr: 0x1003A1CCA, symSize: 0x0 }
  - { offset: 0x3E4777, size: 0x8, addend: 0x0, symName: __ZNSt3__16vectorIbN9Effekseer15CustomAllocatorIbEEEC2ERKS4_, symObjAddr: 0x393C, symBinAddr: 0x10005259C, symSize: 0x18C }
  - { offset: 0x3EACD1, size: 0x8, addend: 0x0, symName: __ZN9Effekseer14RotatorSpline3C2ERKS0_, symObjAddr: 0x36EC, symBinAddr: 0x100052364, symSize: 0x12C }
  - { offset: 0x3EBDB7, size: 0x8, addend: 0x0, symName: __ZN9Effekseer24ProceduralModelGenerator8GenerateERKNS_24ProceduralModelParameterE, symObjAddr: 0x684, symBinAddr: 0x10004F8D0, symSize: 0xDBC }
  - { offset: 0x3EF1C3, size: 0x8, addend: 0x0, symName: __ZN9Effekseer14RotatorSpline39CalculateEv, symObjAddr: 0x1440, symBinAddr: 0x10005068C, symSize: 0x324 }
  - { offset: 0x3EF992, size: 0x8, addend: 0x0, symName: __ZN9Effekseer14ProceduralMesh7CombineES0_S0_, symObjAddr: 0x0, symBinAddr: 0x10004F24C, symSize: 0x280 }
  - { offset: 0x3EFEC6, size: 0x8, addend: 0x0, symName: __ZNSt3__16vectorIN9Effekseer20ProceduralMeshVertexENS1_22CustomAlignedAllocatorIS2_EEE24__emplace_back_slow_pathIJRKS2_EEEPS2_DpOT_, symObjAddr: 0x6208, symBinAddr: 0x100054654, symSize: 0x1E8 }
  - { offset: 0x3F03A6, size: 0x8, addend: 0x0, symName: __ZNSt3__16vectorIN9Effekseer18ProceduralMeshFaceENS1_15CustomAllocatorIS2_EEE24__emplace_back_slow_pathIJRKS2_EEEPS2_DpOT_, symObjAddr: 0x63F0, symBinAddr: 0x10005483C, symSize: 0x1D8 }
  - { offset: 0x3F0D63, size: 0x8, addend: 0x0, symName: __ZN9Effekseer24ProceduralModelGenerator18ConvertMeshToModelERKNS_14ProceduralMeshE, symObjAddr: 0x280, symBinAddr: 0x10004F4CC, symSize: 0x3C0 }
  - { offset: 0x3F1C91, size: 0x8, addend: 0x0, symName: __ZN9Effekseer24ProceduralModelGenerator11CreateModelERKNSt3__16vectorINS_5Model6VertexENS_15CustomAllocatorIS4_EEEERKNS2_INS3_4FaceENS5_ISA_EEEE, symObjAddr: 0x640, symBinAddr: 0x10004F88C, symSize: 0x44 }
  - { offset: 0x3F38BC, size: 0x8, addend: 0x0, symName: __ZN9Effekseer14RotatorSpline39CalculateEv, symObjAddr: 0x1440, symBinAddr: 0x10005068C, symSize: 0x324 }
  - { offset: 0x3F4D4C, size: 0x8, addend: 0x0, symName: __ZNK9Effekseer20RotatorMeshGenerator8GenerateEii, symObjAddr: 0x1764, symBinAddr: 0x1000509B0, symSize: 0x2AC }
  - { offset: 0x3F4D57, size: 0x8, addend: 0x0, symName: __ZN9Effekseer14RotatorSpline3C2ERKS0_, symObjAddr: 0x36EC, symBinAddr: 0x100052364, symSize: 0x12C }
  - { offset: 0x3F53BF, size: 0x8, addend: 0x0, symName: __ZNSt3__16vectorIN9Effekseer4SIMD5Vec3fENS1_22CustomAlignedAllocatorIS3_EEE16__init_with_sizeB8nn200100IPS3_S8_EEvT_T0_m, symObjAddr: 0x3818, symBinAddr: 0x100052490, symSize: 0x10C }
  - { offset: 0x3F54B3, size: 0x8, addend: 0x0, symName: __ZN9Effekseer15SplineGeneratorD2Ev, symObjAddr: 0x3BE4, symBinAddr: 0x10005282C, symSize: 0x368 }
  - { offset: 0x3F640C, size: 0x8, addend: 0x0, symName: __ZNK9Effekseer20RotatorMeshGenerator8GenerateEii, symObjAddr: 0x1764, symBinAddr: 0x1000509B0, symSize: 0x2AC }
  - { offset: 0x3F68F7, size: 0x8, addend: 0x0, symName: __ZN9EffekseerL15CalculateNormalERNS_14ProceduralMeshE, symObjAddr: 0x1A10, symBinAddr: 0x100050C5C, symSize: 0x9A4 }
  - { offset: 0x3F6902, size: 0x8, addend: 0x0, symName: __ZN9Effekseer14ProceduralMeshD2Ev, symObjAddr: 0x5680, symBinAddr: 0x100053C8C, symSize: 0x140 }
  - { offset: 0x3F6D58, size: 0x8, addend: 0x0, symName: __ZNK9Effekseer24RotatedWireMeshGenerator8GenerateERNS_10RandObjectE, symObjAddr: 0x257C, symBinAddr: 0x1000517C8, symSize: 0xB90 }
  - { offset: 0x3FA55C, size: 0x8, addend: 0x0, symName: __ZN9Effekseer24ProceduralModelGenerator8GenerateERKNS_24ProceduralModelParameterE.cold.1, symObjAddr: 0x7680, symBinAddr: 0x10034D424, symSize: 0x28 }
  - { offset: 0x3FAB9A, size: 0x8, addend: 0x0, symName: __ZNSt3__16vectorIN9Effekseer20ProceduralMeshVertexENS1_22CustomAlignedAllocatorIS2_EEE8__appendEm, symObjAddr: 0x40F0, symBinAddr: 0x100052D38, symSize: 0x250 }
  - { offset: 0x3FB463, size: 0x8, addend: 0x0, symName: __ZNK9Effekseer20RotatorMeshGenerator11GetPositionEff, symObjAddr: 0x3F4C, symBinAddr: 0x100052B94, symSize: 0x1A4 }
  - { offset: 0x3FB6FC, size: 0x8, addend: 0x0, symName: __ZNSt3__16vectorIN9Effekseer20ProceduralMeshVertexENS1_22CustomAlignedAllocatorIS2_EEE8__appendEm, symObjAddr: 0x40F0, symBinAddr: 0x100052D38, symSize: 0x250 }
  - { offset: 0x3FB707, size: 0x8, addend: 0x0, symName: __ZNK9Effekseer20RotatorMeshGenerator8GenerateEii.cold.2, symObjAddr: 0x76D0, symBinAddr: 0x10034D474, symSize: 0x28 }
  - { offset: 0x3FB71F, size: 0x8, addend: 0x0, symName: __ZNK9Effekseer20RotatorMeshGenerator8GenerateEii.cold.1, symObjAddr: 0x76A8, symBinAddr: 0x10034D44C, symSize: 0x28 }
  - { offset: 0x3FC15C, size: 0x8, addend: 0x0, symName: __ZNSt3__16vectorIN9Effekseer4SIMD5Vec3fENS1_22CustomAlignedAllocatorIS3_EEE8__appendEm, symObjAddr: 0x45A0, symBinAddr: 0x100052F88, symSize: 0x1E8 }
  - { offset: 0x3FC6B9, size: 0x8, addend: 0x0, symName: __ZNSt3__112__hash_tableINS_17__hash_value_typeIN9Effekseer4SIMD5Vec3fES4_EENS_22__unordered_map_hasherIS4_S5_NS_4hashIS4_EENS_8equal_toIS4_EELb1EEENS_21__unordered_map_equalIS4_S5_SA_S8_Lb1EEENS2_22CustomAlignedAllocatorIS5_EEE25__emplace_unique_key_argsIS4_JRKNS_21piecewise_construct_tENS_5tupleIJRKS4_EEENSL_IJEEEEEENS_4pairINS_15__hash_iteratorIPNS_11__hash_nodeIS5_PvEEEEbEERKT_DpOT0_, symObjAddr: 0x4788, symBinAddr: 0x100053170, symSize: 0x3A0 }
  - { offset: 0x3FC6D4, size: 0x8, addend: 0x0, symName: __ZNSt3__112__hash_tableINS_17__hash_value_typeIN9Effekseer4SIMD5Vec3fES4_EENS_22__unordered_map_hasherIS4_S5_NS_4hashIS4_EENS_8equal_toIS4_EELb1EEENS_21__unordered_map_equalIS4_S5_SA_S8_Lb1EEENS2_22CustomAlignedAllocatorIS5_EEE25__emplace_unique_key_argsIS4_JRKNS_21piecewise_construct_tENS_5tupleIJRKS4_EEENSL_IJEEEEEENS_4pairINS_15__hash_iteratorIPNS_11__hash_nodeIS5_PvEEEEbEERKT_DpOT0_, symObjAddr: 0x4788, symBinAddr: 0x100053170, symSize: 0x3A0 }
  - { offset: 0x3FCF14, size: 0x8, addend: 0x0, symName: __ZNSt3__112__hash_tableINS_17__hash_value_typeIN9Effekseer4SIMD5Vec3fES4_EENS_22__unordered_map_hasherIS4_S5_NS_4hashIS4_EENS_8equal_toIS4_EELb1EEENS_21__unordered_map_equalIS4_S5_SA_S8_Lb1EEENS2_22CustomAlignedAllocatorIS5_EEE11__do_rehashILb1EEEvm, symObjAddr: 0x4B28, symBinAddr: 0x100053510, symSize: 0x294 }
  - { offset: 0x3FCF41, size: 0x8, addend: 0x0, symName: __ZNSt3__112__hash_tableINS_17__hash_value_typeIN9Effekseer4SIMD5Vec3fEiEENS_22__unordered_map_hasherIS4_S5_NS_4hashIS4_EENS_8equal_toIS4_EELb1EEENS_21__unordered_map_equalIS4_S5_SA_S8_Lb1EEENS2_22CustomAlignedAllocatorIS5_EEE25__emplace_unique_key_argsIS4_JRKNS_21piecewise_construct_tENS_5tupleIJRKS4_EEENSL_IJEEEEEENS_4pairINS_15__hash_iteratorIPNS_11__hash_nodeIS5_PvEEEEbEERKT_DpOT0_, symObjAddr: 0x4DBC, symBinAddr: 0x1000537A4, symSize: 0x3A0 }
  - { offset: 0x3FD7AE, size: 0x8, addend: 0x0, symName: __ZNSt3__112__hash_tableINS_17__hash_value_typeIN9Effekseer4SIMD5Vec3fEiEENS_22__unordered_map_hasherIS4_S5_NS_4hashIS4_EENS_8equal_toIS4_EELb1EEENS_21__unordered_map_equalIS4_S5_SA_S8_Lb1EEENS2_22CustomAlignedAllocatorIS5_EEED2Ev, symObjAddr: 0x53F0, symBinAddr: 0x100053B44, symSize: 0x148 }
  - { offset: 0x3FE63D, size: 0x8, addend: 0x0, symName: __ZNSt3__16vectorIiNS_9allocatorIiEEE18__assign_with_sizeB8nn200100IPKiS6_EEvT_T0_l, symObjAddr: 0x5ABC, symBinAddr: 0x1000540C8, symSize: 0x1EC }
  - { offset: 0x3FEE65, size: 0x8, addend: 0x0, symName: __ZNSt3__16vectorIfNS_9allocatorIfEEE18__assign_with_sizeB8nn200100IPKfS6_EEvT_T0_l, symObjAddr: 0x5CB4, symBinAddr: 0x1000542B4, symSize: 0x1EC }
  - { offset: 0x3FF670, size: 0x8, addend: 0x0, symName: __ZNSt3__16vectorIN9Effekseer4SIMD5Vec3fENS1_22CustomAlignedAllocatorIS3_EEE24__emplace_back_slow_pathIJRS3_EEEPS3_DpOT_, symObjAddr: 0x5EA0, symBinAddr: 0x1000544A0, symSize: 0x1B4 }
  - { offset: 0x3FF9CD, size: 0x8, addend: 0x0, symName: __ZNK9Effekseer24RotatedWireMeshGenerator11GetPositionEff, symObjAddr: 0x57C0, symBinAddr: 0x100053DCC, symSize: 0x16C }
  - { offset: 0x3FFC44, size: 0x8, addend: 0x0, symName: __ZN9Effekseer14ProceduralMeshaSEOS0_, symObjAddr: 0x592C, symBinAddr: 0x100053F38, symSize: 0x190 }
  - { offset: 0x3FFC4F, size: 0x8, addend: 0x0, symName: __ZNSt3__16vectorIN9Effekseer4SIMD5Vec3fENS1_22CustomAlignedAllocatorIS3_EEE24__emplace_back_slow_pathIJRS3_EEEPS3_DpOT_, symObjAddr: 0x5EA0, symBinAddr: 0x1000544A0, symSize: 0x1B4 }
  - { offset: 0x40013D, size: 0x8, addend: 0x0, symName: __ZN9Effekseer14ProceduralMeshaSEOS0_, symObjAddr: 0x592C, symBinAddr: 0x100053F38, symSize: 0x190 }
  - { offset: 0x4005FC, size: 0x8, addend: 0x0, symName: __ZN9Effekseer24ProceduralModelGenerator10UngenerateENS_6RefPtrINS_5ModelEEE, symObjAddr: 0x310C, symBinAddr: 0x100052358, symSize: 0x4 }
  - { offset: 0x40062E, size: 0x8, addend: 0x0, symName: __ZN9Effekseer24ProceduralModelGeneratorD1Ev, symObjAddr: 0x3170, symBinAddr: 0x10005235C, symSize: 0x4 }
  - { offset: 0x400657, size: 0x8, addend: 0x0, symName: __ZN9Effekseer24ProceduralModelGeneratorD0Ev, symObjAddr: 0x3174, symBinAddr: 0x100052360, symSize: 0x4 }
  - { offset: 0x400A54, size: 0x8, addend: 0x0, symName: __ZNSt3__16vectorIN9Effekseer4SIMD5Vec3fENS1_22CustomAlignedAllocatorIS3_EEE16__init_with_sizeB8nn200100IPS3_S8_EEvT_T0_m, symObjAddr: 0x3818, symBinAddr: 0x100052490, symSize: 0x10C }
  - { offset: 0x400E50, size: 0x8, addend: 0x0, symName: __ZNSt3__16vectorIbN9Effekseer15CustomAllocatorIbEEEC2ERKS4_, symObjAddr: 0x393C, symBinAddr: 0x10005259C, symSize: 0x18C }
  - { offset: 0x401191, size: 0x8, addend: 0x0, symName: __ZNSt3__16vectorIfN9Effekseer15CustomAllocatorIfEEEC2B8nn200100ERKS4_, symObjAddr: 0x3AD4, symBinAddr: 0x100052728, symSize: 0x104 }
  - { offset: 0x401A81, size: 0x8, addend: 0x0, symName: __ZNSt3__16vectorIfN9Effekseer15CustomAllocatorIfEEEC2B8nn200100ERKS4_, symObjAddr: 0x3AD4, symBinAddr: 0x100052728, symSize: 0x104 }
  - { offset: 0x401C15, size: 0x8, addend: 0x0, symName: __ZN9Effekseer15SplineGeneratorD2Ev, symObjAddr: 0x3BE4, symBinAddr: 0x10005282C, symSize: 0x368 }
  - { offset: 0x402407, size: 0x8, addend: 0x0, symName: __ZNSt3__16vectorIN9Effekseer4SIMD5Vec3fENS1_22CustomAlignedAllocatorIS3_EEE8__appendEm, symObjAddr: 0x45A0, symBinAddr: 0x100052F88, symSize: 0x1E8 }
  - { offset: 0x40296B, size: 0x8, addend: 0x0, symName: __ZNSt3__112__hash_tableINS_17__hash_value_typeIN9Effekseer4SIMD5Vec3fES4_EENS_22__unordered_map_hasherIS4_S5_NS_4hashIS4_EENS_8equal_toIS4_EELb1EEENS_21__unordered_map_equalIS4_S5_SA_S8_Lb1EEENS2_22CustomAlignedAllocatorIS5_EEE11__do_rehashILb1EEEvm, symObjAddr: 0x4B28, symBinAddr: 0x100053510, symSize: 0x294 }
  - { offset: 0x404106, size: 0x8, addend: 0x0, symName: __ZNSt3__16vectorIfNS_9allocatorIfEEE18__assign_with_sizeB8nn200100IPKfS6_EEvT_T0_l, symObjAddr: 0x5CB4, symBinAddr: 0x1000542B4, symSize: 0x1EC }
  - { offset: 0x404883, size: 0x8, addend: 0x0, symName: '__ZNSt3__110__function6__funcIZN9Effekseer24ProceduralModelGenerator8GenerateERKNS2_24ProceduralModelParameterEE3$_0NS_9allocatorIS7_EEFNS2_4SIMD5Vec2fEfEED1Ev', symObjAddr: 0x6A70, symBinAddr: 0x100054A14, symSize: 0x4 }
  - { offset: 0x40488E, size: 0x8, addend: 0x0, symName: '__ZNSt3__110__function6__funcIZN9Effekseer24ProceduralModelGenerator8GenerateERKNS2_24ProceduralModelParameterEE3$_0NS_9allocatorIS7_EEFNS2_4SIMD5Vec2fEfEED1Ev', symObjAddr: 0x6A70, symBinAddr: 0x100054A14, symSize: 0x4 }
  - { offset: 0x4048BA, size: 0x8, addend: 0x0, symName: '__ZNSt3__110__function6__funcIZN9Effekseer24ProceduralModelGenerator8GenerateERKNS2_24ProceduralModelParameterEE3$_0NS_9allocatorIS7_EEFNS2_4SIMD5Vec2fEfEED0Ev', symObjAddr: 0x6A74, symBinAddr: 0x100054A18, symSize: 0x4 }
  - { offset: 0x4049D0, size: 0x8, addend: 0x0, symName: '__ZNKSt3__110__function6__funcIZN9Effekseer24ProceduralModelGenerator8GenerateERKNS2_24ProceduralModelParameterEE3$_0NS_9allocatorIS7_EEFNS2_4SIMD5Vec2fEfEE7__cloneEv', symObjAddr: 0x6A78, symBinAddr: 0x100054A1C, symSize: 0x3C }
  - { offset: 0x404BCD, size: 0x8, addend: 0x0, symName: '__ZNKSt3__110__function6__funcIZN9Effekseer24ProceduralModelGenerator8GenerateERKNS2_24ProceduralModelParameterEE3$_0NS_9allocatorIS7_EEFNS2_4SIMD5Vec2fEfEE7__cloneEPNS0_6__baseISC_EE', symObjAddr: 0x6AB4, symBinAddr: 0x100054A58, symSize: 0x20 }
  - { offset: 0x404C02, size: 0x8, addend: 0x0, symName: '__ZNKSt3__110__function6__funcIZN9Effekseer24ProceduralModelGenerator8GenerateERKNS2_24ProceduralModelParameterEE3$_0NS_9allocatorIS7_EEFNS2_4SIMD5Vec2fEfEE7__cloneEPNS0_6__baseISC_EE', symObjAddr: 0x6AB4, symBinAddr: 0x100054A58, symSize: 0x20 }
  - { offset: 0x404C30, size: 0x8, addend: 0x0, symName: '__ZNKSt3__110__function6__funcIZN9Effekseer24ProceduralModelGenerator8GenerateERKNS2_24ProceduralModelParameterEE3$_0NS_9allocatorIS7_EEFNS2_4SIMD5Vec2fEfEE7__cloneEPNS0_6__baseISC_EE', symObjAddr: 0x6AB4, symBinAddr: 0x100054A58, symSize: 0x20 }
  - { offset: 0x404CBF, size: 0x8, addend: 0x0, symName: '__ZNSt3__110__function6__funcIZN9Effekseer24ProceduralModelGenerator8GenerateERKNS2_24ProceduralModelParameterEE3$_0NS_9allocatorIS7_EEFNS2_4SIMD5Vec2fEfEE7destroyEv', symObjAddr: 0x6AD4, symBinAddr: 0x100054A78, symSize: 0x4 }
  - { offset: 0x404D13, size: 0x8, addend: 0x0, symName: '__ZNSt3__110__function6__funcIZN9Effekseer24ProceduralModelGenerator8GenerateERKNS2_24ProceduralModelParameterEE3$_0NS_9allocatorIS7_EEFNS2_4SIMD5Vec2fEfEE18destroy_deallocateEv', symObjAddr: 0x6AD8, symBinAddr: 0x100054A7C, symSize: 0x4 }
  - { offset: 0x404D46, size: 0x8, addend: 0x0, symName: '__ZNSt3__110__function6__funcIZN9Effekseer24ProceduralModelGenerator8GenerateERKNS2_24ProceduralModelParameterEE3$_0NS_9allocatorIS7_EEFNS2_4SIMD5Vec2fEfEE18destroy_deallocateEv', symObjAddr: 0x6AD8, symBinAddr: 0x100054A7C, symSize: 0x4 }
  - { offset: 0x404D68, size: 0x8, addend: 0x0, symName: '__ZNSt3__110__function6__funcIZN9Effekseer24ProceduralModelGenerator8GenerateERKNS2_24ProceduralModelParameterEE3$_0NS_9allocatorIS7_EEFNS2_4SIMD5Vec2fEfEE18destroy_deallocateEv', symObjAddr: 0x6AD8, symBinAddr: 0x100054A7C, symSize: 0x4 }
  - { offset: 0x404D99, size: 0x8, addend: 0x0, symName: '__ZNSt3__110__function6__funcIZN9Effekseer24ProceduralModelGenerator8GenerateERKNS2_24ProceduralModelParameterEE3$_0NS_9allocatorIS7_EEFNS2_4SIMD5Vec2fEfEE18destroy_deallocateEv', symObjAddr: 0x6AD8, symBinAddr: 0x100054A7C, symSize: 0x4 }
  - { offset: 0x404E9C, size: 0x8, addend: 0x0, symName: '__ZNSt3__110__function6__funcIZN9Effekseer24ProceduralModelGenerator8GenerateERKNS2_24ProceduralModelParameterEE3$_0NS_9allocatorIS7_EEFNS2_4SIMD5Vec2fEfEEclEOf', symObjAddr: 0x6ADC, symBinAddr: 0x100054A80, symSize: 0xC0 }
  - { offset: 0x40519F, size: 0x8, addend: 0x0, symName: '__ZNKSt3__110__function6__funcIZN9Effekseer24ProceduralModelGenerator8GenerateERKNS2_24ProceduralModelParameterEE3$_0NS_9allocatorIS7_EEFNS2_4SIMD5Vec2fEfEE6targetERKSt9type_info', symObjAddr: 0x6B9C, symBinAddr: 0x100054B40, symSize: 0x64 }
  - { offset: 0x405269, size: 0x8, addend: 0x0, symName: '__ZNKSt3__110__function6__funcIZN9Effekseer24ProceduralModelGenerator8GenerateERKNS2_24ProceduralModelParameterEE3$_0NS_9allocatorIS7_EEFNS2_4SIMD5Vec2fEfEE11target_typeEv', symObjAddr: 0x6C00, symBinAddr: 0x100054BA4, symSize: 0xC }
  - { offset: 0x405291, size: 0x8, addend: 0x0, symName: '__ZNSt3__110__function6__funcIZN9Effekseer24ProceduralModelGenerator8GenerateERKNS2_24ProceduralModelParameterEE3$_1NS_9allocatorIS7_EEFNS2_4SIMD5Vec2fEfEED1Ev', symObjAddr: 0x6D70, symBinAddr: 0x100054BB0, symSize: 0x4 }
  - { offset: 0x4052BD, size: 0x8, addend: 0x0, symName: '__ZNSt3__110__function6__funcIZN9Effekseer24ProceduralModelGenerator8GenerateERKNS2_24ProceduralModelParameterEE3$_1NS_9allocatorIS7_EEFNS2_4SIMD5Vec2fEfEED0Ev', symObjAddr: 0x6D74, symBinAddr: 0x100054BB4, symSize: 0x4 }
  - { offset: 0x4053D3, size: 0x8, addend: 0x0, symName: '__ZNKSt3__110__function6__funcIZN9Effekseer24ProceduralModelGenerator8GenerateERKNS2_24ProceduralModelParameterEE3$_1NS_9allocatorIS7_EEFNS2_4SIMD5Vec2fEfEE7__cloneEv', symObjAddr: 0x6D78, symBinAddr: 0x100054BB8, symSize: 0x34 }
  - { offset: 0x4055CE, size: 0x8, addend: 0x0, symName: '__ZNKSt3__110__function6__funcIZN9Effekseer24ProceduralModelGenerator8GenerateERKNS2_24ProceduralModelParameterEE3$_1NS_9allocatorIS7_EEFNS2_4SIMD5Vec2fEfEE7__cloneEPNS0_6__baseISC_EE', symObjAddr: 0x6DAC, symBinAddr: 0x100054BEC, symSize: 0x18 }
  - { offset: 0x405603, size: 0x8, addend: 0x0, symName: '__ZNKSt3__110__function6__funcIZN9Effekseer24ProceduralModelGenerator8GenerateERKNS2_24ProceduralModelParameterEE3$_1NS_9allocatorIS7_EEFNS2_4SIMD5Vec2fEfEE7__cloneEPNS0_6__baseISC_EE', symObjAddr: 0x6DAC, symBinAddr: 0x100054BEC, symSize: 0x18 }
  - { offset: 0x405631, size: 0x8, addend: 0x0, symName: '__ZNKSt3__110__function6__funcIZN9Effekseer24ProceduralModelGenerator8GenerateERKNS2_24ProceduralModelParameterEE3$_1NS_9allocatorIS7_EEFNS2_4SIMD5Vec2fEfEE7__cloneEPNS0_6__baseISC_EE', symObjAddr: 0x6DAC, symBinAddr: 0x100054BEC, symSize: 0x18 }
  - { offset: 0x4056C0, size: 0x8, addend: 0x0, symName: '__ZNSt3__110__function6__funcIZN9Effekseer24ProceduralModelGenerator8GenerateERKNS2_24ProceduralModelParameterEE3$_1NS_9allocatorIS7_EEFNS2_4SIMD5Vec2fEfEE7destroyEv', symObjAddr: 0x6DC4, symBinAddr: 0x100054C04, symSize: 0x4 }
  - { offset: 0x405714, size: 0x8, addend: 0x0, symName: '__ZNSt3__110__function6__funcIZN9Effekseer24ProceduralModelGenerator8GenerateERKNS2_24ProceduralModelParameterEE3$_1NS_9allocatorIS7_EEFNS2_4SIMD5Vec2fEfEE18destroy_deallocateEv', symObjAddr: 0x6DC8, symBinAddr: 0x100054C08, symSize: 0x4 }
  - { offset: 0x405747, size: 0x8, addend: 0x0, symName: '__ZNSt3__110__function6__funcIZN9Effekseer24ProceduralModelGenerator8GenerateERKNS2_24ProceduralModelParameterEE3$_1NS_9allocatorIS7_EEFNS2_4SIMD5Vec2fEfEE18destroy_deallocateEv', symObjAddr: 0x6DC8, symBinAddr: 0x100054C08, symSize: 0x4 }
  - { offset: 0x405769, size: 0x8, addend: 0x0, symName: '__ZNSt3__110__function6__funcIZN9Effekseer24ProceduralModelGenerator8GenerateERKNS2_24ProceduralModelParameterEE3$_1NS_9allocatorIS7_EEFNS2_4SIMD5Vec2fEfEE18destroy_deallocateEv', symObjAddr: 0x6DC8, symBinAddr: 0x100054C08, symSize: 0x4 }
  - { offset: 0x40579A, size: 0x8, addend: 0x0, symName: '__ZNSt3__110__function6__funcIZN9Effekseer24ProceduralModelGenerator8GenerateERKNS2_24ProceduralModelParameterEE3$_1NS_9allocatorIS7_EEFNS2_4SIMD5Vec2fEfEE18destroy_deallocateEv', symObjAddr: 0x6DC8, symBinAddr: 0x100054C08, symSize: 0x4 }
  - { offset: 0x40586D, size: 0x8, addend: 0x0, symName: '__ZNSt3__110__function6__funcIZN9Effekseer24ProceduralModelGenerator8GenerateERKNS2_24ProceduralModelParameterEE3$_1NS_9allocatorIS7_EEFNS2_4SIMD5Vec2fEfEEclEOf', symObjAddr: 0x6DCC, symBinAddr: 0x100054C0C, symSize: 0x3C }
  - { offset: 0x4058A2, size: 0x8, addend: 0x0, symName: '__ZNSt3__110__function6__funcIZN9Effekseer24ProceduralModelGenerator8GenerateERKNS2_24ProceduralModelParameterEE3$_1NS_9allocatorIS7_EEFNS2_4SIMD5Vec2fEfEEclEOf', symObjAddr: 0x6DCC, symBinAddr: 0x100054C0C, symSize: 0x3C }
  - { offset: 0x4058C7, size: 0x8, addend: 0x0, symName: '__ZNSt3__110__function6__funcIZN9Effekseer24ProceduralModelGenerator8GenerateERKNS2_24ProceduralModelParameterEE3$_1NS_9allocatorIS7_EEFNS2_4SIMD5Vec2fEfEEclEOf', symObjAddr: 0x6DCC, symBinAddr: 0x100054C0C, symSize: 0x3C }
  - { offset: 0x4058EB, size: 0x8, addend: 0x0, symName: '__ZNSt3__110__function6__funcIZN9Effekseer24ProceduralModelGenerator8GenerateERKNS2_24ProceduralModelParameterEE3$_1NS_9allocatorIS7_EEFNS2_4SIMD5Vec2fEfEEclEOf', symObjAddr: 0x6DCC, symBinAddr: 0x100054C0C, symSize: 0x3C }
  - { offset: 0x405910, size: 0x8, addend: 0x0, symName: '__ZNSt3__110__function6__funcIZN9Effekseer24ProceduralModelGenerator8GenerateERKNS2_24ProceduralModelParameterEE3$_1NS_9allocatorIS7_EEFNS2_4SIMD5Vec2fEfEEclEOf', symObjAddr: 0x6DCC, symBinAddr: 0x100054C0C, symSize: 0x3C }
  - { offset: 0x405A8C, size: 0x8, addend: 0x0, symName: '__ZNKSt3__110__function6__funcIZN9Effekseer24ProceduralModelGenerator8GenerateERKNS2_24ProceduralModelParameterEE3$_1NS_9allocatorIS7_EEFNS2_4SIMD5Vec2fEfEE6targetERKSt9type_info', symObjAddr: 0x6E08, symBinAddr: 0x100054C48, symSize: 0x64 }
  - { offset: 0x405B3F, size: 0x8, addend: 0x0, symName: '__ZNKSt3__110__function6__funcIZN9Effekseer24ProceduralModelGenerator8GenerateERKNS2_24ProceduralModelParameterEE3$_1NS_9allocatorIS7_EEFNS2_4SIMD5Vec2fEfEE11target_typeEv', symObjAddr: 0x6E6C, symBinAddr: 0x100054CAC, symSize: 0xC }
  - { offset: 0x405B62, size: 0x8, addend: 0x0, symName: '__ZNSt3__110__function6__funcIZN9Effekseer24ProceduralModelGenerator8GenerateERKNS2_24ProceduralModelParameterEE3$_2NS_9allocatorIS7_EEFNS2_4SIMD5Vec2fEfEED1Ev', symObjAddr: 0x6E78, symBinAddr: 0x100054CB8, symSize: 0x4 }
  - { offset: 0x405B8E, size: 0x8, addend: 0x0, symName: '__ZNSt3__110__function6__funcIZN9Effekseer24ProceduralModelGenerator8GenerateERKNS2_24ProceduralModelParameterEE3$_2NS_9allocatorIS7_EEFNS2_4SIMD5Vec2fEfEED0Ev', symObjAddr: 0x6E7C, symBinAddr: 0x100054CBC, symSize: 0x4 }
  - { offset: 0x405CA4, size: 0x8, addend: 0x0, symName: '__ZNKSt3__110__function6__funcIZN9Effekseer24ProceduralModelGenerator8GenerateERKNS2_24ProceduralModelParameterEE3$_2NS_9allocatorIS7_EEFNS2_4SIMD5Vec2fEfEE7__cloneEv', symObjAddr: 0x6E80, symBinAddr: 0x100054CC0, symSize: 0x3C }
  - { offset: 0x405EA1, size: 0x8, addend: 0x0, symName: '__ZNKSt3__110__function6__funcIZN9Effekseer24ProceduralModelGenerator8GenerateERKNS2_24ProceduralModelParameterEE3$_2NS_9allocatorIS7_EEFNS2_4SIMD5Vec2fEfEE7__cloneEPNS0_6__baseISC_EE', symObjAddr: 0x6EBC, symBinAddr: 0x100054CFC, symSize: 0x20 }
  - { offset: 0x405ED6, size: 0x8, addend: 0x0, symName: '__ZNKSt3__110__function6__funcIZN9Effekseer24ProceduralModelGenerator8GenerateERKNS2_24ProceduralModelParameterEE3$_2NS_9allocatorIS7_EEFNS2_4SIMD5Vec2fEfEE7__cloneEPNS0_6__baseISC_EE', symObjAddr: 0x6EBC, symBinAddr: 0x100054CFC, symSize: 0x20 }
  - { offset: 0x405F04, size: 0x8, addend: 0x0, symName: '__ZNKSt3__110__function6__funcIZN9Effekseer24ProceduralModelGenerator8GenerateERKNS2_24ProceduralModelParameterEE3$_2NS_9allocatorIS7_EEFNS2_4SIMD5Vec2fEfEE7__cloneEPNS0_6__baseISC_EE', symObjAddr: 0x6EBC, symBinAddr: 0x100054CFC, symSize: 0x20 }
  - { offset: 0x405F93, size: 0x8, addend: 0x0, symName: '__ZNSt3__110__function6__funcIZN9Effekseer24ProceduralModelGenerator8GenerateERKNS2_24ProceduralModelParameterEE3$_2NS_9allocatorIS7_EEFNS2_4SIMD5Vec2fEfEE7destroyEv', symObjAddr: 0x6EDC, symBinAddr: 0x100054D1C, symSize: 0x4 }
  - { offset: 0x405FE7, size: 0x8, addend: 0x0, symName: '__ZNSt3__110__function6__funcIZN9Effekseer24ProceduralModelGenerator8GenerateERKNS2_24ProceduralModelParameterEE3$_2NS_9allocatorIS7_EEFNS2_4SIMD5Vec2fEfEE18destroy_deallocateEv', symObjAddr: 0x6EE0, symBinAddr: 0x100054D20, symSize: 0x4 }
  - { offset: 0x40601A, size: 0x8, addend: 0x0, symName: '__ZNSt3__110__function6__funcIZN9Effekseer24ProceduralModelGenerator8GenerateERKNS2_24ProceduralModelParameterEE3$_2NS_9allocatorIS7_EEFNS2_4SIMD5Vec2fEfEE18destroy_deallocateEv', symObjAddr: 0x6EE0, symBinAddr: 0x100054D20, symSize: 0x4 }
  - { offset: 0x40603C, size: 0x8, addend: 0x0, symName: '__ZNSt3__110__function6__funcIZN9Effekseer24ProceduralModelGenerator8GenerateERKNS2_24ProceduralModelParameterEE3$_2NS_9allocatorIS7_EEFNS2_4SIMD5Vec2fEfEE18destroy_deallocateEv', symObjAddr: 0x6EE0, symBinAddr: 0x100054D20, symSize: 0x4 }
  - { offset: 0x40606D, size: 0x8, addend: 0x0, symName: '__ZNSt3__110__function6__funcIZN9Effekseer24ProceduralModelGenerator8GenerateERKNS2_24ProceduralModelParameterEE3$_2NS_9allocatorIS7_EEFNS2_4SIMD5Vec2fEfEE18destroy_deallocateEv', symObjAddr: 0x6EE0, symBinAddr: 0x100054D20, symSize: 0x4 }
  - { offset: 0x406140, size: 0x8, addend: 0x0, symName: '__ZNSt3__110__function6__funcIZN9Effekseer24ProceduralModelGenerator8GenerateERKNS2_24ProceduralModelParameterEE3$_2NS_9allocatorIS7_EEFNS2_4SIMD5Vec2fEfEEclEOf', symObjAddr: 0x6EE4, symBinAddr: 0x100054D24, symSize: 0x40 }
  - { offset: 0x406175, size: 0x8, addend: 0x0, symName: '__ZNSt3__110__function6__funcIZN9Effekseer24ProceduralModelGenerator8GenerateERKNS2_24ProceduralModelParameterEE3$_2NS_9allocatorIS7_EEFNS2_4SIMD5Vec2fEfEEclEOf', symObjAddr: 0x6EE4, symBinAddr: 0x100054D24, symSize: 0x40 }
  - { offset: 0x40619A, size: 0x8, addend: 0x0, symName: '__ZNSt3__110__function6__funcIZN9Effekseer24ProceduralModelGenerator8GenerateERKNS2_24ProceduralModelParameterEE3$_2NS_9allocatorIS7_EEFNS2_4SIMD5Vec2fEfEEclEOf', symObjAddr: 0x6EE4, symBinAddr: 0x100054D24, symSize: 0x40 }
  - { offset: 0x4061BE, size: 0x8, addend: 0x0, symName: '__ZNSt3__110__function6__funcIZN9Effekseer24ProceduralModelGenerator8GenerateERKNS2_24ProceduralModelParameterEE3$_2NS_9allocatorIS7_EEFNS2_4SIMD5Vec2fEfEEclEOf', symObjAddr: 0x6EE4, symBinAddr: 0x100054D24, symSize: 0x40 }
  - { offset: 0x4061E3, size: 0x8, addend: 0x0, symName: '__ZNSt3__110__function6__funcIZN9Effekseer24ProceduralModelGenerator8GenerateERKNS2_24ProceduralModelParameterEE3$_2NS_9allocatorIS7_EEFNS2_4SIMD5Vec2fEfEEclEOf', symObjAddr: 0x6EE4, symBinAddr: 0x100054D24, symSize: 0x40 }
  - { offset: 0x40635F, size: 0x8, addend: 0x0, symName: '__ZNKSt3__110__function6__funcIZN9Effekseer24ProceduralModelGenerator8GenerateERKNS2_24ProceduralModelParameterEE3$_2NS_9allocatorIS7_EEFNS2_4SIMD5Vec2fEfEE6targetERKSt9type_info', symObjAddr: 0x6F24, symBinAddr: 0x100054D64, symSize: 0x64 }
  - { offset: 0x406412, size: 0x8, addend: 0x0, symName: '__ZNKSt3__110__function6__funcIZN9Effekseer24ProceduralModelGenerator8GenerateERKNS2_24ProceduralModelParameterEE3$_2NS_9allocatorIS7_EEFNS2_4SIMD5Vec2fEfEE11target_typeEv', symObjAddr: 0x6F88, symBinAddr: 0x100054DC8, symSize: 0xC }
  - { offset: 0x4064CC, size: 0x8, addend: 0x0, symName: '__ZNSt3__110__function6__funcIZN9Effekseer24ProceduralModelGenerator8GenerateERKNS2_24ProceduralModelParameterEE3$_3NS_9allocatorIS7_EEFNS2_4SIMD5Vec2fEfEED1Ev', symObjAddr: 0x6F94, symBinAddr: 0x100054DD4, symSize: 0x44 }
  - { offset: 0x406770, size: 0x8, addend: 0x0, symName: '__ZNSt3__110__function6__funcIZN9Effekseer24ProceduralModelGenerator8GenerateERKNS2_24ProceduralModelParameterEE3$_3NS_9allocatorIS7_EEFNS2_4SIMD5Vec2fEfEED0Ev', symObjAddr: 0x6FD8, symBinAddr: 0x100054E18, symSize: 0x44 }
  - { offset: 0x406B28, size: 0x8, addend: 0x0, symName: '__ZNKSt3__110__function6__funcIZN9Effekseer24ProceduralModelGenerator8GenerateERKNS2_24ProceduralModelParameterEE3$_3NS_9allocatorIS7_EEFNS2_4SIMD5Vec2fEfEE7__cloneEv', symObjAddr: 0x701C, symBinAddr: 0x100054E5C, symSize: 0x40 }
  - { offset: 0x406D69, size: 0x8, addend: 0x0, symName: '__ZNKSt3__110__function6__funcIZN9Effekseer24ProceduralModelGenerator8GenerateERKNS2_24ProceduralModelParameterEE3$_3NS_9allocatorIS7_EEFNS2_4SIMD5Vec2fEfEE7__cloneEPNS0_6__baseISC_EE', symObjAddr: 0x705C, symBinAddr: 0x100054E9C, symSize: 0x1C }
  - { offset: 0x406E80, size: 0x8, addend: 0x0, symName: '__ZNSt3__110__function6__funcIZN9Effekseer24ProceduralModelGenerator8GenerateERKNS2_24ProceduralModelParameterEE3$_3NS_9allocatorIS7_EEFNS2_4SIMD5Vec2fEfEE7destroyEv', symObjAddr: 0x7078, symBinAddr: 0x100054EB8, symSize: 0x30 }
  - { offset: 0x4070BF, size: 0x8, addend: 0x0, symName: '__ZNSt3__110__function6__funcIZN9Effekseer24ProceduralModelGenerator8GenerateERKNS2_24ProceduralModelParameterEE3$_3NS_9allocatorIS7_EEFNS2_4SIMD5Vec2fEfEE18destroy_deallocateEv', symObjAddr: 0x70A8, symBinAddr: 0x100054EE8, symSize: 0x38 }
  - { offset: 0x40741E, size: 0x8, addend: 0x0, symName: '__ZNSt3__110__function6__funcIZN9Effekseer24ProceduralModelGenerator8GenerateERKNS2_24ProceduralModelParameterEE3$_3NS_9allocatorIS7_EEFNS2_4SIMD5Vec2fEfEEclEOf', symObjAddr: 0x70E0, symBinAddr: 0x100054F20, symSize: 0xD0 }
  - { offset: 0x4075CB, size: 0x8, addend: 0x0, symName: '__ZNKSt3__110__function6__funcIZN9Effekseer24ProceduralModelGenerator8GenerateERKNS2_24ProceduralModelParameterEE3$_3NS_9allocatorIS7_EEFNS2_4SIMD5Vec2fEfEE6targetERKSt9type_info', symObjAddr: 0x71B0, symBinAddr: 0x100054FF0, symSize: 0x64 }
  - { offset: 0x40767E, size: 0x8, addend: 0x0, symName: '__ZNKSt3__110__function6__funcIZN9Effekseer24ProceduralModelGenerator8GenerateERKNS2_24ProceduralModelParameterEE3$_3NS_9allocatorIS7_EEFNS2_4SIMD5Vec2fEfEE11target_typeEv', symObjAddr: 0x7214, symBinAddr: 0x100055054, symSize: 0xC }
  - { offset: 0x4076A1, size: 0x8, addend: 0x0, symName: '__ZNSt3__110__function6__funcIZN9Effekseer24ProceduralModelGenerator8GenerateERKNS2_24ProceduralModelParameterEE3$_4NS_9allocatorIS7_EEFNS2_4SIMD5Vec3fESB_EED1Ev', symObjAddr: 0x7220, symBinAddr: 0x100055060, symSize: 0x4 }
  - { offset: 0x4076CD, size: 0x8, addend: 0x0, symName: '__ZNSt3__110__function6__funcIZN9Effekseer24ProceduralModelGenerator8GenerateERKNS2_24ProceduralModelParameterEE3$_4NS_9allocatorIS7_EEFNS2_4SIMD5Vec3fESB_EED0Ev', symObjAddr: 0x7224, symBinAddr: 0x100055064, symSize: 0x4 }
  - { offset: 0x4077BD, size: 0x8, addend: 0x0, symName: '__ZNKSt3__110__function6__funcIZN9Effekseer24ProceduralModelGenerator8GenerateERKNS2_24ProceduralModelParameterEE3$_4NS_9allocatorIS7_EEFNS2_4SIMD5Vec3fESB_EE7__cloneEv', symObjAddr: 0x7228, symBinAddr: 0x100055068, symSize: 0x44 }
  - { offset: 0x407994, size: 0x8, addend: 0x0, symName: '__ZNKSt3__110__function6__funcIZN9Effekseer24ProceduralModelGenerator8GenerateERKNS2_24ProceduralModelParameterEE3$_4NS_9allocatorIS7_EEFNS2_4SIMD5Vec3fESB_EE7__cloneEPNS0_6__baseISC_EE', symObjAddr: 0x726C, symBinAddr: 0x1000550AC, symSize: 0x20 }
  - { offset: 0x407A32, size: 0x8, addend: 0x0, symName: '__ZNSt3__110__function6__funcIZN9Effekseer24ProceduralModelGenerator8GenerateERKNS2_24ProceduralModelParameterEE3$_4NS_9allocatorIS7_EEFNS2_4SIMD5Vec3fESB_EE7destroyEv', symObjAddr: 0x728C, symBinAddr: 0x1000550CC, symSize: 0x4 }
  - { offset: 0x407A86, size: 0x8, addend: 0x0, symName: '__ZNSt3__110__function6__funcIZN9Effekseer24ProceduralModelGenerator8GenerateERKNS2_24ProceduralModelParameterEE3$_4NS_9allocatorIS7_EEFNS2_4SIMD5Vec3fESB_EE18destroy_deallocateEv', symObjAddr: 0x7290, symBinAddr: 0x1000550D0, symSize: 0x4 }
  - { offset: 0x407AB9, size: 0x8, addend: 0x0, symName: '__ZNSt3__110__function6__funcIZN9Effekseer24ProceduralModelGenerator8GenerateERKNS2_24ProceduralModelParameterEE3$_4NS_9allocatorIS7_EEFNS2_4SIMD5Vec3fESB_EE18destroy_deallocateEv', symObjAddr: 0x7290, symBinAddr: 0x1000550D0, symSize: 0x4 }
  - { offset: 0x407ADB, size: 0x8, addend: 0x0, symName: '__ZNSt3__110__function6__funcIZN9Effekseer24ProceduralModelGenerator8GenerateERKNS2_24ProceduralModelParameterEE3$_4NS_9allocatorIS7_EEFNS2_4SIMD5Vec3fESB_EE18destroy_deallocateEv', symObjAddr: 0x7290, symBinAddr: 0x1000550D0, symSize: 0x4 }
  - { offset: 0x407B0E, size: 0x8, addend: 0x0, symName: '__ZNSt3__110__function6__funcIZN9Effekseer24ProceduralModelGenerator8GenerateERKNS2_24ProceduralModelParameterEE3$_4NS_9allocatorIS7_EEFNS2_4SIMD5Vec3fESB_EE18destroy_deallocateEv', symObjAddr: 0x7290, symBinAddr: 0x1000550D0, symSize: 0x4 }
  - { offset: 0x407C13, size: 0x8, addend: 0x0, symName: '__ZNSt3__110__function6__funcIZN9Effekseer24ProceduralModelGenerator8GenerateERKNS2_24ProceduralModelParameterEE3$_4NS_9allocatorIS7_EEFNS2_4SIMD5Vec3fESB_EEclEOSB_', symObjAddr: 0x7294, symBinAddr: 0x1000550D4, symSize: 0x218 }
  - { offset: 0x408957, size: 0x8, addend: 0x0, symName: '__ZNKSt3__110__function6__funcIZN9Effekseer24ProceduralModelGenerator8GenerateERKNS2_24ProceduralModelParameterEE3$_4NS_9allocatorIS7_EEFNS2_4SIMD5Vec3fESB_EE6targetERKSt9type_info', symObjAddr: 0x74AC, symBinAddr: 0x1000552EC, symSize: 0x64 }
  - { offset: 0x408A0A, size: 0x8, addend: 0x0, symName: '__ZNKSt3__110__function6__funcIZN9Effekseer24ProceduralModelGenerator8GenerateERKNS2_24ProceduralModelParameterEE3$_4NS_9allocatorIS7_EEFNS2_4SIMD5Vec3fESB_EE11target_typeEv', symObjAddr: 0x7510, symBinAddr: 0x100055350, symSize: 0xC }
  - { offset: 0x40A9F6, size: 0x8, addend: 0x0, symName: __ZN9Effekseer10RandObject7SetSeedEi, symObjAddr: 0x0, symBinAddr: 0x10005535C, symSize: 0x8 }
  - { offset: 0x40AB63, size: 0x8, addend: 0x0, symName: __ZN9Effekseer10RandObject7SetSeedEi, symObjAddr: 0x0, symBinAddr: 0x10005535C, symSize: 0x8 }
  - { offset: 0x40ABA7, size: 0x8, addend: 0x0, symName: __ZN9Effekseer10RandObject10GetRandIntEv, symObjAddr: 0x8, symBinAddr: 0x100055364, symSize: 0x38 }
  - { offset: 0x40ABD2, size: 0x8, addend: 0x0, symName: __ZN9Effekseer10RandObject10GetRandIntEv, symObjAddr: 0x8, symBinAddr: 0x100055364, symSize: 0x38 }
  - { offset: 0x40AC0D, size: 0x8, addend: 0x0, symName: __ZN9Effekseer10RandObject7GetRandEv, symObjAddr: 0x40, symBinAddr: 0x10005539C, symSize: 0x4C }
  - { offset: 0x40AC46, size: 0x8, addend: 0x0, symName: __ZN9Effekseer10RandObject7GetRandEv, symObjAddr: 0x40, symBinAddr: 0x10005539C, symSize: 0x4C }
  - { offset: 0x40AC81, size: 0x8, addend: 0x0, symName: __ZN9Effekseer10RandObject7GetRandEff, symObjAddr: 0x8C, symBinAddr: 0x1000553E8, symSize: 0x34 }
  - { offset: 0x40ACDC, size: 0x8, addend: 0x0, symName: __ZN9Effekseer12RandCallback4RandEPv, symObjAddr: 0xC0, symBinAddr: 0x10005541C, symSize: 0xC }
  - { offset: 0x40AD21, size: 0x8, addend: 0x0, symName: __ZN9Effekseer12RandCallback8RandSeedEPvf, symObjAddr: 0xCC, symBinAddr: 0x100055428, symSize: 0x44 }
  - { offset: 0x40AD98, size: 0x8, addend: 0x0, symName: __ZN9Effekseer10RandObjectD1Ev, symObjAddr: 0x110, symBinAddr: 0x10005546C, symSize: 0x4 }
  - { offset: 0x40ADC3, size: 0x8, addend: 0x0, symName: __ZN9Effekseer10RandObjectD0Ev, symObjAddr: 0x114, symBinAddr: 0x100055470, symSize: 0x4 }
  - { offset: 0x40DA18, size: 0x8, addend: 0x0, symName: __ZN9Effekseer15ResourceManager11LoadTextureEPKDsNS_11TextureTypeE, symObjAddr: 0x0, symBinAddr: 0x100055474, symSize: 0x28 }
  - { offset: 0x4219BD, size: 0x8, addend: 0x0, symName: __ZNSt3__112__hash_tableINS_17__hash_value_typeIN9Effekseer10StringViewIDsEENS2_15ResourceManager11LoadCountedINS2_6RefPtrINS2_7TextureEEEEEEENS_22__unordered_map_hasherIS4_SB_NS4_4HashENS_8equal_toIS4_EELb1EEENS_21__unordered_map_equalIS4_SB_SF_SD_Lb1EEENS2_15CustomAllocatorISB_EEE25__emplace_unique_key_argsIS4_JRKS4_SA_EEENS_4pairINS_15__hash_iteratorIPNS_11__hash_nodeISB_PvEEEEbEERKT_DpOT0_, symObjAddr: 0x15C0, symBinAddr: 0x1000560C8, symSize: 0x3D4 }
  - { offset: 0x427268, size: 0x8, addend: 0x0, symName: __ZN9Effekseer15ResourceManager11LoadTextureEPKDsNS_11TextureTypeE, symObjAddr: 0x0, symBinAddr: 0x100055474, symSize: 0x28 }
  - { offset: 0x4272D6, size: 0x8, addend: 0x0, symName: __ZN9Effekseer15ResourceManager15CachedResourcesINS_6RefPtrINS_13TextureLoaderEEENS2_INS_7TextureEEEE4LoadIJRNS_11TextureTypeEEEES6_PKDsDpOT_, symObjAddr: 0x28, symBinAddr: 0x10005549C, symSize: 0x1B8 }
  - { offset: 0x427C4A, size: 0x8, addend: 0x0, symName: __ZNSt3__112__hash_tableINS_17__hash_value_typeIN9Effekseer10StringViewIDsEENS2_15ResourceManager11LoadCountedINS2_6RefPtrINS2_7TextureEEEEEEENS_22__unordered_map_hasherIS4_SB_NS4_4HashENS_8equal_toIS4_EELb1EEENS_21__unordered_map_equalIS4_SB_SF_SD_Lb1EEENS2_15CustomAllocatorISB_EEE4findIS4_EENS_15__hash_iteratorIPNS_11__hash_nodeISB_PvEEEERKT_, symObjAddr: 0x118C, symBinAddr: 0x100055CAC, symSize: 0x120 }
  - { offset: 0x427EF5, size: 0x8, addend: 0x0, symName: __ZNSt3__112basic_stringIDsNS_11char_traitsIDsEEN9Effekseer15CustomAllocatorIDsEEE17__assign_externalEPKDs, symObjAddr: 0x1364, symBinAddr: 0x100055E84, symSize: 0x2C }
  - { offset: 0x427F2C, size: 0x8, addend: 0x0, symName: __ZNSt3__112basic_stringIDsNS_11char_traitsIDsEEN9Effekseer15CustomAllocatorIDsEEE17__assign_externalEPKDs, symObjAddr: 0x1364, symBinAddr: 0x100055E84, symSize: 0x2C }
  - { offset: 0x427F72, size: 0x8, addend: 0x0, symName: __ZNSt3__112__hash_tableINS_17__hash_value_typeIN9Effekseer10StringViewIDsEENS2_15ResourceManager11LoadCountedINS2_6RefPtrINS2_7TextureEEEEEEENS_22__unordered_map_hasherIS4_SB_NS4_4HashENS_8equal_toIS4_EELb1EEENS_21__unordered_map_equalIS4_SB_SF_SD_Lb1EEENS2_15CustomAllocatorISB_EEE25__emplace_unique_key_argsIS4_JRKS4_SA_EEENS_4pairINS_15__hash_iteratorIPNS_11__hash_nodeISB_PvEEEEbEERKT_DpOT0_, symObjAddr: 0x15C0, symBinAddr: 0x1000560C8, symSize: 0x3D4 }
  - { offset: 0x428819, size: 0x8, addend: 0x0, symName: __ZNSt3__112__hash_tableINS_17__hash_value_typeIN9Effekseer10StringViewIDsEENS2_15ResourceManager11LoadCountedINS2_6RefPtrINS2_7TextureEEEEEEENS_22__unordered_map_hasherIS4_SB_NS4_4HashENS_8equal_toIS4_EELb1EEENS_21__unordered_map_equalIS4_SB_SF_SD_Lb1EEENS2_15CustomAllocatorISB_EEE11__do_rehashILb1EEEvm, symObjAddr: 0x1994, symBinAddr: 0x10005649C, symSize: 0x28C }
  - { offset: 0x428840, size: 0x8, addend: 0x0, symName: __ZN9Effekseer15ResourceManager13UnloadTextureENS_6RefPtrINS_7TextureEEE, symObjAddr: 0x1E0, symBinAddr: 0x100055654, symSize: 0x8 }
  - { offset: 0x42888C, size: 0x8, addend: 0x0, symName: __ZN9Effekseer15ResourceManager15CachedResourcesINS_6RefPtrINS_13TextureLoaderEEENS2_INS_7TextureEEEE6UnloadERKS6_, symObjAddr: 0x1E8, symBinAddr: 0x10005565C, symSize: 0x120 }
  - { offset: 0x428CC8, size: 0x8, addend: 0x0, symName: __ZNSt3__112__hash_tableINS_17__hash_value_typeIN9Effekseer10StringViewIDsEENS2_15ResourceManager11LoadCountedINS2_6RefPtrINS2_7TextureEEEEEEENS_22__unordered_map_hasherIS4_SB_NS4_4HashENS_8equal_toIS4_EELb1EEENS_21__unordered_map_equalIS4_SB_SF_SD_Lb1EEENS2_15CustomAllocatorISB_EEE5eraseENS_21__hash_const_iteratorIPNS_11__hash_nodeISB_PvEEEE, symObjAddr: 0x1C20, symBinAddr: 0x100056728, symSize: 0xF4 }
  - { offset: 0x429031, size: 0x8, addend: 0x0, symName: __ZNSt3__112__hash_tableINS_17__hash_value_typeIN9Effekseer10StringViewIDsEENS2_15ResourceManager11LoadCountedINS2_6RefPtrINS2_7TextureEEEEEEENS_22__unordered_map_hasherIS4_SB_NS4_4HashENS_8equal_toIS4_EELb1EEENS_21__unordered_map_equalIS4_SB_SF_SD_Lb1EEENS2_15CustomAllocatorISB_EEE6removeENS_21__hash_const_iteratorIPNS_11__hash_nodeISB_PvEEEE, symObjAddr: 0x1D14, symBinAddr: 0x10005681C, symSize: 0x13C }
  - { offset: 0x42903C, size: 0x8, addend: 0x0, symName: __ZN9Effekseer15ResourceManager9LoadModelEPKDs, symObjAddr: 0x308, symBinAddr: 0x10005577C, symSize: 0x8 }
  - { offset: 0x42908E, size: 0x8, addend: 0x0, symName: __ZN9Effekseer15ResourceManager15CachedResourcesINS_6RefPtrINS_11ModelLoaderEEENS2_INS_5ModelEEEE4LoadIJEEES6_PKDsDpOT_, symObjAddr: 0x310, symBinAddr: 0x100055784, symSize: 0x19C }
  - { offset: 0x429FB9, size: 0x8, addend: 0x0, symName: __ZN9Effekseer15ResourceManager11UnloadModelENS_6RefPtrINS_5ModelEEE, symObjAddr: 0x4AC, symBinAddr: 0x100055920, symSize: 0x8 }
  - { offset: 0x42A506, size: 0x8, addend: 0x0, symName: __ZN9Effekseer15ResourceManager13LoadSoundDataEPKDs, symObjAddr: 0x5D4, symBinAddr: 0x100055928, symSize: 0x8 }
  - { offset: 0x42B271, size: 0x8, addend: 0x0, symName: __ZN9Effekseer15ResourceManager15UnloadSoundDataENS_6RefPtrINS_9SoundDataEEE, symObjAddr: 0x778, symBinAddr: 0x100055930, symSize: 0x8 }
  - { offset: 0x42B7BE, size: 0x8, addend: 0x0, symName: __ZN9Effekseer15ResourceManager12LoadMaterialEPKDs, symObjAddr: 0x8A0, symBinAddr: 0x100055938, symSize: 0x8 }
  - { offset: 0x42C529, size: 0x8, addend: 0x0, symName: __ZN9Effekseer15ResourceManager14UnloadMaterialENS_6RefPtrINS_8MaterialEEE, symObjAddr: 0xA44, symBinAddr: 0x100055940, symSize: 0x8 }
  - { offset: 0x42CA76, size: 0x8, addend: 0x0, symName: __ZN9Effekseer15ResourceManager9LoadCurveEPKDs, symObjAddr: 0xB6C, symBinAddr: 0x100055948, symSize: 0x8 }
  - { offset: 0x42D7E1, size: 0x8, addend: 0x0, symName: __ZN9Effekseer15ResourceManager11UnloadCurveENS_6RefPtrINS_5CurveEEE, symObjAddr: 0xD10, symBinAddr: 0x100055950, symSize: 0x8 }
  - { offset: 0x42DD2E, size: 0x8, addend: 0x0, symName: __ZN9Effekseer15ResourceManager23GenerateProceduralModelERKNS_24ProceduralModelParameterE, symObjAddr: 0xE38, symBinAddr: 0x100055958, symSize: 0x8 }
  - { offset: 0x42DD80, size: 0x8, addend: 0x0, symName: __ZN9Effekseer15ResourceManager24CachedParameterResourcesINS_6RefPtrINS_24ProceduralModelGeneratorEEENS_24ProceduralModelParameterENS2_INS_5ModelEEEE4LoadIJEEES7_RKS5_, symObjAddr: 0xE40, symBinAddr: 0x100055960, symSize: 0x1A0 }
  - { offset: 0x42E4B3, size: 0x8, addend: 0x0, symName: __ZNK9Effekseer24ProceduralModelParameterltERKS0_, symObjAddr: 0x4510, symBinAddr: 0x100056958, symSize: 0xCFC }
  - { offset: 0x4316CA, size: 0x8, addend: 0x0, symName: __ZNSt3__16__treeINS_12__value_typeIN9Effekseer24ProceduralModelParameterENS2_15ResourceManager15GenerateCountedIS3_NS2_6RefPtrINS2_5ModelEEEEEEENS_19__map_value_compareIS3_SA_NS_4lessIS3_EELb1EEENS2_15CustomAllocatorISA_EEE25__emplace_unique_key_argsIS3_JRKS3_S9_EEENS_4pairINS_15__tree_iteratorISA_PNS_11__tree_nodeISA_PvEElEEbEERKT_DpOT0_, symObjAddr: 0x5250, symBinAddr: 0x100057698, symSize: 0x1C0 }
  - { offset: 0x431BDD, size: 0x8, addend: 0x0, symName: __ZN9Effekseer15ResourceManager25UngenerateProceduralModelENS_6RefPtrINS_5ModelEEE, symObjAddr: 0xFE0, symBinAddr: 0x100055B00, symSize: 0x8 }
  - { offset: 0x431C29, size: 0x8, addend: 0x0, symName: __ZN9Effekseer15ResourceManager24CachedParameterResourcesINS_6RefPtrINS_24ProceduralModelGeneratorEEENS_24ProceduralModelParameterENS2_INS_5ModelEEEE6UnloadERKS7_, symObjAddr: 0xFE8, symBinAddr: 0x100055B08, symSize: 0x1A4 }
  - { offset: 0x431C8C, size: 0x8, addend: 0x0, symName: __ZN9Effekseer15ResourceManager24CachedParameterResourcesINS_6RefPtrINS_24ProceduralModelGeneratorEEENS_24ProceduralModelParameterENS2_INS_5ModelEEEE6UnloadERKS7_, symObjAddr: 0xFE8, symBinAddr: 0x100055B08, symSize: 0x1A4 }
  - { offset: 0x431CA9, size: 0x8, addend: 0x0, symName: __ZN9Effekseer15ResourceManager24CachedParameterResourcesINS_6RefPtrINS_24ProceduralModelGeneratorEEENS_24ProceduralModelParameterENS2_INS_5ModelEEEE6UnloadERKS7_, symObjAddr: 0xFE8, symBinAddr: 0x100055B08, symSize: 0x1A4 }
  - { offset: 0x43249B, size: 0x8, addend: 0x0, symName: __ZNSt3__16__treeINS_12__value_typeIN9Effekseer24ProceduralModelParameterENS2_15ResourceManager15GenerateCountedIS3_NS2_6RefPtrINS2_5ModelEEEEEEENS_19__map_value_compareIS3_SA_NS_4lessIS3_EELb1EEENS2_15CustomAllocatorISA_EEE5eraseENS_21__tree_const_iteratorISA_PNS_11__tree_nodeISA_PvEElEE, symObjAddr: 0x55AC, symBinAddr: 0x100057858, symSize: 0x12C }
  - { offset: 0x432B51, size: 0x8, addend: 0x0, symName: __ZNSt3__112basic_stringIDsNS_11char_traitsIDsEEN9Effekseer15CustomAllocatorIDsEEE17__assign_externalEPKDsm, symObjAddr: 0x12AC, symBinAddr: 0x100055DCC, symSize: 0xB8 }
  - { offset: 0x432E00, size: 0x8, addend: 0x0, symName: __ZNSt3__112basic_stringIDsNS_11char_traitsIDsEEN9Effekseer15CustomAllocatorIDsEEE21__grow_by_and_replaceEmmmmmmPKDs, symObjAddr: 0x1390, symBinAddr: 0x100055EB0, symSize: 0x218 }
  - { offset: 0x4339D4, size: 0x8, addend: 0x0, symName: __ZNSt3__112__hash_tableINS_17__hash_value_typeIN9Effekseer10StringViewIDsEENS2_15ResourceManager11LoadCountedINS2_6RefPtrINS2_7TextureEEEEEEENS_22__unordered_map_hasherIS4_SB_NS4_4HashENS_8equal_toIS4_EELb1EEENS_21__unordered_map_equalIS4_SB_SF_SD_Lb1EEENS2_15CustomAllocatorISB_EEE11__do_rehashILb1EEEvm, symObjAddr: 0x1994, symBinAddr: 0x10005649C, symSize: 0x28C }
  - { offset: 0x43426B, size: 0x8, addend: 0x0, symName: __ZNSt3__112__hash_tableINS_17__hash_value_typeIN9Effekseer10StringViewIDsEENS2_15ResourceManager11LoadCountedINS2_6RefPtrINS2_7TextureEEEEEEENS_22__unordered_map_hasherIS4_SB_NS4_4HashENS_8equal_toIS4_EELb1EEENS_21__unordered_map_equalIS4_SB_SF_SD_Lb1EEENS2_15CustomAllocatorISB_EEE6removeENS_21__hash_const_iteratorIPNS_11__hash_nodeISB_PvEEEE, symObjAddr: 0x1D14, symBinAddr: 0x10005681C, symSize: 0x13C }
  - { offset: 0x4342E0, size: 0x8, addend: 0x0, symName: __ZNSt3__112__hash_tableINS_17__hash_value_typeIN9Effekseer10StringViewIDsEENS2_15ResourceManager11LoadCountedINS2_6RefPtrINS2_7TextureEEEEEEENS_22__unordered_map_hasherIS4_SB_NS4_4HashENS_8equal_toIS4_EELb1EEENS_21__unordered_map_equalIS4_SB_SF_SD_Lb1EEENS2_15CustomAllocatorISB_EEE6removeENS_21__hash_const_iteratorIPNS_11__hash_nodeISB_PvEEEE, symObjAddr: 0x1D14, symBinAddr: 0x10005681C, symSize: 0x13C }
  - { offset: 0x4342FC, size: 0x8, addend: 0x0, symName: __ZNSt3__112__hash_tableINS_17__hash_value_typeIN9Effekseer10StringViewIDsEENS2_15ResourceManager11LoadCountedINS2_6RefPtrINS2_7TextureEEEEEEENS_22__unordered_map_hasherIS4_SB_NS4_4HashENS_8equal_toIS4_EELb1EEENS_21__unordered_map_equalIS4_SB_SF_SD_Lb1EEENS2_15CustomAllocatorISB_EEE6removeENS_21__hash_const_iteratorIPNS_11__hash_nodeISB_PvEEEE, symObjAddr: 0x1D14, symBinAddr: 0x10005681C, symSize: 0x13C }
  - { offset: 0x437A4E, size: 0x8, addend: 0x0, symName: __ZNK9Effekseer24ProceduralModelParameterltERKS0_.cold.2, symObjAddr: 0x5A84, symBinAddr: 0x10034D4C4, symSize: 0x28 }
  - { offset: 0x437A66, size: 0x8, addend: 0x0, symName: __ZNK9Effekseer5ColorltERKS0_, symObjAddr: 0x520C, symBinAddr: 0x100057654, symSize: 0x44 }
  - { offset: 0x437A9A, size: 0x8, addend: 0x0, symName: __ZNK9Effekseer24ProceduralModelParameterltERKS0_.cold.1, symObjAddr: 0x5A5C, symBinAddr: 0x10034D49C, symSize: 0x28 }
  - { offset: 0x439D4A, size: 0x8, addend: 0x0, symName: __ZN9Effekseer17RotationParameter4LoadERPhi, symObjAddr: 0x0, symBinAddr: 0x100057984, symSize: 0x324 }
  - { offset: 0x44FD06, size: 0x8, addend: 0x0, symName: __ZN9Effekseer17RotationParameter4LoadERPhi, symObjAddr: 0x0, symBinAddr: 0x100057984, symSize: 0x324 }
  - { offset: 0x4506AA, size: 0x8, addend: 0x0, symName: __ZN9Effekseer17RotationParameter4LoadERPhi.cold.1, symObjAddr: 0x1480, symBinAddr: 0x10034D4EC, symSize: 0x28 }
  - { offset: 0x4506C2, size: 0x8, addend: 0x0, symName: __ZN9Effekseer17RotationParameter4LoadERPhi.cold.3, symObjAddr: 0x14D0, symBinAddr: 0x10034D53C, symSize: 0x28 }
  - { offset: 0x4506DA, size: 0x8, addend: 0x0, symName: __ZN9Effekseer17RotationParameter4LoadERPhi.cold.2, symObjAddr: 0x14A8, symBinAddr: 0x10034D514, symSize: 0x28 }
  - { offset: 0x4507D8, size: 0x8, addend: 0x0, symName: __ZN9Effekseer17RotationParameter22MakeCoordinateSystemLHEv, symObjAddr: 0x5F0, symBinAddr: 0x100057CA8, symSize: 0x130 }
  - { offset: 0x450ACC, size: 0x8, addend: 0x0, symName: __ZN9Effekseer17RotationFunctions12InitRotationERNS_13RotationStateERKNS_17RotationParameterERNS_10RandObjectEPKNS_6EffectEPKNS_14InstanceGlobalEffPKNS_8InstanceERKNS_22DynamicFactorParameterE, symObjAddr: 0x7B0, symBinAddr: 0x100057DD8, symSize: 0x4C8 }
  - { offset: 0x45144B, size: 0x8, addend: 0x0, symName: __ZN9Effekseer17RotationFunctions17CalculateInGlobalERKNS_17RotationParameterE, symObjAddr: 0xC78, symBinAddr: 0x1000582A0, symSize: 0x10 }
  - { offset: 0x451460, size: 0x8, addend: 0x0, symName: __ZN9Effekseer17RotationFunctions12InitRotationERNS_13RotationStateERKNS_17RotationParameterERNS_10RandObjectEPKNS_6EffectEPKNS_14InstanceGlobalEffPKNS_8InstanceERKNS_22DynamicFactorParameterE.cold.1, symObjAddr: 0x14F8, symBinAddr: 0x10034D564, symSize: 0x28 }
  - { offset: 0x451478, size: 0x8, addend: 0x0, symName: __ZN9Effekseer17RotationFunctions17CalculateInGlobalERKNS_17RotationParameterE, symObjAddr: 0xC78, symBinAddr: 0x1000582A0, symSize: 0x10 }
  - { offset: 0x451871, size: 0x8, addend: 0x0, symName: __ZN9Effekseer17RotationFunctions17CalculateRotationERNS_13RotationStateERKNS_17RotationParameterERNS_10RandObjectEPKNS_6EffectEPKNS_14InstanceGlobalEffPKNS_8InstanceERKNS_22DynamicFactorParameterERKNS_8Vector3DE, symObjAddr: 0xC88, symBinAddr: 0x1000582B0, symSize: 0x378 }
  - { offset: 0x4521BC, size: 0x8, addend: 0x0, symName: __ZN9Effekseer17RotationFunctions23CalculateRotationGlobalERNS_13RotationStateERKNS_17RotationParameterERKNS_4SIMD5Vec3fE, symObjAddr: 0x1000, symBinAddr: 0x100058628, symSize: 0x21C }
  - { offset: 0x4521C7, size: 0x8, addend: 0x0, symName: __ZN9Effekseer17RotationFunctions17CalculateRotationERNS_13RotationStateERKNS_17RotationParameterERNS_10RandObjectEPKNS_6EffectEPKNS_14InstanceGlobalEffPKNS_8InstanceERKNS_22DynamicFactorParameterERKNS_8Vector3DE.cold.1, symObjAddr: 0x1520, symBinAddr: 0x10034D58C, symSize: 0x28 }
  - { offset: 0x4522D3, size: 0x8, addend: 0x0, symName: __ZN9Effekseer17RotationFunctions23CalculateRotationGlobalERNS_13RotationStateERKNS_17RotationParameterERKNS_4SIMD5Vec3fE, symObjAddr: 0x1000, symBinAddr: 0x100058628, symSize: 0x21C }
  - { offset: 0x4545FC, size: 0x8, addend: 0x0, symName: __ZN9Effekseer7SettingC2Ev, symObjAddr: 0x0, symBinAddr: 0x100058844, symSize: 0x318 }
  - { offset: 0x466102, size: 0x8, addend: 0x0, symName: __ZNSt3__112__hash_tableINS_17__hash_value_typeIN9Effekseer10StringViewIDsEENS2_15ResourceManager11LoadCountedINS2_6RefPtrINS2_11VectorFieldEEEEEEENS_22__unordered_map_hasherIS4_SB_NS4_4HashENS_8equal_toIS4_EELb1EEENS_21__unordered_map_equalIS4_SB_SF_SD_Lb1EEENS2_15CustomAllocatorISB_EEED2Ev, symObjAddr: 0x109C, symBinAddr: 0x100059524, symSize: 0x160 }
  - { offset: 0x4674A3, size: 0x8, addend: 0x0, symName: __ZTVN9Effekseer7SettingE, symObjAddr: 0x1AE8, symBinAddr: 0x10048A618, symSize: 0x0 }
  - { offset: 0x46C31D, size: 0x8, addend: 0x0, symName: __ZN9Effekseer7SettingC2Ev, symObjAddr: 0x0, symBinAddr: 0x100058844, symSize: 0x318 }
  - { offset: 0x46D623, size: 0x8, addend: 0x0, symName: __ZNSt3__16vectorIN9Effekseer6RefPtrINS1_13EffectFactoryEEENS_9allocatorIS4_EEE24__emplace_back_slow_pathIJRS4_EEEPS4_DpOT_, symObjAddr: 0x18DC, symBinAddr: 0x100059684, symSize: 0x1F4 }
  - { offset: 0x46DDD7, size: 0x8, addend: 0x0, symName: __ZN9Effekseer7SettingD2Ev, symObjAddr: 0x3DC, symBinAddr: 0x100058B5C, symSize: 0xF4 }
  - { offset: 0x46E26C, size: 0x8, addend: 0x0, symName: __ZN9Effekseer7SettingD1Ev, symObjAddr: 0x520, symBinAddr: 0x100058C50, symSize: 0x4 }
  - { offset: 0x46E28E, size: 0x8, addend: 0x0, symName: __ZN9Effekseer7SettingD1Ev, symObjAddr: 0x520, symBinAddr: 0x100058C50, symSize: 0x4 }
  - { offset: 0x46E2BD, size: 0x8, addend: 0x0, symName: __ZN9Effekseer7SettingD0Ev, symObjAddr: 0x524, symBinAddr: 0x100058C54, symSize: 0x14 }
  - { offset: 0x46E386, size: 0x8, addend: 0x0, symName: __ZN9Effekseer7Setting6CreateEv, symObjAddr: 0x538, symBinAddr: 0x100058C68, symSize: 0x2C }
  - { offset: 0x46E40D, size: 0x8, addend: 0x0, symName: __ZNK9Effekseer7Setting19GetCoordinateSystemEv, symObjAddr: 0x564, symBinAddr: 0x100058C94, symSize: 0x8 }
  - { offset: 0x46E436, size: 0x8, addend: 0x0, symName: __ZN9Effekseer7Setting19SetCoordinateSystemENS_16CoordinateSystemE, symObjAddr: 0x56C, symBinAddr: 0x100058C9C, symSize: 0x8 }
  - { offset: 0x46E4B6, size: 0x8, addend: 0x0, symName: __ZN9Effekseer7Setting15GetEffectLoaderEv, symObjAddr: 0x574, symBinAddr: 0x100058CA4, symSize: 0x44 }
  - { offset: 0x46E566, size: 0x8, addend: 0x0, symName: __ZN9Effekseer7Setting15SetEffectLoaderENS_6RefPtrINS_12EffectLoaderEEE, symObjAddr: 0x5B8, symBinAddr: 0x100058CE8, symSize: 0x54 }
  - { offset: 0x46E6CD, size: 0x8, addend: 0x0, symName: __ZNK9Effekseer7Setting16GetTextureLoaderEv, symObjAddr: 0x60C, symBinAddr: 0x100058D3C, symSize: 0x44 }
  - { offset: 0x46E86F, size: 0x8, addend: 0x0, symName: __ZN9Effekseer7Setting16SetTextureLoaderENS_6RefPtrINS_13TextureLoaderEEE, symObjAddr: 0x650, symBinAddr: 0x100058D80, symSize: 0xC4 }
  - { offset: 0x46EB55, size: 0x8, addend: 0x0, symName: __ZNK9Effekseer7Setting14GetModelLoaderEv, symObjAddr: 0x714, symBinAddr: 0x100058E44, symSize: 0x44 }
  - { offset: 0x46ECFC, size: 0x8, addend: 0x0, symName: __ZN9Effekseer7Setting14SetModelLoaderENS_6RefPtrINS_11ModelLoaderEEE, symObjAddr: 0x758, symBinAddr: 0x100058E88, symSize: 0xC4 }
  - { offset: 0x46EFE5, size: 0x8, addend: 0x0, symName: __ZNK9Effekseer7Setting14GetSoundLoaderEv, symObjAddr: 0x81C, symBinAddr: 0x100058F4C, symSize: 0x44 }
  - { offset: 0x46F18C, size: 0x8, addend: 0x0, symName: __ZN9Effekseer7Setting14SetSoundLoaderENS_6RefPtrINS_11SoundLoaderEEE, symObjAddr: 0x860, symBinAddr: 0x100058F90, symSize: 0xC4 }
  - { offset: 0x46F475, size: 0x8, addend: 0x0, symName: __ZNK9Effekseer7Setting17GetMaterialLoaderEv, symObjAddr: 0x924, symBinAddr: 0x100059054, symSize: 0x44 }
  - { offset: 0x46F61C, size: 0x8, addend: 0x0, symName: __ZN9Effekseer7Setting17SetMaterialLoaderENS_6RefPtrINS_14MaterialLoaderEEE, symObjAddr: 0x968, symBinAddr: 0x100059098, symSize: 0xC4 }
  - { offset: 0x46F904, size: 0x8, addend: 0x0, symName: __ZNK9Effekseer7Setting14GetCurveLoaderEv, symObjAddr: 0xA2C, symBinAddr: 0x10005915C, symSize: 0x44 }
  - { offset: 0x46FAAB, size: 0x8, addend: 0x0, symName: __ZN9Effekseer7Setting14SetCurveLoaderENS_6RefPtrINS_11CurveLoaderEEE, symObjAddr: 0xA70, symBinAddr: 0x1000591A0, symSize: 0xC4 }
  - { offset: 0x46FD9C, size: 0x8, addend: 0x0, symName: __ZNK9Effekseer7Setting21GetGpuParticleFactoryEv, symObjAddr: 0xD44, symBinAddr: 0x100059264, symSize: 0x44 }
  - { offset: 0x46FE50, size: 0x8, addend: 0x0, symName: __ZN9Effekseer7Setting21SetGpuParticleFactoryENS_6RefPtrINS_18GpuParticleFactoryEEE, symObjAddr: 0xD88, symBinAddr: 0x1000592A8, symSize: 0x54 }
  - { offset: 0x46FF21, size: 0x8, addend: 0x0, symName: __ZNK9Effekseer7Setting16GetEffectFactoryEi, symObjAddr: 0xDDC, symBinAddr: 0x1000592FC, symSize: 0xC }
  - { offset: 0x46FF59, size: 0x8, addend: 0x0, symName: __ZNK9Effekseer7Setting16GetEffectFactoryEi, symObjAddr: 0xDDC, symBinAddr: 0x1000592FC, symSize: 0xC }
  - { offset: 0x46FF75, size: 0x8, addend: 0x0, symName: __ZNK9Effekseer7Setting21GetEffectFactoryCountEv, symObjAddr: 0xDE8, symBinAddr: 0x100059308, symSize: 0x10 }
  - { offset: 0x46FFA0, size: 0x8, addend: 0x0, symName: __ZNK9Effekseer7Setting21GetEffectFactoryCountEv, symObjAddr: 0xDE8, symBinAddr: 0x100059308, symSize: 0x10 }
  - { offset: 0x46FFBC, size: 0x8, addend: 0x0, symName: __ZN9Effekseer15ResourceManagerD1Ev, symObjAddr: 0xE84, symBinAddr: 0x100059318, symSize: 0x4 }
  - { offset: 0x46FFDE, size: 0x8, addend: 0x0, symName: __ZN9Effekseer15ResourceManagerD1Ev, symObjAddr: 0xE84, symBinAddr: 0x100059318, symSize: 0x4 }
  - { offset: 0x46FFF1, size: 0x8, addend: 0x0, symName: __ZN9Effekseer15ResourceManagerD2Ev, symObjAddr: 0xE9C, symBinAddr: 0x100059330, symSize: 0x110 }
  - { offset: 0x47071F, size: 0x8, addend: 0x0, symName: __ZN9Effekseer15ResourceManagerD0Ev, symObjAddr: 0xE88, symBinAddr: 0x10005931C, symSize: 0x14 }
  - { offset: 0x470B68, size: 0x8, addend: 0x0, symName: __ZNSt3__16__treeINS_12__value_typeIN9Effekseer24ProceduralModelParameterENS2_15ResourceManager15GenerateCountedIS3_NS2_6RefPtrINS2_5ModelEEEEEEENS_19__map_value_compareIS3_SA_NS_4lessIS3_EELb1EEENS2_15CustomAllocatorISA_EEE7destroyEPNS_11__tree_nodeISA_PvEE, symObjAddr: 0xFAC, symBinAddr: 0x100059440, symSize: 0xE4 }
  - { offset: 0x470E46, size: 0x8, addend: 0x0, symName: __ZNSt3__112__hash_tableINS_17__hash_value_typeIN9Effekseer10StringViewIDsEENS2_15ResourceManager11LoadCountedINS2_6RefPtrINS2_11VectorFieldEEEEEEENS_22__unordered_map_hasherIS4_SB_NS4_4HashENS_8equal_toIS4_EELb1EEENS_21__unordered_map_equalIS4_SB_SF_SD_Lb1EEENS2_15CustomAllocatorISB_EEED2Ev, symObjAddr: 0x109C, symBinAddr: 0x100059524, symSize: 0x160 }
  - { offset: 0x4754CD, size: 0x8, addend: 0x0, symName: __ZN9Effekseer15SplineGenerator9AddVertexERKNS_4SIMD5Vec3fE, symObjAddr: 0x0, symBinAddr: 0x100059878, symSize: 0x114 }
  - { offset: 0x47746A, size: 0x8, addend: 0x0, symName: __ZNSt3__16vectorIbN9Effekseer15CustomAllocatorIbEEE7reserveEm, symObjAddr: 0x660, symBinAddr: 0x100059D0C, symSize: 0x1E8 }
  - { offset: 0x478AFE, size: 0x8, addend: 0x0, symName: __ZN9Effekseer15SplineGenerator9AddVertexERKNS_4SIMD5Vec3fE, symObjAddr: 0x0, symBinAddr: 0x100059878, symSize: 0x114 }
  - { offset: 0x478D50, size: 0x8, addend: 0x0, symName: __ZN9Effekseer15SplineGenerator9CalculateEv, symObjAddr: 0x114, symBinAddr: 0x10005998C, symSize: 0x2B8 }
  - { offset: 0x47909B, size: 0x8, addend: 0x0, symName: __ZNSt3__16vectorIbN9Effekseer15CustomAllocatorIbEEE7reserveEm, symObjAddr: 0x660, symBinAddr: 0x100059D0C, symSize: 0x1E8 }
  - { offset: 0x4796F0, size: 0x8, addend: 0x0, symName: __ZN9Effekseer15SplineGenerator9CalculateEv, symObjAddr: 0x114, symBinAddr: 0x10005998C, symSize: 0x2B8 }
  - { offset: 0x47A374, size: 0x8, addend: 0x0, symName: __ZN9Effekseer15SplineGenerator5ResetEv, symObjAddr: 0x3CC, symBinAddr: 0x100059C44, symSize: 0x30 }
  - { offset: 0x47A39D, size: 0x8, addend: 0x0, symName: __ZN9Effekseer15SplineGenerator5ResetEv, symObjAddr: 0x3CC, symBinAddr: 0x100059C44, symSize: 0x30 }
  - { offset: 0x47A3B8, size: 0x8, addend: 0x0, symName: __ZN9Effekseer15SplineGenerator5ResetEv, symObjAddr: 0x3CC, symBinAddr: 0x100059C44, symSize: 0x30 }
  - { offset: 0x47A640, size: 0x8, addend: 0x0, symName: __ZNK9Effekseer15SplineGenerator8GetValueEf, symObjAddr: 0x3FC, symBinAddr: 0x100059C74, symSize: 0x98 }
  - { offset: 0x47D06B, size: 0x8, addend: 0x0, symName: __ZN9Effekseer16TriggerParameter4LoadERPhi, symObjAddr: 0x0, symBinAddr: 0x100059EF4, symSize: 0x74 }
  - { offset: 0x48267B, size: 0x8, addend: 0x0, symName: __ZN9Effekseer18IsTriggerActivatedERKNS_13TriggerValuesEPNS_14InstanceGlobalEPNS_8InstanceE, symObjAddr: 0x74, symBinAddr: 0x100059F68, symSize: 0x74 }
  - { offset: 0x4826C6, size: 0x8, addend: 0x0, symName: __ZN9Effekseer15GetTriggerCountERKNS_13TriggerValuesEPNS_14InstanceGlobalEPNS_8InstanceE, symObjAddr: 0xE8, symBinAddr: 0x100059FDC, symSize: 0x78 }
  - { offset: 0x49077C, size: 0x8, addend: 0x0, symName: __ZN9Effekseer16TriggerParameter4LoadERPhi, symObjAddr: 0x0, symBinAddr: 0x100059EF4, symSize: 0x74 }
  - { offset: 0x492769, size: 0x8, addend: 0x0, symName: __ZN9Effekseer8Vector3DngEv, symObjAddr: 0x0, symBinAddr: 0x10005A054, symSize: 0x18 }
  - { offset: 0x4934F2, size: 0x8, addend: 0x0, symName: __ZN9Effekseer8Vector3DngEv, symObjAddr: 0x0, symBinAddr: 0x10005A054, symSize: 0x18 }
  - { offset: 0x493519, size: 0x8, addend: 0x0, symName: __ZNK9Effekseer8Vector3DplERKS0_, symObjAddr: 0x18, symBinAddr: 0x10005A06C, symSize: 0x20 }
  - { offset: 0x49354D, size: 0x8, addend: 0x0, symName: __ZNK9Effekseer8Vector3DmiERKS0_, symObjAddr: 0x38, symBinAddr: 0x10005A08C, symSize: 0x20 }
  - { offset: 0x493581, size: 0x8, addend: 0x0, symName: __ZNK9Effekseer8Vector3DmlERKf, symObjAddr: 0x58, symBinAddr: 0x10005A0AC, symSize: 0x1C }
  - { offset: 0x4935B5, size: 0x8, addend: 0x0, symName: __ZNK9Effekseer8Vector3DdvERKf, symObjAddr: 0x74, symBinAddr: 0x10005A0C8, symSize: 0x1C }
  - { offset: 0x4935E9, size: 0x8, addend: 0x0, symName: __ZN9Effekseer8Vector3D3SubERS0_RKS0_S3_, symObjAddr: 0x130, symBinAddr: 0x10005A0E4, symSize: 0x24 }
  - { offset: 0x493627, size: 0x8, addend: 0x0, symName: __ZN9Effekseer8Vector3DpLERKS0_, symObjAddr: 0x154, symBinAddr: 0x10005A108, symSize: 0x24 }
  - { offset: 0x49365B, size: 0x8, addend: 0x0, symName: __ZN9Effekseer8Vector3DmLERKf, symObjAddr: 0x19C, symBinAddr: 0x10005A12C, symSize: 0x30 }
  - { offset: 0x49368F, size: 0x8, addend: 0x0, symName: __ZN9Effekseer8Vector3D6LengthERKS0_, symObjAddr: 0x1FC, symBinAddr: 0x10005A15C, symSize: 0x1C }
  - { offset: 0x4936D0, size: 0x8, addend: 0x0, symName: __ZN9Effekseer8Vector3D3DotERKS0_S2_, symObjAddr: 0x230, symBinAddr: 0x10005A178, symSize: 0x20 }
  - { offset: 0x493700, size: 0x8, addend: 0x0, symName: __ZN9Effekseer8Vector3D6NormalERS0_RKS0_, symObjAddr: 0x250, symBinAddr: 0x10005A198, symSize: 0x38 }
  - { offset: 0x493793, size: 0x8, addend: 0x0, symName: __ZN9Effekseer8Vector3D6NormalERKS0_, symObjAddr: 0x288, symBinAddr: 0x10005A1D0, symSize: 0x30 }
  - { offset: 0x4937C9, size: 0x8, addend: 0x0, symName: __ZN9Effekseer8Vector3D6NormalERKS0_, symObjAddr: 0x288, symBinAddr: 0x10005A1D0, symSize: 0x30 }
  - { offset: 0x493827, size: 0x8, addend: 0x0, symName: __ZN9Effekseer8Vector3D5CrossERS0_RKS0_S3_, symObjAddr: 0x2B8, symBinAddr: 0x10005A200, symSize: 0x40 }
